;
; File generated by cc65 v 2.18 - N/A
;
	.fopt		compiler,"cc65 v 2.18 - N/A"
	.setcpu		"6502"
	.smart		on
	.autoimport	on
	.case		on
	.debuginfo	off
	.importzp	sp, sreg, regsave, regbank
	.importzp	tmp1, tmp2, tmp3, tmp4, ptr1, ptr2, ptr3, ptr4
	.macpack	longbranch
	.export		_boss_ai_idle
	.export		_boss_ai_ascending
	.export		_boss_ai_descending
	.importzp	_TEMP
	.import		_rand8
	.import		_add_scroll_y_fast_sub
	.import		_metatile_property_lookup_table
	.importzp	_temp0
	.importzp	_temp1
	.importzp	_temp2
	.importzp	_temp3
	.importzp	_temp4
	.importzp	_x
	.importzp	_temp_x
	.importzp	_coordinates
	.importzp	_collision
	.importzp	_collision_U
	.importzp	_collision_D
	.importzp	_collision_L
	.importzp	_collision_R
	.importzp	_player_flags
	.importzp	_enemy_is_using_bg_collision
	.importzp	_temp5
	.importzp	_temp6
	.importzp	_temppointer
	.importzp	_temp_mutablepointer
	.importzp	_hitbox
	.importzp	_valrigard
	.import		_cmaps
	.import		_boss_dialog
	.import		_active_dboxdata
	.import		_enemies
	.import		_boss_state
	.import		_boss_memory
	.import		_trigger_dialog_box
	.import		_fire_at_target
	.import		_cannonball_ai_sub
	.import		_bg_collision
	.export		_boss_shoot_fireball
	.export		_boss_ai_intro
	.export		_boss_collide_sub

; ---------------------------------------------------------------
; void __near__ boss_ai_idle (void)
; ---------------------------------------------------------------

.segment	"CODE"

.proc	_boss_ai_idle: near

.segment	"CODE"

;
; if (temp0 == enemies.extra[x]) {
;
	ldy     _x
	lda     _enemies+384,y
	cmp     _temp0
	bne     L0084
;
; boss_state = BOSS_STATE_ASCENDING;
;
	lda     #$02
	sta     _boss_state
;
; temp0 = enemies.x[x];
;
	ldy     _x
	lda     _enemies,y
	sta     _temp0
;
; temp0 += rand8() & 0b00111111; // x -- MSB is sign
;
	jsr     _rand8
	and     #$3F
	clc
	adc     _temp0
	sta     _temp0
;
; temp1 = enemies.y[x];
;
	ldy     _x
	lda     _enemies+64,y
	sta     _temp1
;
; temp1 += rand8() & 0b00111111; // y -- MSB is sign
;
	jsr     _rand8
	and     #$3F
	clc
	adc     _temp1
	sta     _temp1
;
; temp2 = enemies.x[x];
;
	ldy     _x
	lda     _enemies,y
	sta     _temp2
;
; temp3 = enemies.y[x];
;
	ldy     _x
	lda     _enemies+64,y
	sta     _temp3
;
; temp_x = x;
;
	lda     _x
	sta     _temp_x
;
; fire_at_target();
;
	jsr     _fire_at_target
;
; BOSS_BRADS_TARGET = temp0;
;
	lda     _temp0
	sta     _boss_memory
;
; }
;
L0084:	rts

.endproc

; ---------------------------------------------------------------
; void __near__ boss_ai_ascending (void)
; ---------------------------------------------------------------

.segment	"CODE"

.proc	_boss_ai_ascending: near

.segment	"CODE"

;
; temp1 = BOSS_BRADS_TARGET;
;
	lda     _boss_memory
	sta     _temp1
;
; cannonball_ai_sub();
;
	jsr     _cannonball_ai_sub
;
; if (temp0 & 1) { cannonball_ai_sub(); }
;
	lda     _temp0
	and     #$01
	beq     L019E
	jsr     _cannonball_ai_sub
;
; enemy_is_using_bg_collision = 1;
;
L019E:	lda     #$01
	sta     _enemy_is_using_bg_collision
;
; hitbox.x = enemies.x[x];
;
	ldy     _x
	lda     _enemies,y
	sta     _hitbox
;
; hitbox.y = enemies.y[x];
;
	ldy     _x
	lda     _enemies+64,y
	sta     _hitbox+1
;
; hitbox.width = 16;
;
	lda     #$10
	sta     _hitbox+2
;
; hitbox.height = 16;
;
	sta     _hitbox+3
;
; bg_collision();
;
	jsr     _bg_collision
;
; if (collision_U >= 2 && !CANNONBALL_Y_DIRECTION(x)) { CANNONBALL_SET_POS_Y(x); } 
;
	lda     _collision_U
	cmp     #$02
	bcc     L01A2
	ldy     _x
	lda     _enemies+256,y
	and     #$20
	bne     L01A2
	ldy     _x
	lda     _enemies+256,y
	ora     #$20
;
; else if (collision_D >= 2 && CANNONBALL_Y_DIRECTION(x)) { CANNONBALL_SET_NEG_Y(x); }
;
	jmp     L01B4
L01A2:	lda     _collision_D
	cmp     #$02
	bcc     L01A6
	ldy     _x
	lda     _enemies+256,y
	and     #$20
	beq     L01A6
	ldy     _x
	lda     _enemies+256,y
	and     #$DF
L01B4:	sta     _TEMP
	ldy     _x
	lda     _TEMP
	sta     _enemies+256,y
;
; if (collision_L >= 2 && !CANNONBALL_X_DIRECTION(x)) { CANNONBALL_SET_POS_X(x); }
;
L01A6:	lda     _collision_L
	cmp     #$02
	bcc     L01AA
	ldy     _x
	lda     _enemies+256,y
	and     #$40
	bne     L01AA
	ldy     _x
	lda     _enemies+256,y
	ora     #$40
;
; else if (collision_R >= 2 && CANNONBALL_X_DIRECTION(x)) { CANNONBALL_SET_NEG_X(x); }
;
	jmp     L01B5
L01AA:	lda     _collision_R
	cmp     #$02
	lda     #$00
	bcc     L01AF
	ldy     _x
	lda     _enemies+256,y
	and     #$40
	beq     L01AF
	ldy     _x
	lda     _enemies+256,y
	and     #$BF
L01B5:	sta     _TEMP
	ldy     _x
	lda     _TEMP
	sta     _enemies+256,y
;
; enemy_is_using_bg_collision = 0;
;
	lda     #$00
L01AF:	sta     _enemy_is_using_bg_collision
;
; if (BOSS_FIREBALL_COOLDOWN) { --BOSS_FIREBALL_COOLDOWN; }
;
	lda     _boss_memory+1
	beq     L0103
	dec     _boss_memory+1
;
; else {
;
	jmp     L0108
;
; if (rand8() > 250) { 
;
L0103:	jsr     _rand8
	cmp     #$FB
	bcc     L0108
;
; boss_shoot_fireball(); ;
;
	jsr     _boss_shoot_fireball
;
; temp1 = enemies.extra[x]; // This gets modified by cannonball_ai_sub.
;
L0108:	ldy     _x
	lda     _enemies+384,y
	sta     _temp1
;
; temp0 = enemies.timer[x]; // (Already should be set to this)
;
	ldy     _x
	lda     _enemies+512,y
	sta     _temp0
;
; if (temp0 == temp1) { 
;
	lda     _temp1
	cmp     _temp0
	bne     L0114
;
; boss_state = BOSS_STATE_DESCENDING;
;
	lda     #$03
	sta     _boss_state
;
; enemies.timer[x] = 0;
;
	ldy     _x
	lda     #$00
	sta     _enemies+512,y
;
; }
;
L0114:	rts

.endproc

; ---------------------------------------------------------------
; void __near__ boss_ai_descending (void)
; ---------------------------------------------------------------

.segment	"CODE"

.proc	_boss_ai_descending: near

.segment	"CODE"

;
; high_byte(temp5) = enemies.nt[x];
;
	ldy     _x
	lda     _enemies+192,y
	sta     _temp5+1
;
; low_byte(temp5) = enemies.actual_y[x];
;
	ldy     _x
	lda     _enemies+128,y
	sta     _temp5
;
; temp1 = enemies.x[x] + 8; 
;
	ldy     _x
	lda     _enemies,y
	clc
	adc     #$08
	sta     _temp1
;
; add_scroll_y(temp5, 1, temp5);
;
	lda     _temp5
	sta     _TEMP
	lda     _temp5+1
	sta     _TEMP+1
	lda     #$01
	jsr     _add_scroll_y_fast_sub
	sta     _temp5
	stx     _temp5+1
;
; add_scroll_y(temp6, 16, temp5); 
;
	lda     _temp5
	sta     _TEMP
	lda     _temp5+1
	sta     _TEMP+1
	lda     #$10
	jsr     _add_scroll_y_fast_sub
	sta     _temp6
	stx     _temp6+1
;
; temp2 = low_byte(temp6); // Y of tile of interest
;
	lda     _temp6
	sta     _temp2
;
; temp4 = high_byte(temp6); // NT of tile of interest
;
	lda     _temp6+1
	sta     _temp4
;
; coordinates = (temp1 >> 4) + (temp2 & 0xf0);
;
	lda     _temp1
	lsr     a
	lsr     a
	lsr     a
	lsr     a
	sta     ptr1
	lda     _temp2
	and     #$F0
	clc
	adc     ptr1
	sta     _coordinates
;
; AsmSet2ByteFromPtrAtIndexVar(temppointer, cmaps, temp4);
;
	lda     _temp4
	asl     a
	tay
	lda     _cmaps,y
	sta     _temppointer
	lda     _cmaps+1,y
	sta     _temppointer+1
;
; AsmSet1ByteFromZpPtrAtIndexVar(collision, temppointer, coordinates);
;
	ldy     _coordinates
	lda     (_temppointer),y
	sta     _collision
;
; if (METATILE_IS_SOLID(collision)) {
;
	ldy     _collision
	lda     _metatile_property_lookup_table,y
	and     #$01
	beq     L0185
;
; enemies.extra[x] = rand8();
;
	lda     #<(_enemies+384)
	ldx     #>(_enemies+384)
	clc
	adc     _x
	bcc     L018C
	inx
L018C:	jsr     pushax
	jsr     _rand8
	ldy     #$00
	jsr     staspidx
;
; boss_state = BOSS_STATE_IDLE;
;
	lda     #$01
	sta     _boss_state
;
; enemies.nt[x] = high_byte(temp5);
;
L0185:	ldy     _x
	lda     _temp5+1
	sta     _enemies+192,y
;
; enemies.actual_y[x] = low_byte(temp5);
;
	ldy     _x
	lda     _temp5
	sta     _enemies+128,y
;
; }
;
	rts

.endproc

; ---------------------------------------------------------------
; void __near__ boss_shoot_fireball (void)
; ---------------------------------------------------------------

.segment	"CODE"

.proc	_boss_shoot_fireball: near

.segment	"CODE"

;
; temp1 = x + 4;
;
	lda     _x
	clc
	adc     #$04
	sta     _temp1
;
; for (temp_x = x+1; temp_x < temp1; ++temp_x) {
;
	lda     _x
	clc
	adc     #$01
	sta     _temp_x
	ldx     #$00
L01B7:	lda     _temp_x
	cmp     _temp1
	txa
	sbc     #$00
	bcc     L01B9
;
; }
;
	rts
;
; if (IS_ENEMY_ACTIVE(temp_x)) { continue; } // ENEMY_NONE
;
L01B9:	ldy     _temp_x
	lda     _enemies+256,y
	and     #$80
	jne     L01B8
;
; enemies.type[temp_x] = ENEMY_BOSS_FIREBALL;
;
	ldy     _temp_x
	lda     #$0B
	sta     _enemies+320,y
;
; temp0 = enemies.x[x] + 6;
;
	ldy     _x
	lda     _enemies,y
	clc
	adc     #$06
	sta     _temp0
;
; temp1 = enemies.actual_y[x] + 6;
;
	ldy     _x
	lda     _enemies+128,y
	clc
	adc     #$06
	sta     _temp1
;
; temp2 = enemies.nt[x];
;
	ldy     _x
	lda     _enemies+192,y
	sta     _temp2
;
; enemies.x[temp_x] = temp0;
;
	ldy     _temp_x
	lda     _temp0
	sta     _enemies,y
;
; enemies.actual_y[temp_x] = temp1;
;
	ldy     _temp_x
	lda     _temp1
	sta     _enemies+128,y
;
; enemies.nt[temp_x] = temp2;
;
	ldy     _temp_x
	lda     _temp2
	sta     _enemies+192,y
;
; temp0 = high_byte(valrigard.x) + (VALRIGARD_WIDTH/2);
;
	lda     _valrigard+1
	clc
	adc     #$05
	sta     _temp0
;
; temp1 = high_byte(valrigard.y) + 4;
;
	lda     _valrigard+3
	clc
	adc     #$04
	sta     _temp1
;
; temp2 = enemies.x[x] + 6; // ENEMY_WIDTH/2
;
	ldy     _x
	lda     _enemies,y
	clc
	adc     #$06
	sta     _temp2
;
; enemies.x[temp_x] = temp2;
;
	ldy     _temp_x
	lda     _temp2
	sta     _enemies,y
;
; temp3 = enemies.y[x] + 6; // ENEMY_HEIGHT/2
;
	ldy     _x
	lda     _enemies+64,y
	clc
	adc     #$06
	sta     _temp3
;
; enemies.y[temp_x] = temp3;
;
	ldy     _temp_x
	lda     _temp3
	sta     _enemies+64,y
;
; fire_at_target();
;
	jsr     _fire_at_target
;
; enemies.timer[temp_x] = temp0; // the brads value for this fireball.
;
	ldy     _temp_x
	lda     _temp0
	sta     _enemies+512,y
;
; BOSS_FIREBALL_COOLDOWN = 32;
;
	lda     #$20
	sta     _boss_memory+1
;
; return;
;
	rts
;
; for (temp_x = x+1; temp_x < temp1; ++temp_x) {
;
L01B8:	inc     _temp_x
	jmp     L01B7

.endproc

; ---------------------------------------------------------------
; void __near__ boss_ai_intro (void)
; ---------------------------------------------------------------

.segment	"CODE"

.proc	_boss_ai_intro: near

.segment	"CODE"

;
; SET_DIRECTION_RIGHT();
;
	lda     _player_flags
	ora     #$01
	sta     _player_flags
;
; active_dboxdata = boss_dialog;
;
	lda     #<(_active_dboxdata)
	ldx     #>(_active_dboxdata)
	jsr     pushax
	lda     #<(_boss_dialog)
	ldx     #>(_boss_dialog)
	jsr     pushax
	ldx     #$00
	lda     #$05
	jsr     _memcpy
;
; BOSS_HP = 3;
;
	lda     #$03
	sta     _boss_memory+2
;
; trigger_dialog_box();
;
	jsr     _trigger_dialog_box
;
; boss_state = BOSS_STATE_DESCENDING;
;
	lda     #$03
	sta     _boss_state
;
; }
;
	rts

.endproc

; ---------------------------------------------------------------
; void __near__ boss_collide_sub (void)
; ---------------------------------------------------------------

.segment	"CODE"

.proc	_boss_collide_sub: near

.segment	"CODE"

;
; coordinates = (temp1 >> 4) + (temp3 & 0xf0); 
;
	lda     _temp1
	lsr     a
	lsr     a
	lsr     a
	lsr     a
	sta     ptr1
	lda     _temp3
	and     #$F0
	clc
	adc     ptr1
	sta     _coordinates
;
; temp0 = high_byte(temp5);
;
	lda     _temp5+1
	sta     _temp0
;
; AsmSet2ByteFromPtrAtIndexVar(temp_mutablepointer, cmaps, temp0);
;
	asl     a
	tay
	lda     _cmaps,y
	sta     _temp_mutablepointer
	lda     _cmaps+1,y
	sta     _temp_mutablepointer+1
;
; AsmSet1ByteFromZpPtrAtIndexVar(temp4, temp_mutablepointer, coordinates);
;
	ldy     _coordinates
	lda     (_temp_mutablepointer),y
	sta     _temp4
;
; temp0 = metatile_property_lookup_table[temp4];
;
	ldy     _temp4
	lda     _metatile_property_lookup_table,y
	sta     _temp0
;
; collision = METATILE_IS_SOLID(temp4);
;
	ldy     _temp4
	lda     _metatile_property_lookup_table,y
	and     #$01
	sta     _collision
;
; }
;
	rts

.endproc

