;
; File generated by cc65 v 2.18 - N/A
;
	.fopt		compiler,"cc65 v 2.18 - N/A"
	.setcpu		"6502"
	.smart		on
	.autoimport	on
	.case		on
	.debuginfo	off
	.importzp	sp, sreg, regsave, regbank
	.importzp	tmp1, tmp2, tmp3, tmp4, ptr1, ptr2, ptr3, ptr4
	.macpack	longbranch
	.forceimport	__STARTUP__
	.import		_pal_bg
	.import		_pal_spr
	.import		_pal_col
	.import		_ppu_wait_nmi
	.import		_ppu_off
	.import		_ppu_on_all
	.import		_oam_clear
	.import		_oam_meta_spr
	.import		_pad_poll
	.import		_bank_spr
	.import		_set_vram_update
	.import		_memcpy
	.import		_set_vram_buffer
	.import		_clear_vram_buffer
	.import		_set_scroll_y
	.import		_get_ppu_addr
	.import		_set_data_pointer
	.import		_set_mt_pointer
	.import		_buffer_4_mt
	.import		_flush_vram_update_nmi
	.export		_valrigardIdleLeft
	.export		_valrigardIdleRight
	.export		_valrigardIdleLeftAlternate
	.export		_metatiles
	.export		_testmap
	.export		_pad1
	.export		_collision
	.export		_collision_L
	.export		_collision_R
	.export		_collision_U
	.export		_collision_D
	.export		_coordinates
	.export		_temp1
	.export		_temp2
	.export		_temp3
	.export		_temp4
	.export		_temp5
	.export		_temp6
	.export		_eject_L
	.export		_eject_R
	.export		_eject_D
	.export		_eject_U
	.export		_direction
	.export		_address
	.export		_x
	.export		_y
	.export		_index
	.export		_map
	.export		_scroll_x
	.export		_scroll_y
	.export		_hero_velocity_x
	.export		_hero_velocity_y
	.export		_hero_x
	.export		_hero_y
	.export		_L_R_switch
	.export		_old_x
	.export		_old_y
	.export		_c_map
	.export		_c_map2
	.export		_palette_bg
	.export		_palette_sp
	.export		_valrigard
	.export		_hitbox
	.export		_star
	.export		_draw_sprites
	.export		_movement
	.export		_load_room
	.export		_bg_collision
	.export		_bg_collision_sub
	.export		_main

.segment	"DATA"

_valrigard:
	.byte	$14
	.byte	$28
_star:
	.byte	$46
	.byte	$28
	.byte	$0F
	.byte	$0F

.segment	"RODATA"

_valrigardIdleLeft:
	.byte	$00
	.byte	$00
	.byte	$E0
	.byte	$01
	.byte	$08
	.byte	$00
	.byte	$E1
	.byte	$01
	.byte	$00
	.byte	$08
	.byte	$F0
	.byte	$01
	.byte	$08
	.byte	$08
	.byte	$F1
	.byte	$01
	.byte	$80
_valrigardIdleRight:
	.byte	$08
	.byte	$00
	.byte	$E0
	.byte	$41
	.byte	$00
	.byte	$00
	.byte	$E1
	.byte	$41
	.byte	$08
	.byte	$08
	.byte	$F0
	.byte	$41
	.byte	$00
	.byte	$08
	.byte	$F1
	.byte	$41
	.byte	$80
_valrigardIdleLeftAlternate:
	.byte	$00
	.byte	$00
	.byte	$E0
	.byte	$00
	.byte	$08
	.byte	$00
	.byte	$E1
	.byte	$00
	.byte	$00
	.byte	$08
	.byte	$F0
	.byte	$00
	.byte	$08
	.byte	$08
	.byte	$F1
	.byte	$00
	.byte	$80
_metatiles:
	.byte	$A0
	.byte	$A0
	.byte	$B0
	.byte	$B0
	.byte	$00
	.byte	$A1
	.byte	$A1
	.byte	$B1
	.byte	$B1
	.byte	$00
	.byte	$A2
	.byte	$A3
	.byte	$A2
	.byte	$A3
	.byte	$00
	.byte	$B2
	.byte	$B3
	.byte	$B2
	.byte	$B3
	.byte	$00
	.byte	$E6
	.byte	$E7
	.byte	$F6
	.byte	$F7
	.byte	$00
	.byte	$84
	.byte	$E5
	.byte	$F6
	.byte	$F7
	.byte	$00
	.byte	$E6
	.byte	$E3
	.byte	$F6
	.byte	$F3
	.byte	$00
	.byte	$E6
	.byte	$E7
	.byte	$94
	.byte	$F5
	.byte	$00
	.byte	$E2
	.byte	$E7
	.byte	$F2
	.byte	$F7
	.byte	$00
	.byte	$84
	.byte	$8D
	.byte	$F6
	.byte	$F3
	.byte	$00
	.byte	$E6
	.byte	$E3
	.byte	$94
	.byte	$9D
	.byte	$00
	.byte	$E2
	.byte	$E7
	.byte	$F0
	.byte	$F5
	.byte	$00
	.byte	$E0
	.byte	$E5
	.byte	$F2
	.byte	$F7
	.byte	$00
	.byte	$84
	.byte	$E5
	.byte	$94
	.byte	$F5
	.byte	$00
	.byte	$E2
	.byte	$E3
	.byte	$F2
	.byte	$F3
	.byte	$00
	.byte	$E0
	.byte	$8D
	.byte	$F0
	.byte	$9D
	.byte	$00
	.byte	$80
	.byte	$81
	.byte	$90
	.byte	$91
	.byte	$00
	.byte	$84
	.byte	$85
	.byte	$94
	.byte	$95
	.byte	$00
	.byte	$86
	.byte	$81
	.byte	$96
	.byte	$91
	.byte	$00
	.byte	$84
	.byte	$89
	.byte	$94
	.byte	$99
	.byte	$00
	.byte	$8A
	.byte	$81
	.byte	$9A
	.byte	$91
	.byte	$00
	.byte	$84
	.byte	$8D
	.byte	$94
	.byte	$9D
	.byte	$00
	.byte	$EC
	.byte	$ED
	.byte	$FC
	.byte	$FD
	.byte	$03
	.byte	$A4
	.byte	$A5
	.byte	$B4
	.byte	$B5
	.byte	$03
	.byte	$A6
	.byte	$A5
	.byte	$B6
	.byte	$B5
	.byte	$03
	.byte	$A6
	.byte	$A9
	.byte	$B6
	.byte	$B9
	.byte	$03
	.byte	$AA
	.byte	$AB
	.byte	$BA
	.byte	$BB
	.byte	$02
	.byte	$8E
	.byte	$8F
	.byte	$9E
	.byte	$9F
	.byte	$00
	.byte	$00
	.byte	$00
	.byte	$00
	.byte	$8E
	.byte	$00
	.byte	$00
	.byte	$00
	.byte	$8F
	.byte	$00
	.byte	$00
	.byte	$00
	.byte	$9E
	.byte	$00
	.byte	$00
	.byte	$00
	.byte	$9F
	.byte	$00
	.byte	$00
	.byte	$00
	.byte	$00
	.byte	$AC
	.byte	$AD
	.byte	$BC
	.byte	$BD
	.byte	$00
	.byte	$AE
	.byte	$AF
	.byte	$BE
	.byte	$BF
	.byte	$00
	.byte	$BC
	.byte	$CD
	.byte	$BC
	.byte	$DD
	.byte	$00
	.byte	$CE
	.byte	$BF
	.byte	$DE
	.byte	$BF
	.byte	$00
	.byte	$C4
	.byte	$C5
	.byte	$D4
	.byte	$D5
	.byte	$00
	.byte	$C6
	.byte	$C7
	.byte	$D6
	.byte	$D7
	.byte	$00
	.byte	$C8
	.byte	$C9
	.byte	$D8
	.byte	$D9
	.byte	$00
	.byte	$CA
	.byte	$CB
	.byte	$DA
	.byte	$DB
	.byte	$00
	.byte	$C2
	.byte	$C3
	.byte	$D2
	.byte	$D3
	.byte	$03
	.byte	$C0
	.byte	$C1
	.byte	$D0
	.byte	$D1
	.byte	$00
	.byte	$E8
	.byte	$E9
	.byte	$F8
	.byte	$F9
	.byte	$03
	.byte	$EA
	.byte	$EB
	.byte	$FA
	.byte	$FB
	.byte	$01
	.byte	$00
	.byte	$00
	.byte	$00
	.byte	$00
	.byte	$00
_testmap:
	.byte	$2C
	.byte	$2C
	.byte	$2C
	.byte	$2C
	.byte	$2C
	.byte	$2C
	.byte	$2C
	.byte	$2C
	.byte	$2C
	.byte	$2C
	.byte	$2C
	.byte	$2C
	.byte	$2C
	.byte	$2C
	.byte	$2C
	.byte	$2C
	.byte	$2C
	.byte	$2C
	.byte	$2C
	.byte	$2C
	.byte	$2C
	.byte	$2C
	.byte	$2C
	.byte	$2C
	.byte	$2C
	.byte	$2A
	.byte	$2B
	.byte	$2C
	.byte	$2C
	.byte	$16
	.byte	$2C
	.byte	$2C
	.byte	$2C
	.byte	$2C
	.byte	$2C
	.byte	$2C
	.byte	$2C
	.byte	$2C
	.byte	$2C
	.byte	$2C
	.byte	$2C
	.byte	$10
	.byte	$11
	.byte	$2C
	.byte	$2C
	.byte	$2C
	.byte	$2C
	.byte	$2C
	.byte	$2C
	.byte	$2C
	.byte	$2C
	.byte	$2C
	.byte	$2C
	.byte	$2C
	.byte	$2C
	.byte	$2C
	.byte	$2C
	.byte	$2C
	.byte	$2C
	.byte	$2C
	.byte	$2C
	.byte	$1A
	.byte	$2C
	.byte	$2C
	.byte	$2C
	.byte	$2C
	.byte	$2C
	.byte	$00
	.byte	$2C
	.byte	$2C
	.byte	$2C
	.byte	$2C
	.byte	$2C
	.byte	$28
	.byte	$29
	.byte	$2C
	.byte	$2C
	.byte	$0F
	.byte	$2C
	.byte	$2C
	.byte	$2C
	.byte	$2C
	.byte	$03
	.byte	$04
	.byte	$02
	.byte	$2C
	.byte	$2C
	.byte	$2C
	.byte	$2C
	.byte	$12
	.byte	$13
	.byte	$2C
	.byte	$2C
	.byte	$2C
	.byte	$2C
	.byte	$2C
	.byte	$2C
	.byte	$2C
	.byte	$2C
	.byte	$01
	.byte	$2C
	.byte	$2C
	.byte	$2C
	.byte	$2C
	.byte	$2C
	.byte	$2C
	.byte	$2C
	.byte	$2C
	.byte	$2C
	.byte	$2C
	.byte	$2C
	.byte	$2C
	.byte	$2C
	.byte	$2C
	.byte	$2C
	.byte	$2C
	.byte	$2C
	.byte	$2C
	.byte	$2C
	.byte	$2C
	.byte	$2C
	.byte	$2C
	.byte	$2C
	.byte	$2C
	.byte	$2C
	.byte	$2C
	.byte	$2C
	.byte	$2C
	.byte	$2C
	.byte	$2C
	.byte	$2C
	.byte	$2C
	.byte	$2C
	.byte	$2C
	.byte	$2C
	.byte	$2C
	.byte	$2C
	.byte	$2C
	.byte	$2C
	.byte	$2C
	.byte	$2C
	.byte	$2C
	.byte	$2C
	.byte	$2C
	.byte	$2C
	.byte	$2C
	.byte	$2C
	.byte	$2C
	.byte	$2C
	.byte	$2C
	.byte	$2C
	.byte	$2C
	.byte	$2C
	.byte	$2C
	.byte	$2C
	.byte	$2C
	.byte	$2C
	.byte	$2C
	.byte	$2C
	.byte	$2C
	.byte	$2C
	.byte	$2C
	.byte	$2C
	.byte	$2C
	.byte	$2C
	.byte	$2C
	.byte	$2C
	.byte	$2C
	.byte	$2C
	.byte	$2C
	.byte	$2C
	.byte	$2C
	.byte	$2C
	.byte	$2C
	.byte	$2C
	.byte	$2C
	.byte	$2C
	.byte	$2C
	.byte	$2C
	.byte	$1B
	.byte	$2C
	.byte	$2C
	.byte	$25
	.byte	$2C
	.byte	$2C
	.byte	$1C
	.byte	$1D
	.byte	$2C
	.byte	$20
	.byte	$21
	.byte	$17
	.byte	$19
	.byte	$26
	.byte	$27
	.byte	$2C
	.byte	$2C
	.byte	$2C
	.byte	$26
	.byte	$24
	.byte	$27
	.byte	$2C
	.byte	$1E
	.byte	$1F
	.byte	$2C
	.byte	$22
	.byte	$23
	.byte	$18
	.byte	$18
	.byte	$05
	.byte	$05
	.byte	$05
	.byte	$05
	.byte	$05
	.byte	$05
	.byte	$05
	.byte	$05
	.byte	$05
	.byte	$05
	.byte	$05
	.byte	$05
	.byte	$05
	.byte	$05
	.byte	$05
	.byte	$05
	.byte	$04
	.byte	$04
	.byte	$04
	.byte	$04
	.byte	$04
	.byte	$04
	.byte	$04
	.byte	$04
	.byte	$04
	.byte	$04
	.byte	$04
	.byte	$04
	.byte	$04
	.byte	$04
	.byte	$04
	.byte	$04
_palette_bg:
	.byte	$0F
	.byte	$00
	.byte	$10
	.byte	$30
	.byte	$0F
	.byte	$01
	.byte	$11
	.byte	$31
	.byte	$0F
	.byte	$06
	.byte	$16
	.byte	$26
	.byte	$0F
	.byte	$17
	.byte	$27
	.byte	$38
_palette_sp:
	.byte	$0F
	.byte	$17
	.byte	$27
	.byte	$07
	.byte	$0F
	.byte	$01
	.byte	$0F
	.byte	$32
	.byte	$00
	.byte	$00
	.byte	$00
	.byte	$00
	.byte	$00
	.byte	$00
	.byte	$00
	.byte	$00

.segment	"BSS"

.segment	"ZEROPAGE"
_pad1:
	.res	1,$00
_collision:
	.res	1,$00
_collision_L:
	.res	1,$00
_collision_R:
	.res	1,$00
_collision_U:
	.res	1,$00
_collision_D:
	.res	1,$00
_coordinates:
	.res	1,$00
_temp1:
	.res	1,$00
_temp2:
	.res	1,$00
_temp3:
	.res	1,$00
_temp4:
	.res	1,$00
_temp5:
	.res	2,$00
_temp6:
	.res	2,$00
_eject_L:
	.res	1,$00
_eject_R:
	.res	1,$00
_eject_D:
	.res	1,$00
_eject_U:
	.res	1,$00
_direction:
	.res	1,$00
_address:
	.res	2,$00
_x:
	.res	1,$00
_y:
	.res	1,$00
_index:
	.res	1,$00
_map:
	.res	1,$00
_scroll_x:
	.res	2,$00
_scroll_y:
	.res	2,$00
_hero_velocity_x:
	.res	2,$00
_hero_velocity_y:
	.res	2,$00
_hero_x:
	.res	2,$00
_hero_y:
	.res	2,$00
_L_R_switch:
	.res	1,$00
_old_x:
	.res	1,$00
_old_y:
	.res	1,$00
.segment	"BSS"
_c_map:
	.res	240,$00
_c_map2:
	.res	240,$00
_hitbox:
	.res	4,$00

; ---------------------------------------------------------------
; void __near__ draw_sprites (void)
; ---------------------------------------------------------------

.segment	"CODE"

.proc	_draw_sprites: near

.segment	"CODE"

;
; oam_clear();
;
	jsr     _oam_clear
;
; if (direction == LEFT) {
;
	lda     _direction
	bne     L0286
;
; oam_meta_spr(valrigard.x, valrigard.y, valrigardIdleLeft);
;
	jsr     decsp2
	lda     _valrigard
	ldy     #$01
	sta     (sp),y
	lda     _valrigard+1
	dey
	sta     (sp),y
	lda     #<(_valrigardIdleLeft)
	ldx     #>(_valrigardIdleLeft)
;
; } else {
;
	jmp     L037B
;
; oam_meta_spr(valrigard.x, valrigard.y, valrigardIdleRight);
;
L0286:	jsr     decsp2
	lda     _valrigard
	ldy     #$01
	sta     (sp),y
	lda     _valrigard+1
	dey
	sta     (sp),y
	lda     #<(_valrigardIdleRight)
	ldx     #>(_valrigardIdleRight)
L037B:	jsr     _oam_meta_spr
;
; oam_meta_spr(star.x, star.y, valrigardIdleLeftAlternate);
;
	jsr     decsp2
	lda     _star
	ldy     #$01
	sta     (sp),y
	lda     _star+1
	dey
	sta     (sp),y
	lda     #<(_valrigardIdleLeftAlternate)
	ldx     #>(_valrigardIdleLeftAlternate)
	jmp     _oam_meta_spr

.endproc

; ---------------------------------------------------------------
; void __near__ movement (void)
; ---------------------------------------------------------------

.segment	"CODE"

.proc	_movement: near

.segment	"CODE"

;
; old_x = valrigard.x;
;
	lda     _valrigard
	sta     _old_x
;
; if (pad1 & PAD_LEFT) {
;
	lda     _pad1
	and     #$02
	beq     L0381
;
; direction = LEFT;
;
	lda     #$00
	sta     _direction
;
; if (valrigard.x < 2) {
;
	lda     _valrigard
	cmp     #$02
	bcs     L0380
;
; hero_velocity_x = 0;
;
	lda     #$00
	sta     _hero_velocity_x
	sta     _hero_velocity_x+1
;
; hero_x = 0x100;
;
	ldx     #$01
	sta     _hero_x
	stx     _hero_x+1
;
; } else if (valrigard.x < 4) { // Don't allow us to wrap to the other side
;
	jmp     L02BD
L0380:	lda     _valrigard
	cmp     #$04
	bcs     L02A3
;
; hero_velocity_x = -0x100;
;
	ldx     #$FF
	lda     #$00
;
; } else {
;
	jmp     L0384
;
; hero_velocity_x = -SPEED;
;
L02A3:	ldx     #$FE
;
; else if (pad1 & PAD_RIGHT){
;
	jmp     L038D
L0381:	lda     _pad1
	ldx     #$00
	and     #$01
	beq     L0384
;
; direction = RIGHT;
;
	lda     #$01
	sta     _direction
;
; if (valrigard.x > 0xf0) {
;
	lda     _valrigard
	cmp     #$F1
	bcc     L0382
;
; hero_velocity_x = 0;
;
	txa
	sta     _hero_velocity_x
	sta     _hero_velocity_x+1
;
; hero_x = 0xf100;
;
	ldx     #$F1
	sta     _hero_x
	stx     _hero_x+1
;
; } else if (valrigard.x > 0xec) { // Don't allow us to wrap to the other side
;
	jmp     L02BD
L0382:	lda     _valrigard
	cmp     #$ED
	bcc     L02B6
;
; hero_velocity_x = 0x100;
;
	inx
	lda     #$00
;
; } else {
;
	jmp     L0384
;
; hero_velocity_x = SPEED;
;
L02B6:	inx
L038D:	lda     #$80
;
; hero_velocity_x = 0;
;
L0384:	sta     _hero_velocity_x
	stx     _hero_velocity_x+1
;
; hero_x += hero_velocity_x;
;
L02BD:	lda     _hero_velocity_x
	clc
	adc     _hero_x
	sta     _hero_x
	lda     _hero_velocity_x+1
	adc     _hero_x+1
	sta     _hero_x+1
;
; valrigard.x = hero_x >> 8; // Taking the high byte of this 16-bit int, since the low byte is the subpixel x
;
	sta     _valrigard
;
; L_R_switch = 1; // Shrinks the Y values in bg_coll. This makes head/foot collisions less problematic (examine this)
;
	lda     #$01
	sta     _L_R_switch
;
; hitbox.x = valrigard.x; 
;
	lda     _valrigard
	sta     _hitbox
;
; hitbox.y = valrigard.y;
;
	lda     _valrigard+1
	sta     _hitbox+1
;
; hitbox.width = VALRIGARD_WIDTH;
;
	lda     #$0D
	sta     _hitbox+2
;
; hitbox.height = VALRIGARD_HEIGHT;
;
	sta     _hitbox+3
;
; bg_collision();
;
	jsr     _bg_collision
;
; if (collision_L && collision_R) { // Half-stuck in a wall, I'm guessing?
;
	lda     _collision_L
	beq     L02CF
	lda     _collision_R
	beq     L02CF
;
; valrigard.x = old_x;
;
	lda     _old_x
;
; else if (collision_L) {
;
	jmp     L037D
L02CF:	lda     _collision_L
	beq     L02D6
;
; valrigard.x -= eject_L;
;
	lda     _eject_L
;
; else if (collision_R) {
;
	jmp     L0391
L02D6:	lda     _collision_R
	beq     L0385
;
; valrigard.x -= eject_R;
;
	lda     _eject_R
L0391:	eor     #$FF
	sec
	adc     _valrigard
L037D:	sta     _valrigard
;
; high_byte(hero_x) = valrigard.x;
;
L0385:	lda     _valrigard
	sta     _hero_x+1
;
; if (pad1 & PAD_UP) {
;
	lda     _pad1
	and     #$08
	beq     L0387
;
; if (valrigard.y < 2) {
;
	lda     _valrigard+1
	cmp     #$02
	bcs     L0386
;
; hero_velocity_y = 0;
;
	lda     #$00
	sta     _hero_velocity_y
	sta     _hero_velocity_y+1
;
; hero_y = 0x100;
;
	ldx     #$01
	sta     _hero_y
	stx     _hero_y+1
;
; else if (valrigard.y < 4) { // Stop sprite-wrapping
;
	jmp     L0303
L0386:	lda     _valrigard+1
	cmp     #$04
	bcs     L02EB
;
; hero_velocity_y = -0x100;
;
	ldx     #$FF
	lda     #$00
;
; else { 
;
	jmp     L038A
;
; hero_velocity_y = -SPEED;
;
L02EB:	ldx     #$FE
;
; else if (pad1 & PAD_DOWN) {
;
	jmp     L038F
L0387:	lda     _pad1
	ldx     #$00
	and     #$04
	beq     L038A
;
; if (valrigard.y > 0xdf) {
;
	lda     _valrigard+1
	cmp     #$E0
	bcc     L0388
;
; hero_velocity_y = 0;
;
	txa
	sta     _hero_velocity_y
	sta     _hero_velocity_y+1
;
; hero_y = 0xdf00;
;
	ldx     #$DF
	sta     _hero_y
	stx     _hero_y+1
;
; else if (valrigard.y > 0xdc) { // If you could be half in the floor and half in the cieling, would you?
;
	jmp     L0303
L0388:	lda     _valrigard+1
	cmp     #$DD
	bcc     L02FC
;
; hero_velocity_y = 0x100;
;
	inx
	lda     #$00
;
; else {
;
	jmp     L038A
;
; hero_velocity_y = SPEED;
;
L02FC:	inx
L038F:	lda     #$80
;
; hero_velocity_y = 0;
;
L038A:	sta     _hero_velocity_y
	stx     _hero_velocity_y+1
;
; hero_y += hero_velocity_y;
;
L0303:	lda     _hero_velocity_y
	clc
	adc     _hero_y
	sta     _hero_y
	lda     _hero_velocity_y+1
	adc     _hero_y+1
	sta     _hero_y+1
;
; valrigard.y = hero_y >> 8; // "Downcast" to char (high byte is what matters here, the low byte is the subpixel portion)
;
	sta     _valrigard+1
;
; L_R_switch = 0;
;
	lda     #$00
	sta     _L_R_switch
;
; hitbox.x = valrigard.x;
;
	lda     _valrigard
	sta     _hitbox
;
; hitbox.y = valrigard.y;
;
	lda     _valrigard+1
	sta     _hitbox+1
;
; bg_collision();
;
	jsr     _bg_collision
;
; if(collision_U) {
;
	lda     _collision_U
	beq     L0311
;
; valrigard.y -= eject_U;
;
	lda     _eject_U
;
; else if (collision_D) {
;
	jmp     L0392
L0311:	lda     _collision_D
	beq     L0316
;
; valrigard.y -= eject_D;
;
	lda     _eject_D
L0392:	eor     #$FF
	sec
	adc     _valrigard+1
	sta     _valrigard+1
;
; high_byte(hero_y) = valrigard.y;
;
L0316:	lda     _valrigard+1
	sta     _hero_y+1
;
; }
;
	rts

.endproc

; ---------------------------------------------------------------
; void __near__ load_room (void)
; ---------------------------------------------------------------

.segment	"CODE"

.proc	_load_room: near

.segment	"CODE"

;
; set_data_pointer(testmap);
;
	lda     #<(_testmap)
	ldx     #>(_testmap)
	jsr     _set_data_pointer
;
; set_mt_pointer(metatiles);
;
	lda     #<(_metatiles)
	ldx     #>(_metatiles)
	jsr     _set_mt_pointer
;
; for (y = 0; /*We'll break manually*/; y += 0x20) {
;
	lda     #$00
L0395:	sta     _y
;
; for (x = 0; ; x += 0x20) {
;
	lda     #$00
L0394:	sta     _x
;
; clear_vram_buffer(); // do this each frame, and before putting anything in the buffer.
;
	jsr     _clear_vram_buffer
;
; address = get_ppu_addr(0, x, y);
;
	jsr     decsp2
	lda     #$00
	ldy     #$01
	sta     (sp),y
	lda     _x
	dey
	sta     (sp),y
	lda     _y
	jsr     _get_ppu_addr
	sta     _address
	stx     _address+1
;
; index = (y & 0xf0) + (x >> 4);
;
	lda     _y
	and     #$F0
	sta     ptr1
	lda     _x
	lsr     a
	lsr     a
	lsr     a
	lsr     a
	clc
	adc     ptr1
	sta     _index
;
; buffer_4_mt(address, index); // ppu_address, index to the data
;
	lda     _address
	ldx     _address+1
	jsr     pushax
	lda     _index
	jsr     _buffer_4_mt
;
; flush_vram_update_nmi();
;
	jsr     _flush_vram_update_nmi
;
; if (x == 0xe0) break;
;
	ldx     #$00
	lda     _x
	cmp     #$E0
	beq     L0396
;
; for (x = 0; ; x += 0x20) {
;
	lda     #$20
	clc
	adc     _x
	jmp     L0394
;
; if (y == 0xe0) break;
;
L0396:	lda     _y
	cmp     #$E0
	beq     L0397
;
; for (y = 0; /*We'll break manually*/; y += 0x20) {
;
	lda     #$20
	clc
	adc     _y
	jmp     L0395
;
; set_vram_update(NULL); // just turn ppu updates OFF for this example
;
L0397:	txa
	jsr     _set_vram_update
;
; memcpy (c_map, testmap, 240);
;
	ldy     #$00
L027F:	lda     _testmap,y
	sta     _c_map,y
	iny
	cpy     #$F0
	bne     L027F
;
; hero_y = valrigard.y << 8;
;
	lda     _valrigard+1
	sta     _hero_y+1
	lda     #$00
	sta     _hero_y
;
; hero_x = valrigard.x << 8;
;
	lda     _valrigard
	sta     _hero_x+1
	lda     #$00
	sta     _hero_x
;
; }
;
	rts

.endproc

; ---------------------------------------------------------------
; void __near__ bg_collision (void)
; ---------------------------------------------------------------

.segment	"CODE"

.proc	_bg_collision: near

.segment	"CODE"

;
; collision_L = 0;
;
	lda     #$00
	sta     _collision_L
;
; collision_R = 0;
;
	sta     _collision_R
;
; collision_U = 0;
;
	sta     _collision_U
;
; collision_D = 0;
;
	sta     _collision_D
;
; if(hitbox.y >= 0xf0) return;
;
	lda     _hitbox+1
	cmp     #$F0
	bcc     L039A
;
; }
;
	rts
;
; temp6 = temp5 = hitbox.x + scroll_x; // upper left (temp6 = save for reuse)
;
L039A:	lda     _hitbox
	clc
	adc     _scroll_x
	pha
	lda     #$00
	adc     _scroll_x+1
	tax
	pla
	sta     _temp5
	stx     _temp5+1
	sta     _temp6
	stx     _temp6+1
;
; temp1 = temp5 & 0xff; // low byte x
;
	lda     _temp5
	sta     _temp1
;
; temp2 = temp5 >> 8; // high byte x
;
	lda     _temp5+1
	sta     _temp2
;
; eject_L = temp1 | 0xf0;
;
	lda     _temp1
	ora     #$F0
	sta     _eject_L
;
; temp3 = hitbox.y; // y top
;
	lda     _hitbox+1
	sta     _temp3
;
; eject_U = temp3 | 0xf0;
;
	ora     #$F0
	sta     _eject_U
;
; if(L_R_switch) temp3 += 2; // fix bug, walking through walls
;
	lda     _L_R_switch
	beq     L0335
	lda     #$02
	clc
	adc     _temp3
	sta     _temp3
;
; bg_collision_sub();
;
L0335:	jsr     _bg_collision_sub
;
; if(collision){ // find a corner in the collision map
;
	lda     _collision
	beq     L033A
;
; ++collision_L;
;
	inc     _collision_L
;
; ++collision_U;
;
	inc     _collision_U
;
; temp5 += hitbox.width;
;
L033A:	lda     _hitbox+2
	clc
	adc     _temp5
	sta     _temp5
	lda     #$00
	adc     _temp5+1
	sta     _temp5+1
;
; temp1 = temp5 & 0xff; // low byte x
;
	lda     _temp5
	sta     _temp1
;
; temp2 = temp5 >> 8; // high byte x
;
	lda     _temp5+1
	sta     _temp2
;
; eject_R = (temp1 + 1) & 0x0f;
;
	lda     _temp1
	clc
	adc     #$01
	and     #$0F
	sta     _eject_R
;
; bg_collision_sub();
;
	jsr     _bg_collision_sub
;
; if(collision){ // find a corner in the collision map
;
	lda     _collision
	beq     L0349
;
; ++collision_R;
;
	inc     _collision_R
;
; ++collision_U;
;
	inc     _collision_U
;
; temp3 = hitbox.y + hitbox.height; //y bottom
;
L0349:	lda     _hitbox+1
	clc
	adc     _hitbox+3
	sta     _temp3
;
; if(L_R_switch) temp3 -= 2; // fix bug, walking through walls
;
	lda     _L_R_switch
	beq     L0399
	lda     _temp3
	sec
	sbc     #$02
	sta     _temp3
;
; eject_D = (temp3 + 1) & 0x0f;
;
L0399:	lda     _temp3
	clc
	adc     #$01
	and     #$0F
	sta     _eject_D
;
; if(temp3 >= 0xf0) return;
;
	lda     _temp3
	cmp     #$F0
	bcs     L0363
;
; bg_collision_sub();
;
	jsr     _bg_collision_sub
;
; if(collision){ // find a corner in the collision map
;
	lda     _collision
	beq     L035A
;
; ++collision_R;
;
	inc     _collision_R
;
; ++collision_D;
;
	inc     _collision_D
;
; temp1 = temp6 & 0xff; // low byte x
;
L035A:	lda     _temp6
	sta     _temp1
;
; temp2 = temp6 >> 8; // high byte x
;
	lda     _temp6+1
	sta     _temp2
;
; bg_collision_sub();
;
	jsr     _bg_collision_sub
;
; if(collision){ // find a corner in the collision map
;
	lda     _collision
	beq     L0363
;
; ++collision_L;
;
	inc     _collision_L
;
; ++collision_D;
;
	inc     _collision_D
;
; }
;
L0363:	rts

.endproc

; ---------------------------------------------------------------
; void __near__ bg_collision_sub (void)
; ---------------------------------------------------------------

.segment	"CODE"

.proc	_bg_collision_sub: near

.segment	"CODE"

;
; coordinates = (temp1 >> 4) + (temp3 & 0xf0); // upper left
;
	lda     _temp1
	lsr     a
	lsr     a
	lsr     a
	lsr     a
	sta     ptr1
	lda     _temp3
	and     #$F0
	clc
	adc     ptr1
	sta     _coordinates
;
; map = temp2&1; // high byte
;
	lda     _temp2
	and     #$01
	sta     _map
;
; if (!map) {
;
	lda     _map
	bne     L036E
;
; collision = (c_map[coordinates] < 0x17); // 0x17 is the first non-solid tile, so if the tile is less than that, it's a collision
;
	ldy     _coordinates
	lda     _c_map,y
;
; else {
;
	jmp     L039E
;
; collision = (c_map2[coordinates] < 0x17);
;
L036E:	ldy     _coordinates
	lda     _c_map2,y
L039E:	cmp     #$17
	jsr     boolult
	sta     _collision
;
; }
;
	rts

.endproc

; ---------------------------------------------------------------
; void __near__ main (void)
; ---------------------------------------------------------------

.segment	"CODE"

.proc	_main: near

.segment	"CODE"

;
; ppu_off(); // screen off
;
	jsr     _ppu_off
;
; pal_bg(palette_bg);
;
	lda     #<(_palette_bg)
	ldx     #>(_palette_bg)
	jsr     _pal_bg
;
; pal_spr(palette_sp);
;
	lda     #<(_palette_sp)
	ldx     #>(_palette_sp)
	jsr     _pal_spr
;
; bank_spr(1);
;
	lda     #$01
	jsr     _bank_spr
;
; set_vram_buffer(); // do at least once, sets a pointer to a buffer
;
	jsr     _set_vram_buffer
;
; clear_vram_buffer();
;
	jsr     _clear_vram_buffer
;
; load_room();
;
	jsr     _load_room
;
; set_scroll_y(0xfe); // Shift the background down by 2 pixels to offset the inherent shift in sprites on the NES.
;
	ldx     #$00
	lda     #$FE
	jsr     _set_scroll_y
;
; ppu_on_all(); // turn on screen
;
	jsr     _ppu_on_all
;
; ppu_wait_nmi(); // wait till beginning of the frame
;
L023D:	jsr     _ppu_wait_nmi
;
; pad1 = pad_poll(0); // read the first controller
;
	lda     #$00
	jsr     _pad_poll
	sta     _pad1
;
; movement();
;
	jsr     _movement
;
; draw_sprites();
;
	jsr     _draw_sprites
;
; if (c_map[coordinates] < 0x04) {
;
	ldy     _coordinates
	lda     _c_map,y
	cmp     #$04
	bcs     L0247
;
; pal_col(0,0x06);
;
	lda     #$00
	jsr     pusha
	lda     #$06
	jsr     _pal_col
;
; } else {
;
	jmp     L023D
;
; pal_col(0,0x0f);
;
L0247:	lda     #$00
	jsr     pusha
	lda     #$0F
	jsr     _pal_col
;
; while (1){
;
	jmp     L023D

.endproc

