;
; File generated by cc65 v 2.18 - N/A
;
	.fopt		compiler,"cc65 v 2.18 - N/A"
	.setcpu		"6502"
	.smart		on
	.autoimport	on
	.case		on
	.debuginfo	off
	.importzp	sp, sreg, regsave, regbank
	.importzp	tmp1, tmp2, tmp3, tmp4, ptr1, ptr2, ptr3, ptr4
	.macpack	longbranch
	.forceimport	__STARTUP__
	.import		_pal_bg
	.import		_pal_spr
	.import		_ppu_wait_nmi
	.import		_ppu_off
	.import		_ppu_on_all
	.import		_oam_clear
	.import		_oam_spr
	.import		_oam_meta_spr
	.import		_pad_poll
	.import		_bank_spr
	.import		_rand8
	.import		_vram_adr
	.import		_vram_put
	.import		_vram_fill
	.import		_memcpy
	.import		_memfill
	.import		_set_vram_buffer
	.import		_clear_vram_buffer
	.import		_get_pad_new
	.import		_check_collision
	.import		_set_scroll_y
	.import		_add_scroll_y
	.import		_sub_scroll_y
	.import		_get_ppu_addr
	.import		_set_data_pointer
	.import		_set_mt_pointer
	.import		_buffer_1_mt
	.import		_buffer_4_mt
	.import		_flush_vram_update_nmi
	.import		_gray_line
	.import		_seed_rng
	.export		_bankLevel
	.export		_bankBuffer
	.import		_set_prg_bank
	.import		_set_chr_bank_0
	.export		_valrigard_idle_left
	.export		_valrigard_idle_right
	.export		_valrigard_swing_left_high
	.export		_valrigard_swing_right_high
	.export		_valrigard_swing_left_mid
	.export		_valrigard_swing_right_mid
	.export		_valrigard_swing_left_low
	.export		_valrigard_swing_right_low
	.export		_valrigard_swing_left_followthrough
	.export		_valrigard_swing_right_followthrough
	.export		_valrigard_dead_left
	.export		_valrigard_dead_right
	.export		_spikeball
	.export		_korbat_left
	.export		_korbat_right
	.export		_sun0
	.export		_sun1
	.export		_cannon_up
	.export		_cannon_up_left
	.export		_cannon_left
	.export		_cannon_down_left
	.export		_cannon_down
	.export		_cannon_down_right
	.export		_cannon_right
	.export		_cannon_up_right
	.export		_grarrl_left
	.export		_grarrl_right
	.export		_acidblob0
	.export		_acidblob1
	.export		_acidblob2
	.export		_acidblob3
	.export		_splyke_tornado0
	.export		_splyke_tornado1
	.export		_splyke_tornado2
	.export		_splyke_idle_left0
	.export		_splyke_idle_left1
	.export		_splyke_idle_right0
	.export		_splyke_idle_right1
	.export		_purple_death_effect0
	.export		_purple_death_effect1
	.export		_splyke_death_effect0
	.export		_splyke_death_effect1
	.export		_metatiles
	.export		_metatile_property_lookup_table
	.export		_level10_enemy
	.export		_level10_0
	.export		_level10_1
	.export		_level10_2
	.export		_level10_ordered_nts
	.export		_level_nt_length
	.export		_valrigard_starting_nt
	.export		_valrigard_inital_coords
	.export		_level_nametable_pointers
	.export		_level_nametable_banks
	.export		_level_names
	.export		_level_enemy_data
	.import		_score_string
	.import		_convert_to_decimal
	.import		_sin_lookup
	.import		_cos_lookup
	.import		_brads_lookup
	.import		_abs_subtract
	.export		_pad1
	.export		_pad1_new
	.export		_collision
	.export		_collision_L
	.export		_collision_R
	.export		_collision_U
	.export		_collision_D
	.export		_coordinates
	.export		_temp0
	.export		_temp1
	.export		_temp2
	.export		_temp3
	.export		_temp4
	.export		_temp5
	.export		_temp6
	.export		_temppointer
	.export		_temp_mutablepointer
	.export		_temp_funcpointer
	.export		_eject_L
	.export		_eject_R
	.export		_eject_D
	.export		_eject_U
	.export		_player_frame_timer
	.export		_player_sword_timer
	.export		_player_flags
	.export		_game_mode
	.export		_address
	.export		_x
	.export		_y
	.export		_index
	.export		_nt
	.export		_scroll_x
	.export		_pseudo_scroll_y
	.export		_scroll_y
	.export		_min_scroll_y
	.export		_max_scroll_y
	.export		_initial_scroll
	.export		_scroll_count
	.export		_L_R_switch
	.export		_old_x
	.export		_old_y
	.export		_temp_x
	.export		_temp_y
	.export		_level_index
	.export		_energy
	.export		_score
	.export		_enemy_score
	.export		_stars
	.export		_timer
	.export		_song
	.export		_nt_min
	.export		_nt_max
	.export		_nt_current
	.export		_valrigard
	.export		_hitbox
	.export		_hitbox2
	.export		_shuffle_offset
	.export		_shuffle_maximum
	.export		_debug_tile_x
	.export		_debug_tile_y
	.export		_palette_bg
	.export		_palette_sp
	.export		_shuffle_array
	.export		_enemies
	.export		_cmap
	.export		_cmaps
	.export		_draw_sprites
	.export		_draw_player
	.export		_draw_korbat
	.export		_draw_grarrl
	.export		_draw_spikeball
	.export		_draw_cannon
	.export		_draw_cannonball
	.export		_draw_acid
	.export		_draw_acid_drop
	.export		_draw_splyke
	.export		_draw_sun
	.export		_draw_boss
	.export		_draw_purple_death_effect
	.export		_draw_splyke_death_effect
	.export		_draw_score
	.export		_draw_energy
	.export		_draw_screen_U
	.export		_draw_screen_D
	.export		_draw_screen_sub
	.export		_begin_level
	.export		_load_level_new
	.export		_load_room_new
	.export		_calculate_shuffle_array
	.export		_load_title_screen
	.export		_load_game_over_screen
	.export		_clear_screen
	.export		_movement
	.export		_swing_sword
	.export		_bg_collision
	.export		_bg_collision_sub
	.export		_check_spr_objects
	.export		_sprite_collisions
	.export		_collision_with_inert
	.export		_collision_with_killable_slashable
	.export		_collision_with_inert_slashable
	.export		_collision_with_unkillable_unslashable
	.export		_collision_with_splyke
	.export		_collision_with_boss
	.export		_enemy_movement
	.export		_korbat_ai
	.export		_spikeball_ai
	.export		_cannon_ai
	.export		_cannonball_ai
	.export		_acid_ai
	.export		_acid_drop_ai
	.export		_splyke_ai
	.export		_sun_ai
	.export		_boss_ai
	.export		_death_effect_timer_ai
	.export		_draw_screen_sub_lookup_addr_0
	.export		_draw_screen_sub_lookup_index_offset_0
	.export		_draw_screen_sub_lookup_addr_1
	.export		_draw_screen_sub_lookup_index_offset_1
	.export		_leftright_movement_offset_lookup_table
	.export		_leftright_movement_moving_lookup_table
	.export		_updown_movement_offset_lookup_table
	.export		_valrigard_idle_sprite_lookup_table
	.export		_valrigard_sword_swing_sprite_lookup_table
	.export		_valrigard_dead_sprite_lookup_table
	.export		_korbat_sprite_lookup_table
	.export		_grarrl_sprite_lookup_table
	.export		_cannon_sprite_lookup_table
	.export		_cannon_ul_sprite_lookup_table
	.export		_cannon_ur_sprite_lookup_table
	.export		_cannon_dr_sprite_lookup_table
	.export		_cannon_dl_sprite_lookup_table
	.export		_cannon_sprite_quadrant_lookup_table
	.export		_acidblob_sprite_lookup_table
	.export		_sun_sprite_lookup_table
	.export		_splyke_sprite_lookup_table
	.export		_purple_death_effect_sprite_lookup_table
	.export		_splyke_death_effect_sprite_lookup_table
	.export		_main
	.export		_title_string
	.export		_author_string
	.export		_instruction_string
	.export		_game_over_string
	.export		_draw_func_pointers
	.export		_enemy_hitbox_width_lookup_table
	.export		_enemy_hitbox_height_lookup_table
	.export		_collision_functions
	.export		_ai_pointers

.segment	"DATA"

_draw_func_pointers:
	.addr	_draw_korbat
	.addr	_draw_korbat
	.addr	_draw_grarrl
	.addr	_draw_splyke
	.addr	_draw_cannon
	.addr	_draw_acid
	.addr	_draw_spikeball
	.addr	_draw_sun
	.addr	_draw_boss
	.addr	_draw_cannonball
	.addr	_draw_acid_drop
	.addr	_draw_purple_death_effect
	.addr	_draw_splyke_death_effect
_collision_functions:
	.addr	_collision_with_inert
	.addr	_collision_with_killable_slashable
	.addr	_collision_with_killable_slashable
	.addr	_collision_with_splyke
	.addr	_collision_with_inert_slashable
	.addr	_collision_with_inert
	.addr	_collision_with_unkillable_unslashable
	.addr	_collision_with_unkillable_unslashable
	.addr	_collision_with_boss
	.addr	_collision_with_unkillable_unslashable
	.addr	_collision_with_unkillable_unslashable
	.addr	_collision_with_inert
	.addr	_collision_with_inert
_ai_pointers:
	.addr	_korbat_ai
	.addr	_korbat_ai
	.addr	_spikeball_ai
	.addr	_splyke_ai
	.addr	_cannon_ai
	.addr	_acid_ai
	.addr	_spikeball_ai
	.addr	_sun_ai
	.addr	_boss_ai
	.addr	_cannonball_ai
	.addr	_acid_drop_ai
	.addr	_death_effect_timer_ai
	.addr	_death_effect_timer_ai

.segment	"RODATA"

_valrigard_idle_left:
	.byte	$FE
	.byte	$FD
	.byte	$E0
	.byte	$01
	.byte	$06
	.byte	$FD
	.byte	$E1
	.byte	$01
	.byte	$FE
	.byte	$05
	.byte	$F0
	.byte	$01
	.byte	$06
	.byte	$05
	.byte	$F1
	.byte	$01
	.byte	$80
_valrigard_idle_right:
	.byte	$06
	.byte	$FD
	.byte	$E0
	.byte	$41
	.byte	$FE
	.byte	$FD
	.byte	$E1
	.byte	$41
	.byte	$06
	.byte	$05
	.byte	$F0
	.byte	$41
	.byte	$FE
	.byte	$05
	.byte	$F1
	.byte	$41
	.byte	$80
_valrigard_swing_left_high:
	.byte	$FE
	.byte	$FD
	.byte	$E2
	.byte	$01
	.byte	$06
	.byte	$FD
	.byte	$E1
	.byte	$01
	.byte	$FE
	.byte	$05
	.byte	$F2
	.byte	$01
	.byte	$06
	.byte	$05
	.byte	$F3
	.byte	$01
	.byte	$80
_valrigard_swing_right_high:
	.byte	$06
	.byte	$FD
	.byte	$E2
	.byte	$41
	.byte	$FE
	.byte	$FD
	.byte	$E1
	.byte	$41
	.byte	$06
	.byte	$05
	.byte	$F2
	.byte	$41
	.byte	$FE
	.byte	$05
	.byte	$F3
	.byte	$41
	.byte	$80
_valrigard_swing_left_mid:
	.byte	$FE
	.byte	$FD
	.byte	$E4
	.byte	$01
	.byte	$06
	.byte	$FD
	.byte	$E1
	.byte	$01
	.byte	$FE
	.byte	$05
	.byte	$F4
	.byte	$01
	.byte	$06
	.byte	$05
	.byte	$F3
	.byte	$01
	.byte	$80
_valrigard_swing_right_mid:
	.byte	$06
	.byte	$FD
	.byte	$E4
	.byte	$41
	.byte	$FE
	.byte	$FD
	.byte	$E1
	.byte	$41
	.byte	$06
	.byte	$05
	.byte	$F4
	.byte	$41
	.byte	$FE
	.byte	$05
	.byte	$F3
	.byte	$41
	.byte	$80
_valrigard_swing_left_low:
	.byte	$FE
	.byte	$FD
	.byte	$E5
	.byte	$01
	.byte	$06
	.byte	$FD
	.byte	$E1
	.byte	$01
	.byte	$FE
	.byte	$05
	.byte	$F5
	.byte	$01
	.byte	$06
	.byte	$05
	.byte	$F6
	.byte	$01
	.byte	$80
_valrigard_swing_right_low:
	.byte	$06
	.byte	$FD
	.byte	$E5
	.byte	$41
	.byte	$FE
	.byte	$FD
	.byte	$E1
	.byte	$41
	.byte	$06
	.byte	$05
	.byte	$F5
	.byte	$41
	.byte	$FE
	.byte	$05
	.byte	$F6
	.byte	$41
	.byte	$80
_valrigard_swing_left_followthrough:
	.byte	$FE
	.byte	$FD
	.byte	$E7
	.byte	$01
	.byte	$06
	.byte	$FD
	.byte	$E8
	.byte	$01
	.byte	$FE
	.byte	$05
	.byte	$F7
	.byte	$01
	.byte	$06
	.byte	$05
	.byte	$F8
	.byte	$01
	.byte	$80
_valrigard_swing_right_followthrough:
	.byte	$06
	.byte	$FD
	.byte	$E7
	.byte	$41
	.byte	$FE
	.byte	$FD
	.byte	$E8
	.byte	$41
	.byte	$06
	.byte	$05
	.byte	$F7
	.byte	$41
	.byte	$FE
	.byte	$05
	.byte	$F8
	.byte	$41
	.byte	$80
_valrigard_dead_left:
	.byte	$06
	.byte	$05
	.byte	$D1
	.byte	$01
	.byte	$FE
	.byte	$05
	.byte	$D0
	.byte	$01
	.byte	$80
_valrigard_dead_right:
	.byte	$FE
	.byte	$05
	.byte	$D1
	.byte	$41
	.byte	$06
	.byte	$05
	.byte	$D0
	.byte	$41
	.byte	$80
_spikeball:
	.byte	$FF
	.byte	$FF
	.byte	$12
	.byte	$03
	.byte	$07
	.byte	$FF
	.byte	$12
	.byte	$43
	.byte	$FF
	.byte	$07
	.byte	$12
	.byte	$83
	.byte	$07
	.byte	$07
	.byte	$12
	.byte	$C3
	.byte	$80
_korbat_left:
	.byte	$FF
	.byte	$FF
	.byte	$20
	.byte	$02
	.byte	$07
	.byte	$FF
	.byte	$21
	.byte	$02
	.byte	$FF
	.byte	$07
	.byte	$30
	.byte	$02
	.byte	$07
	.byte	$07
	.byte	$31
	.byte	$02
	.byte	$80
_korbat_right:
	.byte	$07
	.byte	$FF
	.byte	$20
	.byte	$42
	.byte	$FF
	.byte	$FF
	.byte	$21
	.byte	$42
	.byte	$07
	.byte	$07
	.byte	$30
	.byte	$42
	.byte	$FF
	.byte	$07
	.byte	$31
	.byte	$42
	.byte	$80
_sun0:
	.byte	$FF
	.byte	$FF
	.byte	$13
	.byte	$00
	.byte	$07
	.byte	$FF
	.byte	$13
	.byte	$40
	.byte	$FF
	.byte	$07
	.byte	$14
	.byte	$00
	.byte	$07
	.byte	$07
	.byte	$14
	.byte	$40
	.byte	$80
_sun1:
	.byte	$FF
	.byte	$FF
	.byte	$15
	.byte	$00
	.byte	$07
	.byte	$FF
	.byte	$15
	.byte	$40
	.byte	$FF
	.byte	$07
	.byte	$16
	.byte	$00
	.byte	$07
	.byte	$07
	.byte	$16
	.byte	$40
	.byte	$80
_cannon_up:
	.byte	$FF
	.byte	$FF
	.byte	$1A
	.byte	$80
	.byte	$07
	.byte	$FF
	.byte	$1A
	.byte	$C0
	.byte	$FF
	.byte	$07
	.byte	$19
	.byte	$80
	.byte	$07
	.byte	$07
	.byte	$19
	.byte	$C0
	.byte	$80
_cannon_up_left:
	.byte	$FF
	.byte	$FF
	.byte	$1E
	.byte	$C0
	.byte	$FF
	.byte	$07
	.byte	$1D
	.byte	$C0
	.byte	$07
	.byte	$FF
	.byte	$1C
	.byte	$C0
	.byte	$07
	.byte	$07
	.byte	$1B
	.byte	$C0
	.byte	$80
_cannon_left:
	.byte	$FF
	.byte	$FF
	.byte	$2F
	.byte	$40
	.byte	$07
	.byte	$FF
	.byte	$1F
	.byte	$40
	.byte	$FF
	.byte	$07
	.byte	$2F
	.byte	$C0
	.byte	$07
	.byte	$07
	.byte	$1F
	.byte	$C0
	.byte	$80
_cannon_down_left:
	.byte	$FF
	.byte	$FF
	.byte	$1D
	.byte	$40
	.byte	$07
	.byte	$FF
	.byte	$1B
	.byte	$40
	.byte	$FF
	.byte	$07
	.byte	$1E
	.byte	$40
	.byte	$07
	.byte	$07
	.byte	$1C
	.byte	$40
	.byte	$80
_cannon_down:
	.byte	$FF
	.byte	$FF
	.byte	$19
	.byte	$00
	.byte	$07
	.byte	$FF
	.byte	$19
	.byte	$40
	.byte	$FF
	.byte	$07
	.byte	$1A
	.byte	$00
	.byte	$07
	.byte	$07
	.byte	$1A
	.byte	$40
	.byte	$80
_cannon_down_right:
	.byte	$FF
	.byte	$FF
	.byte	$1B
	.byte	$00
	.byte	$07
	.byte	$FF
	.byte	$1D
	.byte	$00
	.byte	$FF
	.byte	$07
	.byte	$1C
	.byte	$00
	.byte	$07
	.byte	$07
	.byte	$1E
	.byte	$00
	.byte	$80
_cannon_right:
	.byte	$FF
	.byte	$FF
	.byte	$1F
	.byte	$00
	.byte	$07
	.byte	$FF
	.byte	$2F
	.byte	$00
	.byte	$FF
	.byte	$07
	.byte	$1F
	.byte	$80
	.byte	$07
	.byte	$07
	.byte	$2F
	.byte	$80
	.byte	$80
_cannon_up_right:
	.byte	$FF
	.byte	$FF
	.byte	$1C
	.byte	$80
	.byte	$07
	.byte	$FF
	.byte	$1E
	.byte	$80
	.byte	$FF
	.byte	$07
	.byte	$1B
	.byte	$80
	.byte	$07
	.byte	$07
	.byte	$1D
	.byte	$80
	.byte	$80
_grarrl_left:
	.byte	$FF
	.byte	$FF
	.byte	$40
	.byte	$02
	.byte	$07
	.byte	$FF
	.byte	$41
	.byte	$02
	.byte	$FF
	.byte	$07
	.byte	$50
	.byte	$02
	.byte	$07
	.byte	$07
	.byte	$51
	.byte	$02
	.byte	$80
_grarrl_right:
	.byte	$07
	.byte	$FF
	.byte	$40
	.byte	$42
	.byte	$FF
	.byte	$FF
	.byte	$41
	.byte	$42
	.byte	$07
	.byte	$07
	.byte	$50
	.byte	$42
	.byte	$FF
	.byte	$07
	.byte	$51
	.byte	$42
	.byte	$80
_acidblob0:
	.byte	$FF
	.byte	$FF
	.byte	$28
	.byte	$03
	.byte	$07
	.byte	$FF
	.byte	$28
	.byte	$43
	.byte	$80
_acidblob1:
	.byte	$FF
	.byte	$FF
	.byte	$29
	.byte	$03
	.byte	$07
	.byte	$FF
	.byte	$29
	.byte	$43
	.byte	$80
_acidblob2:
	.byte	$FF
	.byte	$FF
	.byte	$2A
	.byte	$03
	.byte	$07
	.byte	$FF
	.byte	$2A
	.byte	$43
	.byte	$80
_acidblob3:
	.byte	$FF
	.byte	$FF
	.byte	$2B
	.byte	$03
	.byte	$07
	.byte	$FF
	.byte	$2B
	.byte	$43
	.byte	$80
_splyke_tornado0:
	.byte	$FF
	.byte	$FF
	.byte	$60
	.byte	$00
	.byte	$07
	.byte	$FF
	.byte	$61
	.byte	$00
	.byte	$FF
	.byte	$07
	.byte	$70
	.byte	$00
	.byte	$07
	.byte	$07
	.byte	$71
	.byte	$00
	.byte	$80
_splyke_tornado1:
	.byte	$FF
	.byte	$FF
	.byte	$62
	.byte	$00
	.byte	$07
	.byte	$FF
	.byte	$63
	.byte	$00
	.byte	$FF
	.byte	$07
	.byte	$72
	.byte	$00
	.byte	$07
	.byte	$07
	.byte	$73
	.byte	$00
	.byte	$80
_splyke_tornado2:
	.byte	$FF
	.byte	$FF
	.byte	$61
	.byte	$40
	.byte	$07
	.byte	$FF
	.byte	$60
	.byte	$40
	.byte	$FF
	.byte	$07
	.byte	$71
	.byte	$40
	.byte	$07
	.byte	$07
	.byte	$70
	.byte	$40
	.byte	$80
_splyke_idle_left0:
	.byte	$FF
	.byte	$FF
	.byte	$64
	.byte	$00
	.byte	$07
	.byte	$FF
	.byte	$65
	.byte	$00
	.byte	$FF
	.byte	$07
	.byte	$74
	.byte	$00
	.byte	$07
	.byte	$07
	.byte	$75
	.byte	$00
	.byte	$80
_splyke_idle_left1:
	.byte	$FF
	.byte	$FF
	.byte	$64
	.byte	$00
	.byte	$07
	.byte	$FF
	.byte	$65
	.byte	$00
	.byte	$FF
	.byte	$07
	.byte	$76
	.byte	$00
	.byte	$07
	.byte	$07
	.byte	$75
	.byte	$00
	.byte	$80
_splyke_idle_right0:
	.byte	$FF
	.byte	$FF
	.byte	$65
	.byte	$40
	.byte	$07
	.byte	$FF
	.byte	$64
	.byte	$40
	.byte	$FF
	.byte	$07
	.byte	$75
	.byte	$40
	.byte	$07
	.byte	$07
	.byte	$74
	.byte	$40
	.byte	$80
_splyke_idle_right1:
	.byte	$FF
	.byte	$FF
	.byte	$65
	.byte	$40
	.byte	$07
	.byte	$FF
	.byte	$64
	.byte	$40
	.byte	$FF
	.byte	$07
	.byte	$75
	.byte	$40
	.byte	$07
	.byte	$07
	.byte	$76
	.byte	$40
	.byte	$80
_purple_death_effect0:
	.byte	$FF
	.byte	$FF
	.byte	$2C
	.byte	$02
	.byte	$07
	.byte	$FF
	.byte	$2C
	.byte	$42
	.byte	$FF
	.byte	$07
	.byte	$2C
	.byte	$82
	.byte	$07
	.byte	$07
	.byte	$2C
	.byte	$C2
	.byte	$80
_purple_death_effect1:
	.byte	$FF
	.byte	$FF
	.byte	$2D
	.byte	$02
	.byte	$07
	.byte	$FF
	.byte	$2D
	.byte	$42
	.byte	$FF
	.byte	$07
	.byte	$2D
	.byte	$82
	.byte	$07
	.byte	$07
	.byte	$2D
	.byte	$C2
	.byte	$80
_splyke_death_effect0:
	.byte	$FF
	.byte	$FF
	.byte	$2C
	.byte	$00
	.byte	$07
	.byte	$FF
	.byte	$2C
	.byte	$40
	.byte	$FF
	.byte	$07
	.byte	$2C
	.byte	$80
	.byte	$07
	.byte	$07
	.byte	$2C
	.byte	$C0
	.byte	$80
_splyke_death_effect1:
	.byte	$FF
	.byte	$FF
	.byte	$2E
	.byte	$00
	.byte	$07
	.byte	$FF
	.byte	$2E
	.byte	$40
	.byte	$FF
	.byte	$07
	.byte	$2E
	.byte	$80
	.byte	$07
	.byte	$07
	.byte	$2E
	.byte	$C0
	.byte	$80
_metatiles:
	.byte	$A0
	.byte	$A0
	.byte	$B0
	.byte	$B0
	.byte	$00
	.byte	$A1
	.byte	$A1
	.byte	$B1
	.byte	$B1
	.byte	$00
	.byte	$A2
	.byte	$A3
	.byte	$A2
	.byte	$A3
	.byte	$00
	.byte	$B2
	.byte	$B3
	.byte	$B2
	.byte	$B3
	.byte	$00
	.byte	$E6
	.byte	$E7
	.byte	$F6
	.byte	$F7
	.byte	$00
	.byte	$84
	.byte	$E5
	.byte	$F6
	.byte	$F7
	.byte	$00
	.byte	$E6
	.byte	$E3
	.byte	$F6
	.byte	$F3
	.byte	$00
	.byte	$E6
	.byte	$E7
	.byte	$94
	.byte	$F5
	.byte	$00
	.byte	$E2
	.byte	$E7
	.byte	$F2
	.byte	$F7
	.byte	$00
	.byte	$84
	.byte	$8D
	.byte	$F6
	.byte	$F3
	.byte	$00
	.byte	$E6
	.byte	$E3
	.byte	$94
	.byte	$9D
	.byte	$00
	.byte	$E2
	.byte	$E7
	.byte	$F0
	.byte	$F5
	.byte	$00
	.byte	$E0
	.byte	$E5
	.byte	$F2
	.byte	$F7
	.byte	$00
	.byte	$84
	.byte	$E5
	.byte	$94
	.byte	$F5
	.byte	$00
	.byte	$E2
	.byte	$E3
	.byte	$F2
	.byte	$F3
	.byte	$00
	.byte	$E0
	.byte	$8D
	.byte	$F0
	.byte	$9D
	.byte	$00
	.byte	$80
	.byte	$81
	.byte	$90
	.byte	$91
	.byte	$00
	.byte	$84
	.byte	$85
	.byte	$94
	.byte	$95
	.byte	$00
	.byte	$86
	.byte	$81
	.byte	$96
	.byte	$91
	.byte	$00
	.byte	$84
	.byte	$89
	.byte	$94
	.byte	$99
	.byte	$00
	.byte	$8A
	.byte	$81
	.byte	$9A
	.byte	$91
	.byte	$00
	.byte	$84
	.byte	$8D
	.byte	$94
	.byte	$9D
	.byte	$00
	.byte	$EC
	.byte	$ED
	.byte	$FC
	.byte	$FD
	.byte	$03
	.byte	$A4
	.byte	$A5
	.byte	$B4
	.byte	$B5
	.byte	$03
	.byte	$A6
	.byte	$A5
	.byte	$B6
	.byte	$B5
	.byte	$03
	.byte	$A6
	.byte	$A9
	.byte	$B6
	.byte	$B9
	.byte	$03
	.byte	$AA
	.byte	$AB
	.byte	$BA
	.byte	$BB
	.byte	$02
	.byte	$8E
	.byte	$8F
	.byte	$9E
	.byte	$9F
	.byte	$00
	.byte	$00
	.byte	$00
	.byte	$00
	.byte	$8E
	.byte	$00
	.byte	$00
	.byte	$00
	.byte	$8F
	.byte	$00
	.byte	$00
	.byte	$00
	.byte	$9E
	.byte	$00
	.byte	$00
	.byte	$00
	.byte	$9F
	.byte	$00
	.byte	$00
	.byte	$00
	.byte	$00
	.byte	$AC
	.byte	$AD
	.byte	$BC
	.byte	$BD
	.byte	$00
	.byte	$AE
	.byte	$AF
	.byte	$BE
	.byte	$BF
	.byte	$00
	.byte	$BC
	.byte	$CD
	.byte	$BC
	.byte	$DD
	.byte	$00
	.byte	$CE
	.byte	$BF
	.byte	$DE
	.byte	$BF
	.byte	$00
	.byte	$C4
	.byte	$C5
	.byte	$D4
	.byte	$D5
	.byte	$00
	.byte	$C6
	.byte	$C7
	.byte	$D6
	.byte	$D7
	.byte	$00
	.byte	$C8
	.byte	$C9
	.byte	$D8
	.byte	$D9
	.byte	$00
	.byte	$CA
	.byte	$CB
	.byte	$DA
	.byte	$DB
	.byte	$00
	.byte	$C2
	.byte	$C3
	.byte	$D2
	.byte	$D3
	.byte	$03
	.byte	$C0
	.byte	$C1
	.byte	$D0
	.byte	$D1
	.byte	$00
	.byte	$E8
	.byte	$E9
	.byte	$F8
	.byte	$F9
	.byte	$03
	.byte	$EA
	.byte	$EB
	.byte	$FA
	.byte	$FB
	.byte	$01
	.byte	$00
	.byte	$00
	.byte	$00
	.byte	$00
	.byte	$00
_metatile_property_lookup_table:
	.byte	$02
	.byte	$02
	.byte	$02
	.byte	$02
	.byte	$01
	.byte	$01
	.byte	$01
	.byte	$01
	.byte	$01
	.byte	$01
	.byte	$01
	.byte	$01
	.byte	$01
	.byte	$01
	.byte	$01
	.byte	$01
	.byte	$01
	.byte	$01
	.byte	$05
	.byte	$09
	.byte	$01
	.byte	$01
	.byte	$01
	.byte	$10
	.byte	$10
	.byte	$10
	.byte	$20
	.byte	$00
	.byte	$00
	.byte	$00
	.byte	$00
	.byte	$00
	.byte	$00
	.byte	$00
	.byte	$00
	.byte	$00
	.byte	$00
	.byte	$00
	.byte	$00
	.byte	$00
	.byte	$00
	.byte	$00
	.byte	$40
	.byte	$40
	.byte	$00
.segment	"BANK0"
_level10_enemy:
	.byte	$49
	.byte	$02
	.byte	$04
	.byte	$57
	.byte	$02
	.byte	$05
	.byte	$69
	.byte	$02
	.byte	$07
	.byte	$24
	.byte	$02
	.byte	$03
	.byte	$71
	.byte	$02
	.byte	$06
	.byte	$91
	.byte	$02
	.byte	$02
	.byte	$2A
	.byte	$01
	.byte	$06
	.byte	$9C
	.byte	$00
	.byte	$01
	.byte	$FF
_level10_0:
	.byte	$04
	.byte	$07
	.byte	$07
	.byte	$07
	.byte	$07
	.byte	$07
	.byte	$07
	.byte	$07
	.byte	$07
	.byte	$07
	.byte	$07
	.byte	$06
	.byte	$2C
	.byte	$2C
	.byte	$2C
	.byte	$2C
	.byte	$06
	.byte	$2C
	.byte	$2C
	.byte	$2C
	.byte	$2C
	.byte	$2C
	.byte	$2C
	.byte	$2C
	.byte	$2C
	.byte	$2C
	.byte	$2C
	.byte	$0E
	.byte	$2C
	.byte	$2C
	.byte	$2C
	.byte	$2C
	.byte	$06
	.byte	$2C
	.byte	$2C
	.byte	$2C
	.byte	$2C
	.byte	$2C
	.byte	$2C
	.byte	$2C
	.byte	$2C
	.byte	$2C
	.byte	$2C
	.byte	$0E
	.byte	$2C
	.byte	$2C
	.byte	$2C
	.byte	$2C
	.byte	$06
	.byte	$2C
	.byte	$2C
	.byte	$2C
	.byte	$2C
	.byte	$2C
	.byte	$2C
	.byte	$2C
	.byte	$2C
	.byte	$2C
	.byte	$2C
	.byte	$0E
	.byte	$2C
	.byte	$2C
	.byte	$2C
	.byte	$2C
	.byte	$06
	.byte	$2C
	.byte	$2C
	.byte	$2C
	.byte	$2C
	.byte	$2C
	.byte	$2C
	.byte	$2C
	.byte	$2C
	.byte	$2C
	.byte	$2C
	.byte	$0E
	.byte	$2C
	.byte	$2C
	.byte	$2C
	.byte	$2C
	.byte	$06
	.byte	$2C
	.byte	$2C
	.byte	$2C
	.byte	$2C
	.byte	$2C
	.byte	$2C
	.byte	$2C
	.byte	$2C
	.byte	$2C
	.byte	$2C
	.byte	$0E
	.byte	$2C
	.byte	$2C
	.byte	$2C
	.byte	$2C
	.byte	$06
	.byte	$2C
	.byte	$2C
	.byte	$2C
	.byte	$2C
	.byte	$2C
	.byte	$2C
	.byte	$2C
	.byte	$2C
	.byte	$2C
	.byte	$2C
	.byte	$0E
	.byte	$2C
	.byte	$2C
	.byte	$2C
	.byte	$2C
	.byte	$06
	.byte	$2A
	.byte	$2A
	.byte	$2A
	.byte	$2A
	.byte	$2A
	.byte	$2C
	.byte	$2C
	.byte	$2C
	.byte	$2C
	.byte	$2C
	.byte	$0E
	.byte	$2C
	.byte	$2C
	.byte	$2C
	.byte	$2C
	.byte	$06
	.byte	$17
	.byte	$19
	.byte	$2A
	.byte	$2A
	.byte	$2A
	.byte	$2C
	.byte	$2C
	.byte	$2C
	.byte	$2C
	.byte	$2C
	.byte	$0E
	.byte	$2C
	.byte	$2C
	.byte	$2C
	.byte	$2C
	.byte	$06
	.byte	$18
	.byte	$18
	.byte	$2A
	.byte	$2A
	.byte	$2A
	.byte	$2C
	.byte	$2C
	.byte	$2C
	.byte	$2C
	.byte	$2C
	.byte	$0E
	.byte	$2C
	.byte	$2C
	.byte	$2C
	.byte	$2C
	.byte	$06
	.byte	$0D
	.byte	$0D
	.byte	$0D
	.byte	$0D
	.byte	$0D
	.byte	$0D
	.byte	$0D
	.byte	$15
	.byte	$2C
	.byte	$2C
	.byte	$0E
	.byte	$2C
	.byte	$2C
	.byte	$2C
	.byte	$2C
	.byte	$06
	.byte	$2C
	.byte	$2C
	.byte	$2C
	.byte	$2C
	.byte	$2C
	.byte	$2C
	.byte	$01
	.byte	$01
	.byte	$2C
	.byte	$2C
	.byte	$0E
	.byte	$2C
	.byte	$2C
	.byte	$2C
	.byte	$2C
	.byte	$06
	.byte	$2C
	.byte	$2C
	.byte	$2C
	.byte	$2C
	.byte	$2C
	.byte	$2C
	.byte	$2C
	.byte	$2C
	.byte	$2C
	.byte	$2C
	.byte	$0E
	.byte	$2C
	.byte	$2C
	.byte	$2C
	.byte	$2C
	.byte	$06
	.byte	$2C
	.byte	$2C
	.byte	$2C
	.byte	$2C
	.byte	$2C
	.byte	$0F
	.byte	$2C
	.byte	$2C
	.byte	$2C
	.byte	$2C
	.byte	$0E
	.byte	$2C
	.byte	$2C
	.byte	$2C
	.byte	$2C
	.byte	$06
	.byte	$2C
	.byte	$2C
	.byte	$00
	.byte	$00
	.byte	$00
	.byte	$00
	.byte	$00
	.byte	$00
	.byte	$00
	.byte	$00
	.byte	$0E
	.byte	$2C
	.byte	$2C
	.byte	$2C
	.byte	$2C
_level10_1:
	.byte	$06
	.byte	$2C
	.byte	$2C
	.byte	$0C
	.byte	$05
	.byte	$05
	.byte	$05
	.byte	$05
	.byte	$05
	.byte	$05
	.byte	$05
	.byte	$06
	.byte	$2C
	.byte	$2C
	.byte	$2C
	.byte	$2C
	.byte	$06
	.byte	$2C
	.byte	$2C
	.byte	$0B
	.byte	$07
	.byte	$07
	.byte	$07
	.byte	$07
	.byte	$07
	.byte	$07
	.byte	$07
	.byte	$06
	.byte	$2C
	.byte	$2C
	.byte	$2C
	.byte	$2C
	.byte	$06
	.byte	$2C
	.byte	$28
	.byte	$2C
	.byte	$28
	.byte	$2C
	.byte	$2C
	.byte	$2C
	.byte	$2C
	.byte	$2C
	.byte	$2C
	.byte	$0E
	.byte	$2C
	.byte	$2C
	.byte	$2C
	.byte	$2C
	.byte	$06
	.byte	$2C
	.byte	$2C
	.byte	$2C
	.byte	$2C
	.byte	$2C
	.byte	$2C
	.byte	$2C
	.byte	$2C
	.byte	$2C
	.byte	$2C
	.byte	$0E
	.byte	$2C
	.byte	$2C
	.byte	$2C
	.byte	$2C
	.byte	$04
	.byte	$0D
	.byte	$11
	.byte	$2C
	.byte	$10
	.byte	$11
	.byte	$2C
	.byte	$2C
	.byte	$2C
	.byte	$2C
	.byte	$2C
	.byte	$0E
	.byte	$2C
	.byte	$2C
	.byte	$2C
	.byte	$2C
	.byte	$06
	.byte	$2C
	.byte	$2C
	.byte	$2C
	.byte	$2C
	.byte	$2C
	.byte	$2C
	.byte	$2C
	.byte	$2C
	.byte	$2C
	.byte	$2C
	.byte	$0E
	.byte	$2C
	.byte	$2C
	.byte	$2C
	.byte	$2C
	.byte	$06
	.byte	$2C
	.byte	$2C
	.byte	$2C
	.byte	$2C
	.byte	$2C
	.byte	$2C
	.byte	$2C
	.byte	$2C
	.byte	$2C
	.byte	$2C
	.byte	$0E
	.byte	$2C
	.byte	$2C
	.byte	$2C
	.byte	$2C
	.byte	$06
	.byte	$2C
	.byte	$16
	.byte	$2C
	.byte	$2C
	.byte	$28
	.byte	$1C
	.byte	$1D
	.byte	$28
	.byte	$2C
	.byte	$2C
	.byte	$0E
	.byte	$2C
	.byte	$2C
	.byte	$2C
	.byte	$2C
	.byte	$06
	.byte	$2C
	.byte	$2C
	.byte	$2C
	.byte	$2C
	.byte	$2C
	.byte	$1E
	.byte	$1F
	.byte	$2C
	.byte	$2C
	.byte	$2C
	.byte	$0E
	.byte	$2C
	.byte	$2C
	.byte	$2C
	.byte	$2C
	.byte	$06
	.byte	$2C
	.byte	$2C
	.byte	$2C
	.byte	$2C
	.byte	$2C
	.byte	$2C
	.byte	$2C
	.byte	$2C
	.byte	$2C
	.byte	$2C
	.byte	$0E
	.byte	$2C
	.byte	$2C
	.byte	$2C
	.byte	$2C
	.byte	$06
	.byte	$29
	.byte	$2C
	.byte	$29
	.byte	$2C
	.byte	$2C
	.byte	$2C
	.byte	$2C
	.byte	$2C
	.byte	$2C
	.byte	$2C
	.byte	$0E
	.byte	$2C
	.byte	$2C
	.byte	$2C
	.byte	$2C
	.byte	$04
	.byte	$0D
	.byte	$0D
	.byte	$11
	.byte	$2C
	.byte	$2C
	.byte	$2C
	.byte	$2C
	.byte	$2C
	.byte	$2C
	.byte	$2C
	.byte	$0E
	.byte	$2C
	.byte	$2C
	.byte	$2C
	.byte	$2C
	.byte	$06
	.byte	$2C
	.byte	$2C
	.byte	$2C
	.byte	$2C
	.byte	$2C
	.byte	$2C
	.byte	$2A
	.byte	$2A
	.byte	$2A
	.byte	$2C
	.byte	$0E
	.byte	$2C
	.byte	$2C
	.byte	$2C
	.byte	$2C
	.byte	$06
	.byte	$2C
	.byte	$2C
	.byte	$2C
	.byte	$2C
	.byte	$2C
	.byte	$2C
	.byte	$2A
	.byte	$16
	.byte	$2A
	.byte	$2C
	.byte	$0E
	.byte	$2C
	.byte	$2C
	.byte	$2C
	.byte	$2C
	.byte	$06
	.byte	$2C
	.byte	$2C
	.byte	$2A
	.byte	$2A
	.byte	$2A
	.byte	$2C
	.byte	$2A
	.byte	$2A
	.byte	$2A
	.byte	$2C
	.byte	$0E
	.byte	$2C
	.byte	$2C
	.byte	$2C
	.byte	$2C
_level10_2:
	.byte	$06
	.byte	$2C
	.byte	$2C
	.byte	$2A
	.byte	$16
	.byte	$2A
	.byte	$2C
	.byte	$2C
	.byte	$2C
	.byte	$2C
	.byte	$2C
	.byte	$0E
	.byte	$2C
	.byte	$2C
	.byte	$2C
	.byte	$2C
	.byte	$06
	.byte	$2C
	.byte	$2C
	.byte	$2A
	.byte	$2A
	.byte	$2A
	.byte	$2C
	.byte	$2C
	.byte	$2C
	.byte	$2C
	.byte	$2C
	.byte	$0E
	.byte	$2C
	.byte	$2C
	.byte	$2C
	.byte	$2C
	.byte	$06
	.byte	$2C
	.byte	$2C
	.byte	$2C
	.byte	$2C
	.byte	$10
	.byte	$0D
	.byte	$0D
	.byte	$0D
	.byte	$0D
	.byte	$0D
	.byte	$06
	.byte	$2C
	.byte	$2C
	.byte	$2C
	.byte	$2C
	.byte	$06
	.byte	$28
	.byte	$1C
	.byte	$1D
	.byte	$28
	.byte	$2C
	.byte	$2C
	.byte	$2C
	.byte	$2C
	.byte	$2C
	.byte	$2C
	.byte	$0E
	.byte	$2C
	.byte	$2C
	.byte	$2C
	.byte	$2C
	.byte	$06
	.byte	$2C
	.byte	$1E
	.byte	$1F
	.byte	$2C
	.byte	$2C
	.byte	$2C
	.byte	$2C
	.byte	$2C
	.byte	$2C
	.byte	$2C
	.byte	$0E
	.byte	$2C
	.byte	$2C
	.byte	$2C
	.byte	$2C
	.byte	$04
	.byte	$05
	.byte	$05
	.byte	$05
	.byte	$05
	.byte	$05
	.byte	$09
	.byte	$2C
	.byte	$2C
	.byte	$2C
	.byte	$2C
	.byte	$0E
	.byte	$2C
	.byte	$2C
	.byte	$2C
	.byte	$2C
	.byte	$04
	.byte	$07
	.byte	$07
	.byte	$07
	.byte	$07
	.byte	$07
	.byte	$07
	.byte	$15
	.byte	$2C
	.byte	$2C
	.byte	$2C
	.byte	$0E
	.byte	$2C
	.byte	$2C
	.byte	$2C
	.byte	$2C
	.byte	$06
	.byte	$2C
	.byte	$2C
	.byte	$2C
	.byte	$2C
	.byte	$2C
	.byte	$2C
	.byte	$2C
	.byte	$2C
	.byte	$2C
	.byte	$2C
	.byte	$0E
	.byte	$2C
	.byte	$2C
	.byte	$2C
	.byte	$2C
	.byte	$06
	.byte	$2C
	.byte	$2C
	.byte	$2C
	.byte	$2C
	.byte	$2C
	.byte	$2C
	.byte	$2C
	.byte	$28
	.byte	$2C
	.byte	$2C
	.byte	$0E
	.byte	$2C
	.byte	$2C
	.byte	$2C
	.byte	$2C
	.byte	$06
	.byte	$2C
	.byte	$2C
	.byte	$2C
	.byte	$2C
	.byte	$2C
	.byte	$2C
	.byte	$2C
	.byte	$2C
	.byte	$2C
	.byte	$0C
	.byte	$06
	.byte	$2C
	.byte	$2C
	.byte	$2C
	.byte	$2C
	.byte	$06
	.byte	$2C
	.byte	$2C
	.byte	$2C
	.byte	$2C
	.byte	$2C
	.byte	$28
	.byte	$2C
	.byte	$2C
	.byte	$0C
	.byte	$04
	.byte	$06
	.byte	$2C
	.byte	$2C
	.byte	$2C
	.byte	$2C
	.byte	$06
	.byte	$2C
	.byte	$2C
	.byte	$2C
	.byte	$2C
	.byte	$2C
	.byte	$2C
	.byte	$2C
	.byte	$0C
	.byte	$07
	.byte	$07
	.byte	$0A
	.byte	$2C
	.byte	$2C
	.byte	$2C
	.byte	$2C
	.byte	$06
	.byte	$2C
	.byte	$28
	.byte	$20
	.byte	$21
	.byte	$2C
	.byte	$2C
	.byte	$0C
	.byte	$06
	.byte	$2C
	.byte	$2C
	.byte	$2C
	.byte	$2C
	.byte	$2C
	.byte	$2C
	.byte	$2C
	.byte	$06
	.byte	$2C
	.byte	$2C
	.byte	$22
	.byte	$23
	.byte	$2C
	.byte	$0C
	.byte	$04
	.byte	$06
	.byte	$2C
	.byte	$1A
	.byte	$2C
	.byte	$2C
	.byte	$2C
	.byte	$2C
	.byte	$2C
	.byte	$04
	.byte	$05
	.byte	$05
	.byte	$05
	.byte	$05
	.byte	$05
	.byte	$04
	.byte	$04
	.byte	$04
	.byte	$05
	.byte	$05
	.byte	$09
	.byte	$2C
	.byte	$2C
	.byte	$2C
	.byte	$2C
_level10_ordered_nts:
	.addr	_level10_0
	.addr	_level10_1
	.addr	_level10_2
.segment	"RODATA"
_level_nt_length:
	.byte	$03
_valrigard_starting_nt:
	.byte	$02
_valrigard_inital_coords:
	.byte	$4D
_level_nametable_pointers:
	.addr	_level10_ordered_nts
_level_nametable_banks:
	.byte	$00
_level_names:
	.addr	L06A6
	.addr	L06A8
_level_enemy_data:
	.addr	_level10_enemy
.segment	"RODATA"
_palette_bg:
	.byte	$0F
	.byte	$00
	.byte	$10
	.byte	$30
	.byte	$0F
	.byte	$01
	.byte	$11
	.byte	$31
	.byte	$0F
	.byte	$06
	.byte	$16
	.byte	$26
	.byte	$0F
	.byte	$17
	.byte	$27
	.byte	$38
_palette_sp:
	.byte	$0F
	.byte	$16
	.byte	$27
	.byte	$37
	.byte	$0F
	.byte	$01
	.byte	$0F
	.byte	$32
	.byte	$0F
	.byte	$04
	.byte	$14
	.byte	$24
	.byte	$0F
	.byte	$30
	.byte	$16
	.byte	$00
_cmaps:
	.addr	_cmap
	.addr	_cmap+240
	.addr	_cmap+480
	.addr	_cmap+720
	.addr	_cmap+960
	.addr	_cmap+1200
_draw_screen_sub_lookup_addr_0:
	.byte	$00
	.byte	$40
	.byte	$80
	.byte	$C0
_draw_screen_sub_lookup_index_offset_0:
	.byte	$00
	.byte	$04
	.byte	$08
	.byte	$0C
_draw_screen_sub_lookup_addr_1:
	.byte	$20
	.byte	$60
	.byte	$A0
	.byte	$E0
_draw_screen_sub_lookup_index_offset_1:
	.byte	$02
	.byte	$06
	.byte	$0A
	.byte	$0E
_leftright_movement_offset_lookup_table:
	.byte	$FF
	.byte	$0F
_leftright_movement_moving_lookup_table:
	.byte	$FF
	.byte	$01
_updown_movement_offset_lookup_table:
	.byte	$FF
	.byte	$0F
_valrigard_idle_sprite_lookup_table:
	.addr	_valrigard_idle_left
	.addr	_valrigard_idle_right
_valrigard_sword_swing_sprite_lookup_table:
	.addr	_valrigard_swing_left_followthrough
	.addr	_valrigard_swing_right_followthrough
	.addr	_valrigard_swing_left_followthrough
	.addr	_valrigard_swing_right_followthrough
	.addr	_valrigard_swing_left_followthrough
	.addr	_valrigard_swing_right_followthrough
	.addr	_valrigard_idle_left
	.addr	_valrigard_idle_right
	.addr	_valrigard_swing_left_high
	.addr	_valrigard_swing_right_high
	.addr	_valrigard_swing_left_mid
	.addr	_valrigard_swing_right_mid
	.addr	_valrigard_swing_left_low
	.addr	_valrigard_swing_right_low
	.addr	_valrigard_swing_left_low
	.addr	_valrigard_swing_right_low
_valrigard_dead_sprite_lookup_table:
	.addr	_valrigard_dead_left
	.addr	_valrigard_dead_right
_korbat_sprite_lookup_table:
	.addr	_korbat_left
	.addr	_korbat_right
_grarrl_sprite_lookup_table:
	.addr	_grarrl_left
	.addr	_grarrl_right
_cannon_sprite_lookup_table:
	.addr	_cannon_up
	.addr	_cannon_up_left
	.addr	_cannon_left
	.addr	_cannon_down_left
	.addr	_cannon_down
	.addr	_cannon_down_right
	.addr	_cannon_right
	.addr	_cannon_up_right
_cannon_ul_sprite_lookup_table:
	.byte	$06
	.byte	$07
	.byte	$00
_cannon_ur_sprite_lookup_table:
	.byte	$02
	.byte	$01
	.byte	$00
_cannon_dr_sprite_lookup_table:
	.byte	$02
	.byte	$03
	.byte	$04
_cannon_dl_sprite_lookup_table:
	.byte	$06
	.byte	$05
	.byte	$04
_cannon_sprite_quadrant_lookup_table:
	.addr	_cannon_ul_sprite_lookup_table
	.addr	_cannon_ur_sprite_lookup_table
	.addr	_cannon_dl_sprite_lookup_table
	.addr	_cannon_dr_sprite_lookup_table
_acidblob_sprite_lookup_table:
	.addr	_acidblob0
	.addr	_acidblob3
	.addr	_acidblob0
	.addr	_acidblob1
	.addr	_acidblob2
	.addr	_acidblob1
	.addr	_acidblob0
_sun_sprite_lookup_table:
	.addr	_sun0
	.addr	_sun1
_splyke_sprite_lookup_table:
	.addr	_splyke_idle_left0
	.addr	_splyke_idle_right0
	.addr	_splyke_idle_left0
	.addr	_splyke_idle_right0
	.addr	_splyke_idle_left1
	.addr	_splyke_idle_right1
	.addr	_splyke_idle_left1
	.addr	_splyke_idle_right1
	.addr	_splyke_tornado0
	.addr	_splyke_tornado0
	.addr	_splyke_tornado1
	.addr	_splyke_tornado1
	.addr	_splyke_tornado2
	.addr	_splyke_tornado2
	.addr	_splyke_tornado1
	.addr	_splyke_tornado1
_purple_death_effect_sprite_lookup_table:
	.addr	_purple_death_effect1
	.addr	_purple_death_effect1
	.addr	_purple_death_effect0
_splyke_death_effect_sprite_lookup_table:
	.addr	_splyke_death_effect1
	.addr	_splyke_death_effect1
	.addr	_splyke_death_effect0
_title_string:
	.byte	$43,$61,$73,$74,$6C,$65,$20,$45,$73,$63,$61,$70,$65,$20,$41,$6C
	.byte	$70,$68,$61,$00
_author_string:
	.byte	$42,$79,$20,$6D,$61,$63,$6F,$73,$74,$65,$6E,$00
_instruction_string:
	.byte	$50,$72,$65,$73,$73,$20,$55,$70,$20,$74,$6F,$20,$73,$74,$61,$72
	.byte	$74,$00
_game_over_string:
	.byte	$44,$65,$6D,$6F,$20,$4F,$76,$65,$72,$21,$20,$44,$6F,$77,$6E,$20
	.byte	$74,$6F,$20,$72,$65,$73,$74,$61,$72,$74,$2E,$00
_enemy_hitbox_width_lookup_table:
	.byte	$00
	.byte	$0D
	.byte	$0D
	.byte	$0D
	.byte	$0D
	.byte	$00
	.byte	$0D
	.byte	$0D
	.byte	$0D
	.byte	$06
	.byte	$06
	.byte	$00
_enemy_hitbox_height_lookup_table:
	.byte	$00
	.byte	$0D
	.byte	$0D
	.byte	$0D
	.byte	$0D
	.byte	$00
	.byte	$0D
	.byte	$0D
	.byte	$0D
	.byte	$06
	.byte	$06
	.byte	$00
L06A6:
	.byte	$4D,$6F,$63,$6B,$75,$70,$20,$4C,$65,$76,$65,$6C,$20,$31,$30,$00
L06A8:
	.byte	$4E,$75,$6C,$6C,$00

.segment	"BSS"

_bankLevel:
	.res	1,$00
_bankBuffer:
	.res	10,$00
.segment	"ZEROPAGE"
_pad1:
	.res	1,$00
_pad1_new:
	.res	1,$00
_collision:
	.res	1,$00
_collision_L:
	.res	1,$00
_collision_R:
	.res	1,$00
_collision_U:
	.res	1,$00
_collision_D:
	.res	1,$00
_coordinates:
	.res	1,$00
_temp0:
	.res	1,$00
_temp1:
	.res	1,$00
_temp2:
	.res	1,$00
_temp3:
	.res	1,$00
_temp4:
	.res	1,$00
_temp5:
	.res	2,$00
_temp6:
	.res	2,$00
_temppointer:
	.res	2,$00
_temp_mutablepointer:
	.res	2,$00
_temp_funcpointer:
	.res	2,$00
_eject_L:
	.res	1,$00
_eject_R:
	.res	1,$00
_eject_D:
	.res	1,$00
_eject_U:
	.res	1,$00
_player_frame_timer:
	.res	1,$00
_player_sword_timer:
	.res	1,$00
_player_flags:
	.res	1,$00
_game_mode:
	.res	1,$00
_address:
	.res	2,$00
_x:
	.res	1,$00
_y:
	.res	1,$00
_index:
	.res	1,$00
_nt:
	.res	1,$00
_scroll_x:
	.res	2,$00
_pseudo_scroll_y:
	.res	2,$00
_scroll_y:
	.res	2,$00
_min_scroll_y:
	.res	2,$00
_max_scroll_y:
	.res	2,$00
_initial_scroll:
	.res	2,$00
_scroll_count:
	.res	1,$00
_L_R_switch:
	.res	1,$00
_old_x:
	.res	2,$00
_old_y:
	.res	2,$00
_temp_x:
	.res	1,$00
_temp_y:
	.res	1,$00
_level_index:
	.res	1,$00
_energy:
	.res	1,$00
_score:
	.res	2,$00
_enemy_score:
	.res	1,$00
_stars:
	.res	1,$00
_timer:
	.res	1,$00
_song:
	.res	1,$00
_nt_min:
	.res	1,$00
_nt_max:
	.res	1,$00
_nt_current:
	.res	1,$00
_valrigard:
	.res	8,$00
_hitbox:
	.res	4,$00
_hitbox2:
	.res	4,$00
_shuffle_offset:
	.res	1,$00
_shuffle_maximum:
	.res	1,$00
_debug_tile_x:
	.res	1,$00
_debug_tile_y:
	.res	1,$00
.segment	"BSS"
_shuffle_array:
	.res	128,$00
_enemies:
	.res	289,$00
.segment	"XRAM"
_cmap:
	.res	1440,$00

; ---------------------------------------------------------------
; void __near__ draw_sprites (void)
; ---------------------------------------------------------------

.segment	"CODE"

.proc	_draw_sprites: near

.segment	"CODE"

;
; oam_clear();
;
	jsr     _oam_clear
;
; draw_player();
;
	jsr     _draw_player
;
; for (y = 0; y < enemies.count; ++y) {
;
	lda     #$00
	sta     _y
	tax
L107D:	lda     _y
	cmp     _enemies+288
	bcs     L107F
;
; x = shuffle_array[y + shuffle_offset];
;
	clc
	adc     _shuffle_offset
	bcc     L107C
	inx
L107C:	sta     ptr1
	txa
	clc
	adc     #>(_shuffle_array)
	sta     ptr1+1
	ldy     #<(_shuffle_array)
	lda     (ptr1),y
	sta     _x
;
; if (!IS_ENEMY_ACTIVE(x)) { continue; }
;
	ldy     _x
	lda     _enemies+128,y
	ldx     #$00
	and     #$80
	beq     L107E
;
; temp_x = enemies.x[x];
;
	ldy     _x
	lda     _enemies,y
	sta     _temp_x
;
; temp_y = enemies.y[x];
;
	ldy     _x
	lda     _enemies+32,y
	sta     _temp_y
;
; if (temp_y < 0xf0) {
;
	cmp     #$F0
	bcs     L107E
;
; temp0 = GET_ENEMY_TYPE(x);
;
	ldy     _x
	lda     _enemies+160,y
	sta     _temp0
;
; AsmCallFunctionAtPtrOffsetByIndexVar(draw_func_pointers, temp0);
;
	asl     a
	tay
	lda     _draw_func_pointers,y
	ldx     _draw_func_pointers+1,y
	jsr     callax
;
; for (y = 0; y < enemies.count; ++y) {
;
	ldx     #$00
L107E:	inc     _y
	jmp     L107D
;
; shuffle_offset += enemies.count;
;
L107F:	lda     _enemies+288
	clc
	adc     _shuffle_offset
	sta     _shuffle_offset
;
; if (shuffle_offset >= shuffle_maximum) { shuffle_offset = 0; }
;
	cmp     _shuffle_maximum
	bcc     L09C9
	stx     _shuffle_offset
;
; draw_energy();
;
L09C9:	jsr     _draw_energy
;
; draw_score();
;
	jsr     _draw_score
;
; oam_spr(232, 42, STATUS_DEAD, 2);
;
	jsr     decsp3
	lda     #$E8
	ldy     #$02
	sta     (sp),y
	lda     #$2A
	dey
	sta     (sp),y
	lda     _player_flags
	and     #$02
	dey
	sta     (sp),y
	lda     #$02
	jsr     _oam_spr
;
; oam_spr(200, 50, debug_tile_x >> 4, 1);
;
	jsr     decsp3
	lda     #$C8
	ldy     #$02
	sta     (sp),y
	lda     #$32
	dey
	sta     (sp),y
	lda     _debug_tile_x
	lsr     a
	lsr     a
	lsr     a
	lsr     a
	dey
	sta     (sp),y
	lda     #$01
	jsr     _oam_spr
;
; oam_spr(208, 50, debug_tile_x & 0x0f, 1);
;
	jsr     decsp3
	lda     #$D0
	ldy     #$02
	sta     (sp),y
	lda     #$32
	dey
	sta     (sp),y
	lda     _debug_tile_x
	and     #$0F
	dey
	sta     (sp),y
	lda     #$01
	jsr     _oam_spr
;
; oam_spr(224, 50, debug_tile_y >> 4, 1);
;
	jsr     decsp3
	lda     #$E0
	ldy     #$02
	sta     (sp),y
	lda     #$32
	dey
	sta     (sp),y
	lda     _debug_tile_y
	lsr     a
	lsr     a
	lsr     a
	lsr     a
	dey
	sta     (sp),y
	lda     #$01
	jsr     _oam_spr
;
; oam_spr(232, 50, debug_tile_y & 0x0f, 1);
;
	jsr     decsp3
	lda     #$E8
	ldy     #$02
	sta     (sp),y
	lda     #$32
	dey
	sta     (sp),y
	lda     _debug_tile_y
	and     #$0F
	dey
	sta     (sp),y
	lda     #$01
	jmp     _oam_spr

.endproc

; ---------------------------------------------------------------
; void __near__ draw_player (void)
; ---------------------------------------------------------------

.segment	"CODE"

.proc	_draw_player: near

.segment	"CODE"

;
; temp1 = high_byte(valrigard.x);
;
	lda     _valrigard+1
	sta     _temp1
;
; temp2 = high_byte(valrigard.y);
;
	lda     _valrigard+3
	sta     _temp2
;
; if (STATUS_DEAD) {
;
	lda     _player_flags
	and     #$02
	beq     L1083
;
; oam_meta_spr(temp1, temp2, valrigard_dead_sprite_lookup_table[DIRECTION]);
;
	jsr     decsp2
	lda     _temp1
	ldy     #$01
	sta     (sp),y
	lda     _temp2
	dey
	sta     (sp),y
	lda     _player_flags
	and     #$01
	asl     a
	tay
	lda     _valrigard_dead_sprite_lookup_table,y
	ldx     _valrigard_dead_sprite_lookup_table+1,y
	jmp     _oam_meta_spr
;
; if (IS_SWINGING_SWORD) {
;
L1083:	lda     _player_flags
	and     #$04
	beq     L09F9
;
; temp0 = (player_frame_timer & 0b11111110) | DIRECTION;
;
	lda     _player_frame_timer
	and     #$FE
	sta     ptr1
	lda     _player_flags
	and     #$01
	ora     ptr1
	sta     _temp0
;
; oam_meta_spr(temp1, temp2, valrigard_sword_swing_sprite_lookup_table[temp0]);
;
	jsr     decsp2
	lda     _temp1
	ldy     #$01
	sta     (sp),y
	lda     _temp2
	dey
	sta     (sp),y
	ldx     #$00
	lda     _temp0
	asl     a
	bcc     L1082
	inx
	clc
L1082:	adc     #<(_valrigard_sword_swing_sprite_lookup_table)
	sta     ptr1
	txa
	adc     #>(_valrigard_sword_swing_sprite_lookup_table)
	sta     ptr1+1
	iny
	lda     (ptr1),y
	tax
	dey
	lda     (ptr1),y
;
; } else {
;
	jmp     L1081
;
; oam_meta_spr(temp1, temp2, valrigard_idle_sprite_lookup_table[DIRECTION]);
;
L09F9:	jsr     decsp2
	lda     _temp1
	ldy     #$01
	sta     (sp),y
	lda     _temp2
	dey
	sta     (sp),y
	lda     _player_flags
	and     #$01
	asl     a
	tay
	lda     _valrigard_idle_sprite_lookup_table,y
	ldx     _valrigard_idle_sprite_lookup_table+1,y
L1081:	jsr     _oam_meta_spr
;
; if (player_frame_timer) { 
;
	lda     _player_frame_timer
	beq     L0A0C
;
; --player_frame_timer;
;
	dec     _player_frame_timer
;
; }
;
L0A0C:	rts

.endproc

; ---------------------------------------------------------------
; void __near__ draw_korbat (void)
; ---------------------------------------------------------------

.segment	"CODE"

.proc	_draw_korbat: near

.segment	"CODE"

;
; temp3 = ENEMY_DIRECTION(x);
;
	ldy     _x
	lda     _enemies+128,y
	and     #$01
	sta     _temp3
;
; oam_meta_spr(temp_x, temp_y, korbat_sprite_lookup_table[temp3]);
;
	jsr     decsp2
	lda     _temp_x
	ldy     #$01
	sta     (sp),y
	lda     _temp_y
	dey
	sta     (sp),y
	ldx     #$00
	lda     _temp3
	asl     a
	bcc     L1085
	inx
	clc
L1085:	adc     #<(_korbat_sprite_lookup_table)
	sta     ptr1
	txa
	adc     #>(_korbat_sprite_lookup_table)
	sta     ptr1+1
	iny
	lda     (ptr1),y
	tax
	dey
	lda     (ptr1),y
	jmp     _oam_meta_spr

.endproc

; ---------------------------------------------------------------
; void __near__ draw_grarrl (void)
; ---------------------------------------------------------------

.segment	"CODE"

.proc	_draw_grarrl: near

.segment	"CODE"

;
; temp3 = ENEMY_DIRECTION(x);
;
	ldy     _x
	lda     _enemies+128,y
	and     #$01
	sta     _temp3
;
; oam_meta_spr(temp_x, temp_y, grarrl_sprite_lookup_table[temp3]);
;
	jsr     decsp2
	lda     _temp_x
	ldy     #$01
	sta     (sp),y
	lda     _temp_y
	dey
	sta     (sp),y
	ldx     #$00
	lda     _temp3
	asl     a
	bcc     L1087
	inx
	clc
L1087:	adc     #<(_grarrl_sprite_lookup_table)
	sta     ptr1
	txa
	adc     #>(_grarrl_sprite_lookup_table)
	sta     ptr1+1
	iny
	lda     (ptr1),y
	tax
	dey
	lda     (ptr1),y
	jmp     _oam_meta_spr

.endproc

; ---------------------------------------------------------------
; void __near__ draw_spikeball (void)
; ---------------------------------------------------------------

.segment	"CODE"

.proc	_draw_spikeball: near

.segment	"CODE"

;
; oam_meta_spr(temp_x, temp_y, spikeball);
;
	jsr     decsp2
	lda     _temp_x
	ldy     #$01
	sta     (sp),y
	lda     _temp_y
	dey
	sta     (sp),y
	lda     #<(_spikeball)
	ldx     #>(_spikeball)
	jmp     _oam_meta_spr

.endproc

; ---------------------------------------------------------------
; void __near__ draw_cannon (void)
; ---------------------------------------------------------------

.segment	"CODE"

.proc	_draw_cannon: near

.segment	"CODE"

;
; temp3 = enemies.extra2[x];
;
	ldy     _x
	lda     _enemies+224,y
	sta     _temp3
;
; oam_meta_spr(temp_x, temp_y, cannon_sprite_lookup_table[temp3]);
;
	jsr     decsp2
	lda     _temp_x
	ldy     #$01
	sta     (sp),y
	lda     _temp_y
	dey
	sta     (sp),y
	ldx     #$00
	lda     _temp3
	asl     a
	bcc     L1089
	inx
	clc
L1089:	adc     #<(_cannon_sprite_lookup_table)
	sta     ptr1
	txa
	adc     #>(_cannon_sprite_lookup_table)
	sta     ptr1+1
	iny
	lda     (ptr1),y
	tax
	dey
	lda     (ptr1),y
	jmp     _oam_meta_spr

.endproc

; ---------------------------------------------------------------
; void __near__ draw_cannonball (void)
; ---------------------------------------------------------------

.segment	"CODE"

.proc	_draw_cannonball: near

.segment	"CODE"

;
; oam_spr(temp_x, temp_y, CANNONBALL_SPRITE_OFFSET, 1);
;
	jsr     decsp3
	lda     _temp_x
	ldy     #$02
	sta     (sp),y
	lda     _temp_y
	dey
	sta     (sp),y
	lda     #$18
	dey
	sta     (sp),y
	lda     #$01
	jmp     _oam_spr

.endproc

; ---------------------------------------------------------------
; void __near__ draw_acid (void)
; ---------------------------------------------------------------

.segment	"CODE"

.proc	_draw_acid: near

.segment	"CODE"

;
; temp3 = enemies.extra2[x];
;
	ldy     _x
	lda     _enemies+224,y
	sta     _temp3
;
; temp3 = temp3 >> 1; 
;
	lsr     a
	sta     _temp3
;
; oam_meta_spr(temp_x, temp_y, acidblob_sprite_lookup_table[temp3]);
;
	jsr     decsp2
	lda     _temp_x
	ldy     #$01
	sta     (sp),y
	lda     _temp_y
	dey
	sta     (sp),y
	ldx     #$00
	lda     _temp3
	asl     a
	bcc     L108B
	inx
	clc
L108B:	adc     #<(_acidblob_sprite_lookup_table)
	sta     ptr1
	txa
	adc     #>(_acidblob_sprite_lookup_table)
	sta     ptr1+1
	iny
	lda     (ptr1),y
	tax
	dey
	lda     (ptr1),y
	jmp     _oam_meta_spr

.endproc

; ---------------------------------------------------------------
; void __near__ draw_acid_drop (void)
; ---------------------------------------------------------------

.segment	"CODE"

.proc	_draw_acid_drop: near

.segment	"CODE"

;
; oam_spr(temp_x, temp_y, ACIDDROP_SPRITE_OFFSET, 3);
;
	jsr     decsp3
	lda     _temp_x
	ldy     #$02
	sta     (sp),y
	lda     _temp_y
	dey
	sta     (sp),y
	lda     #$17
	dey
	sta     (sp),y
	lda     #$03
	jmp     _oam_spr

.endproc

; ---------------------------------------------------------------
; void __near__ draw_splyke (void)
; ---------------------------------------------------------------

.segment	"CODE"

.proc	_draw_splyke: near

.segment	"CODE"

;
; temp3 = enemies.extra2[x] & 0b110; // Mask the frame number.
;
	ldy     _x
	lda     _enemies+224,y
	and     #$06
	sta     _temp3
;
; temp4 = ENEMY_DIRECTION(x) | temp3;
;
	ldy     _x
	lda     _enemies+128,y
	and     #$01
	sta     ptr1
	ldx     #$00
	lda     _temp3
	ora     ptr1
	sta     _temp4
;
; temp4 = temp4 | SPLYKE_IS_MOVING_AROUND(x) >> 2;
;
	ldy     _x
	lda     _enemies+128,y
	and     #$20
	lsr     a
	lsr     a
	ora     _temp4
	sta     _temp4
;
; oam_meta_spr(temp_x, temp_y, splyke_sprite_lookup_table[temp4]);
;
	jsr     decsp2
	lda     _temp_x
	ldy     #$01
	sta     (sp),y
	lda     _temp_y
	dey
	sta     (sp),y
	lda     _temp4
	asl     a
	bcc     L108D
	inx
	clc
L108D:	adc     #<(_splyke_sprite_lookup_table)
	sta     ptr1
	txa
	adc     #>(_splyke_sprite_lookup_table)
	sta     ptr1+1
	iny
	lda     (ptr1),y
	tax
	dey
	lda     (ptr1),y
	jmp     _oam_meta_spr

.endproc

; ---------------------------------------------------------------
; void __near__ draw_sun (void)
; ---------------------------------------------------------------

.segment	"CODE"

.proc	_draw_sun: near

.segment	"CODE"

;
; temp3 = enemies.actual_y[x] & 15;
;
	ldy     _x
	lda     _enemies+64,y
	and     #$0F
	sta     _temp3
;
; temp3 = temp3 >> 3;
;
	lsr     a
	lsr     a
	lsr     a
	sta     _temp3
;
; oam_meta_spr(temp_x, temp_y, sun_sprite_lookup_table[temp3]);
;
	jsr     decsp2
	lda     _temp_x
	ldy     #$01
	sta     (sp),y
	lda     _temp_y
	dey
	sta     (sp),y
	ldx     #$00
	lda     _temp3
	asl     a
	bcc     L108F
	inx
	clc
L108F:	adc     #<(_sun_sprite_lookup_table)
	sta     ptr1
	txa
	adc     #>(_sun_sprite_lookup_table)
	sta     ptr1+1
	iny
	lda     (ptr1),y
	tax
	dey
	lda     (ptr1),y
	jmp     _oam_meta_spr

.endproc

; ---------------------------------------------------------------
; void __near__ draw_boss (void)
; ---------------------------------------------------------------

.segment	"CODE"

.proc	_draw_boss: near

.segment	"CODE"

;
; oam_spr(temp_x, temp_y, 0x10, 3);
;
	jsr     decsp3
	lda     _temp_x
	ldy     #$02
	sta     (sp),y
	lda     _temp_y
	dey
	sta     (sp),y
	lda     #$10
	dey
	sta     (sp),y
	lda     #$03
	jmp     _oam_spr

.endproc

; ---------------------------------------------------------------
; void __near__ draw_purple_death_effect (void)
; ---------------------------------------------------------------

.segment	"CODE"

.proc	_draw_purple_death_effect: near

.segment	"CODE"

;
; temp3 = enemies.timer[x] >> 2; // 12 frames -> 3 valid positions
;
	ldy     _x
	lda     _enemies+256,y
	lsr     a
	lsr     a
	sta     _temp3
;
; oam_meta_spr(temp_x, temp_y, purple_death_effect_sprite_lookup_table[temp3]);
;
	jsr     decsp2
	lda     _temp_x
	ldy     #$01
	sta     (sp),y
	lda     _temp_y
	dey
	sta     (sp),y
	ldx     #$00
	lda     _temp3
	asl     a
	bcc     L1091
	inx
	clc
L1091:	adc     #<(_purple_death_effect_sprite_lookup_table)
	sta     ptr1
	txa
	adc     #>(_purple_death_effect_sprite_lookup_table)
	sta     ptr1+1
	iny
	lda     (ptr1),y
	tax
	dey
	lda     (ptr1),y
	jmp     _oam_meta_spr

.endproc

; ---------------------------------------------------------------
; void __near__ draw_splyke_death_effect (void)
; ---------------------------------------------------------------

.segment	"CODE"

.proc	_draw_splyke_death_effect: near

.segment	"CODE"

;
; temp3 = enemies.timer[x] >> 2; // 12 frames -> 3 valid positions
;
	ldy     _x
	lda     _enemies+256,y
	lsr     a
	lsr     a
	sta     _temp3
;
; oam_meta_spr(temp_x, temp_y, splyke_death_effect_sprite_lookup_table[temp3]);
;
	jsr     decsp2
	lda     _temp_x
	ldy     #$01
	sta     (sp),y
	lda     _temp_y
	dey
	sta     (sp),y
	ldx     #$00
	lda     _temp3
	asl     a
	bcc     L1093
	inx
	clc
L1093:	adc     #<(_splyke_death_effect_sprite_lookup_table)
	sta     ptr1
	txa
	adc     #>(_splyke_death_effect_sprite_lookup_table)
	sta     ptr1+1
	iny
	lda     (ptr1),y
	tax
	dey
	lda     (ptr1),y
	jmp     _oam_meta_spr

.endproc

; ---------------------------------------------------------------
; void __near__ draw_score (void)
; ---------------------------------------------------------------

.segment	"CODE"

.proc	_draw_score: near

.segment	"CODE"

;
; y = 4;
;
	lda     #$04
	sta     _y
;
; for (x = 200; x <= 232; x+=8) {
;
	lda     #$C8
L1094:	sta     _x
	cmp     #$E9
	bcs     L0A13
;
; if (score_string[y] != 0 || y == 0){
;
	ldy     _y
	lda     _score_string,y
	bne     L1095
	lda     _y
	bne     L1096
;
; oam_spr(x, 20, score_string[y], 3);
;
L1095:	jsr     decsp3
	lda     _x
	ldy     #$02
	sta     (sp),y
	lda     #$14
	dey
	sta     (sp),y
	ldy     _y
	lda     _score_string,y
	ldy     #$00
	sta     (sp),y
	lda     #$03
	jsr     _oam_spr
;
; --y;
;
L1096:	dec     _y
;
; for (x = 200; x <= 232; x+=8) {
;
	lda     #$08
	clc
	adc     _x
	jmp     L1094
;
; }
;
L0A13:	rts

.endproc

; ---------------------------------------------------------------
; void __near__ draw_energy (void)
; ---------------------------------------------------------------

.segment	"CODE"

.proc	_draw_energy: near

.segment	"CODE"

;
; temp1 = energy >> 4; 
;
	lda     _energy
	lsr     a
	lsr     a
	lsr     a
	lsr     a
	sta     _temp1
;
; oam_spr(200, 28, temp1, 1);
;
	jsr     decsp3
	lda     #$C8
	ldy     #$02
	sta     (sp),y
	lda     #$1C
	dey
	sta     (sp),y
	lda     _temp1
	dey
	sta     (sp),y
	lda     #$01
	jsr     _oam_spr
;
; temp1 = energy & 0x0f;
;
	lda     _energy
	and     #$0F
	sta     _temp1
;
; oam_spr(208, 28, temp1, 1);
;
	jsr     decsp3
	lda     #$D0
	ldy     #$02
	sta     (sp),y
	lda     #$1C
	dey
	sta     (sp),y
	lda     _temp1
	dey
	sta     (sp),y
	lda     #$01
	jmp     _oam_spr

.endproc

; ---------------------------------------------------------------
; void __near__ draw_screen_U (void)
; ---------------------------------------------------------------

.segment	"CODE"

.proc	_draw_screen_U: near

.segment	"CODE"

;
; pseudo_scroll_y = sub_scroll_y(0x20, scroll_y);
;
	lda     #$20
	jsr     pusha
	lda     _scroll_y
	ldx     _scroll_y+1
	jsr     _sub_scroll_y
	sta     _pseudo_scroll_y
	stx     _pseudo_scroll_y+1
;
; draw_screen_sub();
;
	jmp     _draw_screen_sub

.endproc

; ---------------------------------------------------------------
; void __near__ draw_screen_D (void)
; ---------------------------------------------------------------

.segment	"CODE"

.proc	_draw_screen_D: near

.segment	"CODE"

;
; pseudo_scroll_y = add_scroll_y(0x20, scroll_y) + 0xef; 
;
	lda     #$20
	jsr     pusha
	lda     _scroll_y
	ldx     _scroll_y+1
	jsr     _add_scroll_y
	clc
	adc     #$EF
	bcc     L0C1C
	inx
L0C1C:	sta     _pseudo_scroll_y
	stx     _pseudo_scroll_y+1
;
; draw_screen_sub();
;
	jmp     _draw_screen_sub

.endproc

; ---------------------------------------------------------------
; void __near__ draw_screen_sub (void)
; ---------------------------------------------------------------

.segment	"CODE"

.proc	_draw_screen_sub: near

.segment	"CODE"

;
; temp1 = pseudo_scroll_y >> 8;
;
	lda     _pseudo_scroll_y+1
	sta     _temp1
;
; set_data_pointer(cmaps[temp1]); // TODO: clamp this value to 6.
;
	ldx     #$00
	lda     _temp1
	asl     a
	bcc     L109A
	inx
	clc
L109A:	adc     #<(_cmaps)
	sta     ptr1
	txa
	adc     #>(_cmaps)
	sta     ptr1+1
	ldy     #$01
	lda     (ptr1),y
	tax
	dey
	lda     (ptr1),y
	jsr     _set_data_pointer
;
; nt = (temp1 & 1) << 1; // 0 or 2
;
	lda     _temp1
	and     #$01
	asl     a
	sta     _nt
;
; y = pseudo_scroll_y & 0xff;
;
	lda     _pseudo_scroll_y
	sta     _y
;
; temp2 = draw_screen_sub_lookup_index_offset_0[scroll_count];
;
	ldy     _scroll_count
	lda     _draw_screen_sub_lookup_index_offset_0,y
	sta     _temp2
;
; temp4 = draw_screen_sub_lookup_index_offset_1[scroll_count];
;
	ldy     _scroll_count
	lda     _draw_screen_sub_lookup_index_offset_1,y
	sta     _temp4
;
; address = get_ppu_addr(nt, draw_screen_sub_lookup_addr_0[scroll_count], y);
;
	jsr     decsp2
	lda     _nt
	ldy     #$01
	sta     (sp),y
	ldy     _scroll_count
	lda     _draw_screen_sub_lookup_addr_0,y
	ldy     #$00
	sta     (sp),y
	lda     _y
	jsr     _get_ppu_addr
	sta     _address
	stx     _address+1
;
; index = (y & 0xf0) + temp2;
;
	lda     _y
	and     #$F0
	clc
	adc     _temp2
	sta     _index
;
; buffer_4_mt(address, index); // ppu_address, index to the data
;
	lda     _address
	ldx     _address+1
	jsr     pushax
	lda     _index
	jsr     _buffer_4_mt
;
; address = get_ppu_addr(nt, draw_screen_sub_lookup_addr_1[scroll_count], y);
;
	jsr     decsp2
	lda     _nt
	ldy     #$01
	sta     (sp),y
	ldy     _scroll_count
	lda     _draw_screen_sub_lookup_addr_1,y
	ldy     #$00
	sta     (sp),y
	lda     _y
	jsr     _get_ppu_addr
	sta     _address
	stx     _address+1
;
; index = (y & 0xf0) + temp4;
;
	lda     _y
	and     #$F0
	clc
	adc     _temp4
	sta     _index
;
; buffer_4_mt(address, index); // ppu_address, index to the data
;
	lda     _address
	ldx     _address+1
	jsr     pushax
	lda     _index
	jsr     _buffer_4_mt
;
; ++scroll_count;
;
	inc     _scroll_count
;
; scroll_count &= 3; //mask off top bits, keep it 0-3
;
	lda     _scroll_count
	and     #$03
	sta     _scroll_count
;
; }
;
	rts

.endproc

; ---------------------------------------------------------------
; void __near__ begin_level (void)
; ---------------------------------------------------------------

.segment	"CODE"

.proc	_begin_level: near

.segment	"CODE"

;
; ppu_off(); // We're going to make big changes to VRAM so we need to turn it off.
;
	jsr     _ppu_off
;
; game_mode = MODE_GAME;
;
	lda     #$01
	sta     _game_mode
;
; SET_STATUS_ALIVE();
;
	lda     _player_flags
	and     #$FD
	sta     _player_flags
;
; load_level_new();
;
	jsr     _load_level_new
;
; seed_rng();
;
	jsr     _seed_rng
;
; calculate_shuffle_array();
;
	jsr     _calculate_shuffle_array
;
; energy = MAX_ENERGY;
;
	lda     #$70
	sta     _energy
;
; ppu_on_all();
;
	jmp     _ppu_on_all

.endproc

; ---------------------------------------------------------------
; void __near__ load_level_new (void)
; ---------------------------------------------------------------

.segment	"CODE"

.proc	_load_level_new: near

.segment	"CODE"

;
; player_flags = 0; 
;
	lda     #$00
	sta     _player_flags
;
; scroll_count = 0; 
;
	sta     _scroll_count
;
; nt_max = level_nt_length[level_index];
;
	ldy     _level_index
	lda     _level_nt_length,y
	sta     _nt_max
;
; nt_current = valrigard_starting_nt[level_index];
;
	ldy     _level_index
	lda     _valrigard_starting_nt,y
	sta     _nt_current
;
; high_byte(scroll_y) = nt_current; // The high byte of scroll_y is the nametable we're currently in (0-255).
;
	sta     _scroll_y+1
;
; low_byte(scroll_y) = 2;
;
	lda     #$02
	sta     _scroll_y
;
; high_byte(max_scroll_y) = nt_max - 1; // bottom of this level
;
	lda     _nt_max
	sec
	sbc     #$01
	sta     _max_scroll_y+1
;
; low_byte(max_scroll_y) = 2;
;
	lda     #$02
	sta     _max_scroll_y
;
; high_byte(min_scroll_y) = 0; // Min Scroll
;
	lda     #$00
	sta     _min_scroll_y+1
;
; low_byte(min_scroll_y) = 0x02;
;
	lda     #$02
	sta     _min_scroll_y
;
; initial_scroll = ((nt_current * 0x100) - 0x11);
;
	ldx     _nt_current
	lda     #$00
	sec
	sbc     #$11
	bcs     L0838
	dex
L0838:	sta     _initial_scroll
	stx     _initial_scroll+1
;
; temp4 = valrigard_inital_coords[level_index];
;
	ldy     _level_index
	lda     _valrigard_inital_coords,y
	sta     _temp4
;
; high_byte(valrigard.x) = (temp4 & 0xf0);
;
	and     #$F0
	sta     _valrigard+1
;
; high_byte(valrigard.y) = ((temp4 & 0x0f) * 16);
;
	lda     _temp4
	and     #$0F
	asl     a
	asl     a
	asl     a
	asl     a
	sta     _valrigard+3
;
; set_prg_bank(level_nametable_banks[level_index]);
;
	ldy     _level_index
	lda     _level_nametable_banks,y
	jsr     _set_prg_bank
;
; for (x = 0; x < nt_max; ++x) {
;
	lda     #$00
	sta     _x
	tax
L10AA:	lda     _x
	cmp     _nt_max
	bcs     L10AB
;
; load_room_new();
;
	jsr     _load_room_new
;
; for (x = 0; x < nt_max; ++x) {
;
	ldx     #$00
	inc     _x
	jmp     L10AA
;
; set_data_pointer(cmaps[nt_current]);
;
L10AB:	lda     _nt_current
	asl     a
	bcc     L10A7
	inx
	clc
L10A7:	adc     #<(_cmaps)
	sta     ptr1
	txa
	adc     #>(_cmaps)
	sta     ptr1+1
	ldy     #$01
	lda     (ptr1),y
	tax
	dey
	lda     (ptr1),y
	jsr     _set_data_pointer
;
; set_mt_pointer(metatiles);
;
	lda     #<(_metatiles)
	ldx     #>(_metatiles)
	jsr     _set_mt_pointer
;
; temp1 = high_byte(initial_scroll) + 1;
;
	lda     _initial_scroll+1
	clc
	adc     #$01
	sta     _temp1
;
; temp1 = (temp1 & 1) << 1;
;
	and     #$01
	asl     a
	sta     _temp1
;
; for(y=0; ;y+=0x20){
;
	lda     #$00
L10A4:	sta     _y
;
; for(x=0; ;x+=0x20){
;
	lda     #$00
L10A3:	sta     _x
;
; clear_vram_buffer(); // do each frame, and before putting anything in the buffer
;
	jsr     _clear_vram_buffer
;
; address = get_ppu_addr(temp1, x, y);
;
	jsr     decsp2
	lda     _temp1
	ldy     #$01
	sta     (sp),y
	lda     _x
	dey
	sta     (sp),y
	lda     _y
	jsr     _get_ppu_addr
	sta     _address
	stx     _address+1
;
; index = (y & 0xf0) + (x >> 4);
;
	lda     _y
	and     #$F0
	sta     ptr1
	lda     _x
	lsr     a
	lsr     a
	lsr     a
	lsr     a
	clc
	adc     ptr1
	sta     _index
;
; buffer_4_mt(address, index); // ppu_address, index to the data
;
	lda     _address
	ldx     _address+1
	jsr     pushax
	lda     _index
	jsr     _buffer_4_mt
;
; flush_vram_update_nmi();
;
	jsr     _flush_vram_update_nmi
;
; if (x == 0xe0) break;
;
	lda     _x
	cmp     #$E0
	beq     L10AC
;
; for(x=0; ;x+=0x20){
;
	lda     #$20
	clc
	adc     _x
	jmp     L10A3
;
; if (y == 0xe0) break;
;
L10AC:	lda     _y
	cmp     #$E0
	beq     L10AD
;
; for(y=0; ;y+=0x20){
;
	lda     #$20
	clc
	adc     _y
	jmp     L10A4
;
; temp1 = temp1 ^ 2; // flip that 0000 0010 bit
;
L10AD:	lda     _temp1
	eor     #$02
	sta     _temp1
;
; temp0 = nt_current == 0 ? nt_current + 1 : nt_current - 1;
;
	lda     _nt_current
	bne     L10AE
	clc
	adc     #$01
	jmp     L10AF
L10AE:	lda     _nt_current
	sec
	sbc     #$01
L10AF:	sta     _temp0
;
; set_data_pointer(cmaps[temp0]);
;
	ldx     #$00
	lda     _temp0
	asl     a
	bcc     L10A8
	inx
	clc
L10A8:	adc     #<(_cmaps)
	sta     ptr1
	txa
	adc     #>(_cmaps)
	sta     ptr1+1
	ldy     #$01
	lda     (ptr1),y
	tax
	dey
	lda     (ptr1),y
	jsr     _set_data_pointer
;
; for(x=0; ;x+=0x20){
;
	lda     #$00
L10A5:	sta     _x
;
; y = 0xe0;
;
	lda     #$E0
	sta     _y
;
; clear_vram_buffer(); // do each frame, and before putting anything in the buffer
;
	jsr     _clear_vram_buffer
;
; address = get_ppu_addr(temp1, x, y);
;
	jsr     decsp2
	lda     _temp1
	ldy     #$01
	sta     (sp),y
	lda     _x
	dey
	sta     (sp),y
	lda     _y
	jsr     _get_ppu_addr
	sta     _address
	stx     _address+1
;
; index = (y & 0xf0) + (x >> 4);
;
	lda     _y
	and     #$F0
	sta     ptr1
	lda     _x
	lsr     a
	lsr     a
	lsr     a
	lsr     a
	clc
	adc     ptr1
	sta     _index
;
; buffer_4_mt(address, index); // ppu_address, index to the data
;
	lda     _address
	ldx     _address+1
	jsr     pushax
	lda     _index
	jsr     _buffer_4_mt
;
; flush_vram_update_nmi();
;
	jsr     _flush_vram_update_nmi
;
; if (x == 0xe0) break;
;
	lda     _x
	cmp     #$E0
	beq     L088F
;
; for(x=0; ;x+=0x20){
;
	lda     #$20
	clc
	adc     _x
	jmp     L10A5
;
; clear_vram_buffer();
;
L088F:	jsr     _clear_vram_buffer
;
; memfill(&enemies, 0, sizeof(enemies));
;
	jsr     decsp3
	lda     #<(_enemies)
	ldy     #$01
	sta     (sp),y
	iny
	lda     #>(_enemies)
	sta     (sp),y
	lda     #$00
	tay
	sta     (sp),y
	ldx     #$01
	lda     #$21
	jsr     _memfill
;
; temppointer = level_enemy_data[level_index];
;
	ldx     #$00
	lda     _level_index
	asl     a
	bcc     L10A9
	inx
	clc
L10A9:	adc     #<(_level_enemy_data)
	sta     ptr1
	txa
	adc     #>(_level_enemy_data)
	sta     ptr1+1
	ldy     #$01
	lda     (ptr1),y
	sta     _temppointer+1
	dey
	lda     (ptr1),y
	sta     _temppointer
;
; for (x = 0, y = 0; x < MAX_ENEMIES; ++x){
;
	tya
	sta     _x
	sta     _y
L10B0:	lda     _x
	cmp     #$20
	jcs     L10B3
;
; enemies.y[x] = 0;
;
	ldy     _x
	lda     #$00
	sta     _enemies+32,y
;
; temp1 = temppointer[y]; // Get a byte of data - the bitpacked coords.
;
	lda     _temppointer
	ldx     _temppointer+1
	ldy     _y
	sta     ptr1
	stx     ptr1+1
	lda     (ptr1),y
	sta     _temp1
;
; if (temp1 == 0xff) break; // 0xff terminates the enemy data.
;
	cmp     #$FF
	jeq     L10B3
;
; enemies.x[x] = temp1 & 0xf0;
;
	lda     #<(_enemies)
	ldx     #>(_enemies)
	clc
	adc     _x
	bcc     L08C6
	inx
L08C6:	sta     ptr1
	stx     ptr1+1
	lda     _temp1
	and     #$F0
	ldy     #$00
	sta     (ptr1),y
;
; enemies.actual_y[x] = (temp1 & 0x0f) << 4;
;
	lda     #<(_enemies+64)
	ldx     #>(_enemies+64)
	clc
	adc     _x
	bcc     L08CA
	inx
L08CA:	sta     ptr1
	stx     ptr1+1
	lda     _temp1
	and     #$0F
	asl     a
	asl     a
	asl     a
	asl     a
	sta     (ptr1),y
;
; ++y; // Next byte:
;
	inc     _y
;
; temp1 = temppointer[y]; // the namtetable byte.
;
	lda     _temppointer
	ldx     _temppointer+1
	ldy     _y
	sta     ptr1
	stx     ptr1+1
	lda     (ptr1),y
	sta     _temp1
;
; enemies.nt[x] = temp1;
;
	ldy     _x
	lda     _temp1
	sta     _enemies+96,y
;
; ++y; // Next byte:
;
	inc     _y
;
; temp1 = temppointer[y]; // the type byte.
;
	lda     _temppointer
	ldx     _temppointer+1
	ldy     _y
	sta     ptr1
	stx     ptr1+1
	lda     (ptr1),y
	sta     _temp1
;
; enemies.type[x] = temp1; 
;
	ldy     _x
	lda     _temp1
	sta     _enemies+160,y
;
; temp1 = GET_ENEMY_TYPE(x);
;
	ldy     _x
	lda     _enemies+160,y
	sta     _temp1
;
; if (temp1 == 4) { // ENEMY_CANNON
;
	cmp     #$04
	bne     L10B1
;
; ++x;
;
	inc     _x
;
; enemies.type[x] = ENEMY_CANNONBALL;
;
	ldy     _x
	lda     #$09
	sta     _enemies+160,y
;
; } else if (temp1 == 5) { // ENEMY_ACIDPOOL
;
	jmp     L10B2
L10B1:	lda     _temp1
	cmp     #$05
	bne     L10B2
;
; ++x;
;
	inc     _x
;
; enemies.type[x] = ENEMY_ACIDDROP;
;
	ldy     _x
	lda     #$0A
	sta     _enemies+160,y
;
; enemies.extra[x] = rand8() & 0b01111111;
;
	lda     #<(_enemies+192)
	ldx     #>(_enemies+192)
	clc
	adc     _x
	bcc     L08F3
	inx
L08F3:	jsr     pushax
	jsr     _rand8
	and     #$7F
	ldy     #$00
	jsr     staspidx
;
; enemies.extra[x] += 128;
;
	lda     #<(_enemies+192)
	ldx     #>(_enemies+192)
	clc
	adc     _x
	bcc     L08F7
	inx
L08F7:	sta     ptr1
	stx     ptr1+1
	ldy     #$00
	lda     (ptr1),y
	clc
	adc     #$80
	sta     (ptr1),y
;
; ++y; // Next byte.
;
L10B2:	inc     _y
;
; for (x = 0, y = 0; x < MAX_ENEMIES; ++x){
;
	inc     _x
	jmp     L10B0
;
; enemies.count = x+1;
;
L10B3:	lda     _x
	clc
	adc     #$01
	sta     _enemies+288
;
; for(++x; x < MAX_ENEMIES; ++x) {
;
L10B7:	inc     _x
	lda     _x
	cmp     #$20
	bcs     L10B4
;
; enemies.type[x] = ENEMY_NONE;
;
	ldy     _x
	lda     #$00
	sta     _enemies+160,y
;
; for(++x; x < MAX_ENEMIES; ++x) {
;
	jmp     L10B7
;
; for (x = 0; x < enemies.count; ++x) {
;
L10B4:	lda     #$00
	sta     _x
	tax
L10B5:	lda     _x
	cmp     _enemies+288
	txa
	sbc     #$00
	bcs     L0909
;
; switch (GET_ENEMY_TYPE(x)) {
;
	ldy     _x
	lda     _enemies+160,y
;
; }
;
	cmp     #$04
	beq     L091D
	cmp     #$05
	bne     L10B6
;
; enemies.timer[x] = 0b10000000;
;
	ldy     _x
	lda     #$80
	sta     _enemies+256,y
;
; enemies.timer[x] += rand8() & 0b01111111;
;
L091D:	lda     #<(_enemies+256)
	ldx     #>(_enemies+256)
	clc
	adc     _x
	bcc     L0920
	inx
L0920:	jsr     pushax
	sta     ptr1
	stx     ptr1+1
	ldx     #$00
	lda     (ptr1,x)
	jsr     pusha0
	jsr     _rand8
	and     #$7F
	jsr     tosadda0
	ldy     #$00
	jsr     staspidx
;
; for (x = 0; x < enemies.count; ++x) {
;
	ldx     #$00
L10B6:	inc     _x
	jmp     L10B5
;
; }
;
L0909:	rts

.endproc

; ---------------------------------------------------------------
; void __near__ load_room_new (void)
; ---------------------------------------------------------------

.segment	"CODE"

.proc	_load_room_new: near

.segment	"CODE"

;
; temppointer = level_nametable_pointers[level_index][x];
;
	ldx     #$00
	lda     _level_index
	asl     a
	bcc     L10BB
	inx
	clc
L10BB:	adc     #<(_level_nametable_pointers)
	sta     ptr1
	txa
	adc     #>(_level_nametable_pointers)
	sta     ptr1+1
	ldy     #$01
	lda     (ptr1),y
	tax
	dey
	lda     (ptr1),y
	sta     ptr1
	stx     ptr1+1
	ldx     #$00
	lda     _x
	asl     a
	bcc     L10BC
	inx
	clc
L10BC:	adc     ptr1
	sta     ptr1
	txa
	adc     ptr1+1
	sta     ptr1+1
	iny
	lda     (ptr1),y
	sta     _temppointer+1
	dey
	lda     (ptr1),y
	sta     _temppointer
;
; memcpy(cmaps[x], temppointer, 240);
;
	ldx     #$00
	lda     _x
	asl     a
	bcc     L10BD
	inx
	clc
L10BD:	adc     #<(_cmaps)
	sta     ptr1
	txa
	adc     #>(_cmaps)
	sta     ptr1+1
	iny
	lda     (ptr1),y
	tax
	dey
	lda     (ptr1),y
	jsr     pushax
	lda     _temppointer
	ldx     _temppointer+1
	jsr     pushax
	ldx     #$00
	lda     #$F0
	jmp     _memcpy

.endproc

; ---------------------------------------------------------------
; void __near__ calculate_shuffle_array (void)
; ---------------------------------------------------------------

.segment	"CODE"

.proc	_calculate_shuffle_array: near

.segment	"CODE"

;
; temp0 = 0; // Index in the shuffle array
;
	lda     #$00
	sta     _temp0
;
; for (x = 0; x < enemies.count; ++x) {
;
	sta     _x
	tax
L10C2:	lda     _x
	cmp     _enemies+288
	txa
	sbc     #$00
	bcs     L10C3
;
; shuffle_array[temp0] = x;
;
	ldy     _temp0
	lda     _x
	sta     _shuffle_array,y
;
; ++temp0;
;
	inc     _temp0
;
; for (x = 0; x < enemies.count; ++x) {
;
	inc     _x
	jmp     L10C2
;
; for (x = enemies.count - 1; ; --x) {
;
L10C3:	lda     _enemies+288
	sec
	sbc     #$01
	sta     _x
;
; shuffle_array[temp0] = x;
;
L0940:	ldy     _temp0
	lda     _x
	sta     _shuffle_array,y
;
; ++temp0;
;
	inc     _temp0
;
; if (x == 0) { break; }
;
	lda     _x
	beq     L10BE
;
; for (x = enemies.count - 1; ; --x) {
;
	dec     _x
	jmp     L0940
;
; for (x = 0; x < enemies.count; x += 2){
;
L10BE:	sta     _x
	ldx     #$00
	lda     _x
	cmp     _enemies+288
	bcs     L10C5
;
; shuffle_array[temp0] = x;
;
	ldy     _temp0
	lda     _x
	sta     _shuffle_array,y
;
; ++temp0;
;
	inc     _temp0
;
; for (x = 0; x < enemies.count; x += 2){
;
	lda     #$02
	clc
	adc     _x
	jmp     L10BE
;
; for (x = 1; x < enemies.count; x += 2){
;
L10C5:	lda     #$01
L10BF:	sta     _x
	cmp     _enemies+288
	txa
	sbc     #$00
	bcs     L10C6
;
; shuffle_array[temp0] = x;
;
	ldy     _temp0
	lda     _x
	sta     _shuffle_array,y
;
; ++temp0;
;
	inc     _temp0
;
; for (x = 1; x < enemies.count; x += 2){
;
	lda     #$02
	clc
	adc     _x
	jmp     L10BF
;
; for (x = enemies.count - 1; ; x -= 2) {
;
L10C6:	lda     _enemies+288
	sec
	sbc     #$01
L10C0:	sta     _x
;
; shuffle_array[temp0] = x;
;
	ldy     _temp0
	lda     _x
	sta     _shuffle_array,y
;
; ++temp0;
;
	inc     _temp0
;
; if (x < 2) { break; }
;
	lda     _x
	cmp     #$02
	bcc     L10C7
;
; for (x = enemies.count - 1; ; x -= 2) {
;
	sec
	sbc     #$02
	jmp     L10C0
;
; for (x = enemies.count - 2; ; x -= 2) {
;
L10C7:	lda     _enemies+288
L10CA:	sec
	sbc     #$02
	sta     _x
;
; shuffle_array[temp0] = x;
;
	ldy     _temp0
	lda     _x
	sta     _shuffle_array,y
;
; ++temp0;
;
	inc     _temp0
;
; if (x < 2) { break; }
;
	lda     _x
	cmp     #$02
	bcc     L10C8
;
; for (x = enemies.count - 2; ; x -= 2) {
;
	jmp     L10CA
;
; shuffle_offset = 0; 
;
L10C8:	lda     #$00
	sta     _shuffle_offset
;
; shuffle_maximum = 4 * enemies.count; // Set the size of the calculated portion of the shuffle array.
;
	lda     _enemies+288
	asl     a
	asl     a
	sta     _shuffle_maximum
;
; }
;
	rts

.endproc

; ---------------------------------------------------------------
; void __near__ load_title_screen (void)
; ---------------------------------------------------------------

.segment	"CODE"

.proc	_load_title_screen: near

.segment	"CODE"

;
; vram_adr(NTADR_A(3, 2));
;
	ldx     #$20
	lda     #$43
	jsr     _vram_adr
;
; x = 0;
;
	lda     #$00
	sta     _x
;
; while(title_string[x]) {
;
	jmp     L07BB
;
; vram_put(title_string[x]);
;
L07B9:	ldy     _x
	lda     _title_string,y
	jsr     _vram_put
;
; ++x;
;
	inc     _x
;
; while(title_string[x]) {
;
L07BB:	ldy     _x
	lda     _title_string,y
	bne     L07B9
;
; vram_adr(NTADR_A(3, 4));
;
	ldx     #$20
	lda     #$83
	jsr     _vram_adr
;
; x = 0;
;
	lda     #$00
	sta     _x
;
; while(author_string[x]) {
;
	jmp     L07CF
;
; vram_put(author_string[x]);
;
L07CD:	ldy     _x
	lda     _author_string,y
	jsr     _vram_put
;
; ++x;
;
	inc     _x
;
; while(author_string[x]) {
;
L07CF:	ldy     _x
	lda     _author_string,y
	bne     L07CD
;
; vram_adr(NTADR_A(3, 6));
;
	ldx     #$20
	lda     #$C3
	jsr     _vram_adr
;
; x = 0;
;
	lda     #$00
	sta     _x
;
; while(instruction_string[x]) {
;
	jmp     L07E3
;
; vram_put(instruction_string[x]);
;
L07E1:	ldy     _x
	lda     _instruction_string,y
	jsr     _vram_put
;
; ++x;
;
	inc     _x
;
; while(instruction_string[x]) {
;
L07E3:	ldy     _x
	lda     _instruction_string,y
	bne     L07E1
;
; }
;
	rts

.endproc

; ---------------------------------------------------------------
; void __near__ load_game_over_screen (void)
; ---------------------------------------------------------------

.segment	"CODE"

.proc	_load_game_over_screen: near

.segment	"CODE"

;
; ppu_off();
;
	jsr     _ppu_off
;
; clear_screen();
;
	jsr     _clear_screen
;
; game_mode = MODE_GAME_OVER;
;
	lda     #$04
	sta     _game_mode
;
; vram_adr(NTADR_A(3, 6));
;
	ldx     #$20
	lda     #$C3
	jsr     _vram_adr
;
; x = 0;
;
	lda     #$00
	sta     _x
;
; while (game_over_string[x]) {
;
	jmp     L07FD
;
; vram_put(game_over_string[x]);
;
L07FB:	ldy     _x
	lda     _game_over_string,y
	jsr     _vram_put
;
; ++x;
;
	inc     _x
;
; while (game_over_string[x]) {
;
L07FD:	ldy     _x
	lda     _game_over_string,y
	bne     L07FB
;
; ppu_on_all();
;
	jmp     _ppu_on_all

.endproc

; ---------------------------------------------------------------
; void __near__ clear_screen (void)
; ---------------------------------------------------------------

.segment	"CODE"

.proc	_clear_screen: near

.segment	"CODE"

;
; oam_clear();
;
	jsr     _oam_clear
;
; clear_vram_buffer();
;
	jsr     _clear_vram_buffer
;
; set_scroll_y(0);
;
	ldx     #$00
	txa
	jsr     _set_scroll_y
;
; vram_adr(NAMETABLE_A);
;
	ldx     #$20
	lda     #$00
	jsr     _vram_adr
;
; vram_fill(0,1024);
;
	lda     #$00
	jsr     pusha
	ldx     #$04
	jmp     _vram_fill

.endproc

; ---------------------------------------------------------------
; void __near__ movement (void)
; ---------------------------------------------------------------

.segment	"CODE"

.proc	_movement: near

.segment	"CODE"

;
; old_x = valrigard.x;
;
	lda     _valrigard+1
	sta     _old_x+1
	lda     _valrigard
	sta     _old_x
;
; if (pad1 & PAD_LEFT) {
;
	lda     _pad1
	and     #$02
	beq     L10CD
;
; SET_DIRECTION_LEFT();
;
	lda     _player_flags
	and     #$FE
	sta     _player_flags
;
; if (valrigard.x <= 0x0200) { // Changed by 1 from nesdoug's example because Valrigard's hitbox is narrower by 1 pixel on both sides
;
	lda     _valrigard+1
	cmp     #$02
	bne     L0AB8
	lda     _valrigard
	cmp     #$01
L0AB8:	bcs     L0AB6
;
; valrigard.velocity_x = 0;
;
	lda     #$00
	sta     _valrigard+4
	sta     _valrigard+4+1
;
; valrigard.x = 0x200;
;
	ldx     #$02
	sta     _valrigard
	stx     _valrigard+1
;
; } else if (valrigard.x < 0x0600) { // Don't allow us to wrap to the other side
;
	jmp     L0AD9
L0AB6:	ldx     _valrigard+1
	cpx     #$06
	bcs     L0ABE
;
; valrigard.velocity_x = -0x100;
;
	ldx     #$FF
	lda     #$00
;
; } else {
;
	jmp     L10CF
;
; valrigard.velocity_x = -SPEED;
;
L0ABE:	ldx     #$FE
	lda     #$B0
;
; else if (pad1 & PAD_RIGHT){
;
	jmp     L10CF
L10CD:	lda     _pad1
	ldx     #$00
	and     #$01
	beq     L10CF
;
; SET_DIRECTION_RIGHT();
;
	lda     _player_flags
	ora     #$01
	sta     _player_flags
;
; if (valrigard.x >= 0xf000) {  // Also changed by 1 from nesdoug's example because Valrigard's hitbox is narrower by 1 pixel on both sides
;
	lda     _valrigard
	cmp     #$00
	lda     _valrigard+1
	sbc     #$F0
	bcc     L0ACB
;
; valrigard.velocity_x = 0;
;
	txa
	sta     _valrigard+4
	sta     _valrigard+4+1
;
; valrigard.x = 0xf000; // ...and we'd add 0x100 to this constant here (and the 0x200 in the PAD_LEFT block would be a 0x100)
;
	ldx     #$F0
	sta     _valrigard
	stx     _valrigard+1
;
; } else if (valrigard.x > 0xec00) { // Don't allow us to wrap to the other side
;
	jmp     L0AD9
L0ACB:	lda     _valrigard
	cmp     #$01
	lda     _valrigard+1
	sbc     #$EC
	bcc     L0AD2
;
; valrigard.velocity_x = 0x100;
;
	inx
	lda     #$00
;
; } else {
;
	jmp     L10CF
;
; valrigard.velocity_x = SPEED;
;
L0AD2:	inx
	lda     #$50
;
; valrigard.velocity_x = 0;
;
L10CF:	sta     _valrigard+4
	stx     _valrigard+4+1
;
; valrigard.x += valrigard.velocity_x;
;
L0AD9:	lda     _valrigard+4
	clc
	adc     _valrigard
	sta     _valrigard
	lda     _valrigard+4+1
	adc     _valrigard+1
	sta     _valrigard+1
;
; if((valrigard.x < 0x100)||(valrigard.x > 0xf800)) { // make sure no wrap around to the other side
;
	ldx     _valrigard+1
	cpx     #$01
	bcc     L10D0
	lda     _valrigard
	cmp     #$01
	lda     _valrigard+1
	sbc     #$F8
	bcc     L10D1
;
; valrigard.x = 0x100;
;
L10D0:	ldx     #$01
	lda     #$00
	sta     _valrigard
	stx     _valrigard+1
;
; L_R_switch = 1; // Shrinks the Y values in bg_coll. This makes head/foot collisions less problematic (examine this)
;
L10D1:	lda     #$01
	sta     _L_R_switch
;
; hitbox.x = high_byte(valrigard.x);
;
	lda     _valrigard+1
	sta     _hitbox
;
; hitbox.y = high_byte(valrigard.y);
;
	lda     _valrigard+3
	sta     _hitbox+1
;
; hitbox.width = VALRIGARD_WIDTH;
;
	lda     #$0B
	sta     _hitbox+2
;
; hitbox.height = VALRIGARD_HEIGHT;
;
	lda     #$0D
	sta     _hitbox+3
;
; bg_collision();
;
	jsr     _bg_collision
;
; if (collision_L && collision_R) { // Half-stuck in a wall, I'm guessing?
;
	lda     _collision_L
	beq     L0AF2
	lda     _collision_R
	beq     L0AF2
;
; valrigard.x = old_x;
;
	lda     _old_x+1
	sta     _valrigard+1
	lda     _old_x
	sta     _valrigard
;
; else if (collision_L) {
;
	jmp     L0AFF
L0AF2:	lda     _collision_L
	beq     L0AF9
;
; high_byte(valrigard.x) -= eject_L;
;
	lda     _eject_L
;
; else if (collision_R) {
;
	jmp     L10DC
L0AF9:	lda     _collision_R
	beq     L0AFF
;
; high_byte(valrigard.x) -= eject_R;
;
	lda     _eject_R
L10DC:	eor     #$FF
	sec
	adc     _valrigard+1
	sta     _valrigard+1
;
; old_y = valrigard.y;
;
L0AFF:	lda     _valrigard+2+1
	sta     _old_y+1
	lda     _valrigard+2
	sta     _old_y
;
; if (pad1 & PAD_UP && energy > 0) { // If we're holding up on the DPad...
;
	lda     _pad1
	and     #$08
	beq     L0B06
	lda     _energy
	beq     L0B06
;
; valrigard.velocity_y -= GRAVITY;
;
	lda     _valrigard+6
	sec
	sbc     #$30
	sta     _valrigard+6
	bcs     L0B0C
	dec     _valrigard+6+1
;
; if (valrigard.velocity_y < -SPEED) valrigard.velocity_y = -SPEED;
;
L0B0C:	lda     _valrigard+6
	cmp     #$B0
	lda     _valrigard+6+1
	sbc     #$FE
	bvc     L0B0F
	eor     #$80
L0B0F:	bpl     L10D5
	ldx     #$FE
	lda     #$B0
	sta     _valrigard+6
	stx     _valrigard+6+1
;
; energy -= 1;
;
L10D5:	dec     _energy
;
; } else {
;
	jmp     L0B18
;
; valrigard.velocity_y += GRAVITY;
;
L0B06:	lda     #$30
	clc
	adc     _valrigard+6
	sta     _valrigard+6
	bcc     L0B17
	inc     _valrigard+6+1
;
; if (valrigard.velocity_y > MAX_FALL) valrigard.velocity_y = MAX_FALL;
;
L0B17:	lda     _valrigard+6
	cmp     #$51
	lda     _valrigard+6+1
	sbc     #$01
	bvs     L0B1A
	eor     #$80
L0B1A:	bpl     L0B18
	ldx     #$01
	lda     #$50
	sta     _valrigard+6
	stx     _valrigard+6+1
;
; valrigard.y += valrigard.velocity_y;
;
L0B18:	lda     _valrigard+6
	clc
	adc     _valrigard+2
	sta     _valrigard+2
	lda     _valrigard+6+1
	adc     _valrigard+2+1
	sta     _valrigard+2+1
;
; if (valrigard.y < 0x100)  valrigard.y = 0x100;
;
	ldx     _valrigard+2+1
	cpx     #$01
	bcs     L0B1F
	ldx     #$01
	lda     #$00
	sta     _valrigard+2
	stx     _valrigard+2+1
;
; if (valrigard.y > 0xf000) valrigard.y = 0xf000;
;
L0B1F:	lda     _valrigard+2
	cmp     #$01
	lda     _valrigard+2+1
	sbc     #$F0
	lda     #$00
	bcc     L10D7
	ldx     #$F0
	sta     _valrigard+2
	stx     _valrigard+2+1
;
; L_R_switch = 0;
;
L10D7:	sta     _L_R_switch
;
; hitbox.x = high_byte(valrigard.x);
;
	lda     _valrigard+1
	sta     _hitbox
;
; hitbox.y = high_byte(valrigard.y);
;
	lda     _valrigard+3
	sta     _hitbox+1
;
; bg_collision();
;
	jsr     _bg_collision
;
; if(collision_U) {
;
	lda     _collision_U
	beq     L0B30
;
; high_byte(valrigard.y) -= eject_U;
;
	lda     _eject_U
	eor     #$FF
	sec
	adc     _valrigard+3
	sta     _valrigard+3
;
; else if (collision_D) {
;
	jmp     L0B3D
L0B30:	lda     _collision_D
	beq     L0B3D
;
; high_byte(valrigard.y) -= eject_D;
;
	lda     _eject_D
	eor     #$FF
	sec
	adc     _valrigard+3
	sta     _valrigard+3
;
; energy += 4;
;
	lda     #$04
	clc
	adc     _energy
	sta     _energy
;
; if (energy > MAX_ENERGY) energy = MAX_ENERGY;
;
	cmp     #$71
	bcc     L0B3D
	lda     #$70
	sta     _energy
;
; temp5 = valrigard.y;
;
L0B3D:	lda     _valrigard+2+1
	sta     _temp5+1
	lda     _valrigard+2
	sta     _temp5
;
; if (valrigard.y < MAX_UP && scroll_y > min_scroll_y) {
;
	ldx     _valrigard+2+1
	cpx     #$40
	bcs     L0B43
	lda     _scroll_y
	sec
	sbc     _min_scroll_y
	sta     tmp1
	lda     _scroll_y+1
	sbc     _min_scroll_y+1
	ora     tmp1
	beq     L0B43
	bcc     L0B43
;
; temp1 = (MAX_UP - valrigard.y + 0x80) >> 8; // "the numbers work better with +80 (like 0.5)". I'll take his word for it.
;
	lda     #$00
	sec
	sbc     _valrigard+2
	pha
	lda     #$40
	sbc     _valrigard+2+1
	tax
	pla
	clc
	adc     #$80
	bcc     L0B4A
	inx
L0B4A:	txa
	sta     _temp1
;
; scroll_y = sub_scroll_y(temp1, scroll_y);
;
	jsr     pusha
	lda     _scroll_y
	ldx     _scroll_y+1
	jsr     _sub_scroll_y
	sta     _scroll_y
	stx     _scroll_y+1
;
; high_byte(valrigard.y) += temp1;
;
	lda     _temp1
	clc
	adc     _valrigard+3
	sta     _valrigard+3
;
; if (valrigard.y > MIN_DOWN && scroll_y < max_scroll_y) {
;
L0B43:	lda     _valrigard+2
	cmp     #$01
	lda     _valrigard+2+1
	sbc     #$80
	bcc     L10D9
	lda     _scroll_y
	cmp     _max_scroll_y
	lda     _scroll_y+1
	sbc     _max_scroll_y+1
	bcc     L0B53
L10D9:	rts
;
; temp1 = (MIN_DOWN + valrigard.y + 0x80) >> 8;
;
L0B53:	lda     _valrigard+2
	pha
	lda     _valrigard+2+1
	clc
	adc     #$80
	tax
	pla
	clc
	adc     #$80
	bcc     L0B59
	inx
L0B59:	txa
	sta     _temp1
;
; scroll_y = add_scroll_y(temp1, scroll_y);
;
	jsr     pusha
	lda     _scroll_y
	ldx     _scroll_y+1
	jsr     _add_scroll_y
	sta     _scroll_y
	stx     _scroll_y+1
;
; high_byte(valrigard.y) -= temp1;
;
	lda     _temp1
	eor     #$FF
	sec
	adc     _valrigard+3
	sta     _valrigard+3
;
; }
;
	rts

.endproc

; ---------------------------------------------------------------
; void __near__ swing_sword (void)
; ---------------------------------------------------------------

.segment	"CODE"

.proc	_swing_sword: near

.segment	"CODE"

;
; if ((pad1 & PAD_A) && !player_sword_timer && !(pad1 & PAD_UP)) {
;
	lda     _pad1
	and     #$80
	beq     L0B62
	lda     _player_sword_timer
	bne     L0B62
	lda     _pad1
	and     #$08
	bne     L0B62
;
; player_sword_timer = 37;
;
	lda     #$25
	sta     _player_sword_timer
;
; player_frame_timer = 14;
;
	lda     #$0E
	sta     _player_frame_timer
;
; SET_STATUS_SWINGING_SWORD();
;
	lda     _player_flags
	ora     #$04
	sta     _player_flags
;
; if (player_sword_timer) { 
;
L0B62:	lda     _player_sword_timer
	beq     L10E0
;
; --player_sword_timer;
;
	dec     _player_sword_timer
;
; } else {
;
	rts
;
; SET_STATUS_NOT_SWINGING_SWORD();
;
L10E0:	lda     _player_flags
	and     #$FB
	sta     _player_flags
;
; }
;
	rts

.endproc

; ---------------------------------------------------------------
; void __near__ bg_collision (void)
; ---------------------------------------------------------------

.segment	"CODE"

.proc	_bg_collision: near

.segment	"CODE"

;
; collision_L = 0;
;
	lda     #$00
	sta     _collision_L
;
; collision_R = 0;
;
	sta     _collision_R
;
; collision_U = 0;
;
	sta     _collision_U
;
; collision_D = 0;
;
	sta     _collision_D
;
; temp3 = hitbox.y;
;
	lda     _hitbox+1
	sta     _temp3
;
; if(L_R_switch) temp3 += 2; // fix bug, walking through walls
;
	lda     _L_R_switch
	beq     L10E2
	lda     #$02
	clc
	adc     _temp3
	sta     _temp3
;
; if(temp3 >= 0xf0) return;
;
L10E2:	lda     _temp3
	cmp     #$F0
	bcc     L10E3
;
; }
;
	rts
;
; temp5 = add_scroll_y(temp3, scroll_y); // upper left
;
L10E3:	jsr     pusha
	lda     _scroll_y
	ldx     _scroll_y+1
	jsr     _add_scroll_y
	sta     _temp5
	stx     _temp5+1
;
; temp3 = temp5 & 0xff; // low byte y
;
	sta     _temp3
;
; temp1 = hitbox.x; // x left
;
	lda     _hitbox
	sta     _temp1
;
; eject_L = temp1 | 0xf0;
;
	ora     #$F0
	sta     _eject_L
;
; eject_U = temp3 | 0xf0;
;
	lda     _temp3
	ora     #$F0
	sta     _eject_U
;
; bg_collision_sub();
;
	jsr     _bg_collision_sub
;
; if(collision){ // find a corner in the collision map
;
	lda     _collision
	beq     L0B94
;
; ++collision_L;
;
	inc     _collision_L
;
; ++collision_U;
;
	inc     _collision_U
;
; temp1 += hitbox.width; // x right
;
L0B94:	lda     _hitbox+2
	clc
	adc     _temp1
	sta     _temp1
;
; eject_R = (temp1 + 1) & 0x0f;
;
	clc
	adc     #$01
	and     #$0F
	sta     _eject_R
;
; bg_collision_sub();
;
	jsr     _bg_collision_sub
;
; if(collision){ // find a corner in the collision map
;
	lda     _collision
	beq     L0B9F
;
; ++collision_R;
;
	inc     _collision_R
;
; ++collision_U;
;
	inc     _collision_U
;
; temp3 = hitbox.y + hitbox.height; // y bottom
;
L0B9F:	lda     _hitbox+1
	clc
	adc     _hitbox+3
	sta     _temp3
;
; if(L_R_switch) temp3 -= 2; // fix bug, walking through walls
;
	lda     _L_R_switch
	beq     L0BA5
	lda     _temp3
	sec
	sbc     #$02
	sta     _temp3
;
; temp5 = add_scroll_y(temp3, scroll_y); // upper left
;
L0BA5:	lda     _temp3
	jsr     pusha
	lda     _scroll_y
	ldx     _scroll_y+1
	jsr     _add_scroll_y
	sta     _temp5
	stx     _temp5+1
;
; temp3 = temp5 & 0xff; // low byte y
;
	sta     _temp3
;
; eject_D = (temp3 + 1) & 0x0f;
;
	clc
	adc     #$01
	and     #$0F
	sta     _eject_D
;
; if(temp3 >= 0xf0) return;
;
	lda     _temp3
	cmp     #$F0
	bcs     L0BBD
;
; bg_collision_sub();
;
	jsr     _bg_collision_sub
;
; if(collision){ // find a corner in the collision map
;
	lda     _collision
	beq     L0BB6
;
; ++collision_R;
;
	inc     _collision_R
;
; ++collision_D;
;
	inc     _collision_D
;
; temp1 = hitbox.x; // x left
;
L0BB6:	lda     _hitbox
	sta     _temp1
;
; bg_collision_sub();
;
	jsr     _bg_collision_sub
;
; if(collision){ // find a corner in the collision map
;
	lda     _collision
	beq     L0BBD
;
; ++collision_L;
;
	inc     _collision_L
;
; ++collision_D;
;
	inc     _collision_D
;
; }
;
L0BBD:	rts

.endproc

; ---------------------------------------------------------------
; void __near__ bg_collision_sub (void)
; ---------------------------------------------------------------

.segment	"CODE"

.proc	_bg_collision_sub: near

.segment	"CODE"

;
; coordinates = (temp1 >> 4) + (temp3 & 0xf0); 
;
	lda     _temp1
	lsr     a
	lsr     a
	lsr     a
	lsr     a
	sta     ptr1
	lda     _temp3
	and     #$F0
	clc
	adc     ptr1
	sta     _coordinates
;
; temppointer = cmaps[high_byte(temp5)];
;
	ldx     #$00
	lda     _temp5+1
	asl     a
	bcc     L10E8
	inx
	clc
L10E8:	adc     #<(_cmaps)
	sta     ptr1
	txa
	adc     #>(_cmaps)
	sta     ptr1+1
	ldy     #$01
	lda     (ptr1),y
	tax
	dey
	lda     (ptr1),y
	sta     _temppointer
	stx     _temppointer+1
;
; temp4 = temppointer[coordinates];
;
	ldy     _coordinates
	sta     ptr1
	stx     ptr1+1
	lda     (ptr1),y
	sta     _temp4
;
; temp_mutablepointer = (char *)&(temppointer[coordinates]);
;
	lda     _temppointer
	ldx     _temppointer+1
	clc
	adc     _coordinates
	bcc     L10E5
	inx
L10E5:	sta     _temp_mutablepointer
	stx     _temp_mutablepointer+1
;
; temp0 = metatile_property_lookup_table[temp4];
;
	ldy     _temp4
	lda     _metatile_property_lookup_table,y
	sta     _temp0
;
; collision = METATILE_IS_SOLID(temp4); // 0x17 is the first non-solid tile, so if the tile is less than that, it's a collision
;
	ldy     _temp4
	lda     _metatile_property_lookup_table,y
	and     #$01
	sta     _collision
;
; if (temp0 == METATILE_NO_EFFECT || temp0 == METATILE_SOLID) { return; }
;
	lda     _temp0
	beq     L10EA
	cmp     #$01
	bne     L10EB
L10EA:	rts
;
; if (temp0 & METATILE_SPIKES) {
;
L10EB:	lda     _temp0
	and     #$02
	beq     L10EC
;
; SET_STATUS_DEAD();
;
	lda     _player_flags
	ora     #$02
	sta     _player_flags
;
; } else if (temp0 & METATILE_POWERUP) {
;
	rts
L10EC:	lda     _temp0
	and     #$40
	beq     L10EE
;
; *temp_mutablepointer = EMPTY_TILE;
;
	lda     _temp_mutablepointer+1
	sta     ptr1+1
	lda     _temp_mutablepointer
	sta     ptr1
	lda     #$2C
	ldy     #$00
	sta     (ptr1),y
;
; if (temp4 == STAR_TILE) { score += 1; }
;
	lda     _temp4
	cmp     #$2A
	bne     L10ED
	inc     _score
	bne     L0BED
	inc     _score+1
;
; else if (temp4 == ENERGY_REFILL_TILE) { energy = MAX_ENERGY; }
;
	jmp     L0BED
L10ED:	lda     _temp4
	cmp     #$2B
	bne     L0BED
	lda     #$70
	sta     _energy
;
; address = get_ppu_addr(nt, temp1, temp3 & 0xf0);
;
L0BED:	jsr     decsp2
	lda     _nt
	iny
	sta     (sp),y
	lda     _temp1
	dey
	sta     (sp),y
	lda     _temp3
	and     #$F0
	jsr     _get_ppu_addr
	sta     _address
	stx     _address+1
;
; buffer_1_mt(address, EMPTY_TILE);
;
	jsr     pushax
	lda     #$2C
	jmp     _buffer_1_mt
;
; } else if (temp0 & METATILE_CONVEYOR_LEFT) {
;
L10EE:	lda     _temp0
	and     #$04
	beq     L10EF
;
; valrigard.x -= 0x0080;
;
	lda     _valrigard
	sec
	sbc     #$80
	sta     _valrigard
	bcs     L0BFE
	dec     _valrigard+1
;
; } else if (temp0 & METATILE_CONVEYOR_RIGHT) {
;
L0BFE:	rts
L10EF:	lda     _temp0
	and     #$08
	beq     L10F0
;
; valrigard.x += 0x0080;
;
	lda     #$80
	clc
	adc     _valrigard
	sta     _valrigard
	bcc     L0C04
	inc     _valrigard+1
;
; } else if (temp0 & METATILE_YELLOW_DOOR) {
;
L0C04:	rts
L10F0:	lda     _temp0
	and     #$10
	beq     L10F1
;
; if (pad1 & PAD_UP) {
;
	lda     _pad1
	and     #$08
;
; } else if (temp0 & METATILE_RED_DOOR) {
;
	jmp     L10F4
L10F1:	lda     _temp0
	and     #$20
L10F4:	beq     L0C0D
;
; game_mode = MODE_GAME_OVER;
;
	lda     #$04
	sta     _game_mode
;
; }
;
L0C0D:	rts

.endproc

; ---------------------------------------------------------------
; void __near__ check_spr_objects (void)
; ---------------------------------------------------------------

.segment	"CODE"

.proc	_check_spr_objects: near

.segment	"CODE"

;
; nt_current = high_byte(scroll_y);
;
	lda     _scroll_y+1
	sta     _nt_current
;
; for (x = 0; x < enemies.count; ++x) {
;
	lda     #$00
	sta     _x
	tax
L10F7:	lda     _x
	cmp     _enemies+288
	txa
	sbc     #$00
	bcc     L10F9
;
; }
;
	rts
;
; if (GET_ENEMY_TYPE(x) == 0 /*ENEMY_NONE*/) continue; 
;
L10F9:	ldy     _x
	lda     _enemies+160,y
	jeq     L10F8
;
; high_byte(temp5) = enemies.nt[x];
;
	ldy     _x
	lda     _enemies+96,y
	sta     _temp5+1
;
; low_byte(temp5) = enemies.actual_y[x];
;
	ldy     _x
	lda     _enemies+64,y
	sta     _temp5
;
; temp5 -= scroll_y;
;
	lda     _scroll_y
	eor     #$FF
	sec
	adc     _temp5
	sta     _temp5
	lda     _scroll_y+1
	eor     #$FF
	adc     _temp5+1
	sta     _temp5+1
;
; if (high_byte(temp5)) {
;
	lda     _temp5+1
	beq     L0C6B
;
; DEACTIVATE_ENEMY(x);
;
	lda     #<(_enemies+128)
	ldx     #>(_enemies+128)
	clc
	adc     _x
	bcc     L0C71
	inx
L0C71:	sta     ptr1
	stx     ptr1+1
	ldy     #$00
	lda     (ptr1),y
	and     #$7F
;
; continue;
;
	jmp     L10F6
;
; ACTIVATE_ENEMY(x); // This enemy is active if it's on-screen.
;
L0C6B:	lda     #<(_enemies+128)
	ldx     #>(_enemies+128)
	clc
	adc     _x
	bcc     L0C76
	inx
L0C76:	sta     ptr1
	stx     ptr1+1
	ldy     #$00
	lda     (ptr1),y
	ora     #$80
	sta     (ptr1),y
;
; enemies.y[x] = temp5 & 0xff;
;
	lda     #<(_enemies+32)
	ldx     #>(_enemies+32)
	clc
	adc     _x
	bcc     L0C7A
	inx
L0C7A:	sta     ptr1
	stx     ptr1+1
	lda     _temp5
	sta     (ptr1),y
;
; if (nt_current != enemies.nt[x]) enemies.y[x] -= 16;
;
	ldy     _x
	ldx     #$00
	lda     _enemies+96,y
	cmp     _nt_current
	beq     L10F8
	lda     #<(_enemies+32)
	ldx     #>(_enemies+32)
	clc
	adc     _x
	bcc     L0C82
	inx
L0C82:	sta     ptr1
	stx     ptr1+1
	ldy     #$00
	lda     (ptr1),y
	sec
	sbc     #$10
L10F6:	sta     (ptr1),y
;
; for (x = 0; x < enemies.count; ++x) {
;
	ldx     #$00
L10F8:	inc     _x
	jmp     L10F7

.endproc

; ---------------------------------------------------------------
; void __near__ sprite_collisions (void)
; ---------------------------------------------------------------

.segment	"CODE"

.proc	_sprite_collisions: near

.segment	"CODE"

;
; hitbox.x = high_byte(valrigard.x);
;
	lda     _valrigard+1
	sta     _hitbox
;
; hitbox.y = high_byte(valrigard.y);
;
	lda     _valrigard+3
	sta     _hitbox+1
;
; if (IS_SWINGING_SWORD) {
;
	lda     _player_flags
	and     #$04
	beq     L10FB
;
; hitbox.width = VALRIGARD_SWINGING_WIDTH;
;
	lda     #$0F
	sta     _hitbox+2
;
; } else {
;
	jmp     L10FA
;
; hitbox.width = VALRIGARD_WIDTH;
;
L10FB:	lda     #$0B
	sta     _hitbox+2
;
; hitbox.height = VALRIGARD_HEIGHT;    
;
	lda     #$0D
L10FA:	sta     _hitbox+3
;
; for (x = 0; x < enemies.count; ++x) {
;
	lda     #$00
	sta     _x
	tax
L10FC:	lda     _x
	cmp     _enemies+288
	txa
	sbc     #$00
	bcs     L0CBD
;
; if(IS_ENEMY_ACTIVE(x)) {
;
	ldy     _x
	lda     _enemies+128,y
	and     #$80
	beq     L10FD
;
; temp1 = GET_ENEMY_TYPE(x);
;
	ldy     _x
	lda     _enemies+160,y
	sta     _temp1
;
; hitbox2.width = enemy_hitbox_width_lookup_table[temp1];
;
	ldy     _temp1
	lda     _enemy_hitbox_width_lookup_table,y
	sta     _hitbox2+2
;
; if (!hitbox2.width) { continue; } // Continue if width of the hitbox is 0.
;
	lda     _hitbox2+2
	beq     L10FD
;
; hitbox2.height = enemy_hitbox_height_lookup_table[temp1];
;
	ldy     _temp1
	lda     _enemy_hitbox_height_lookup_table,y
	sta     _hitbox2+3
;
; hitbox2.x = enemies.x[x];
;
	ldy     _x
	lda     _enemies,y
	sta     _hitbox2
;
; hitbox2.y = enemies.y[x];
;
	ldy     _x
	lda     _enemies+32,y
	sta     _hitbox2+1
;
; if (check_collision(&hitbox, &hitbox2)) {
;
	lda     #<(_hitbox)
	ldx     #>(_hitbox)
	jsr     pushax
	lda     #<(_hitbox2)
	ldx     #>(_hitbox2)
	jsr     _check_collision
	tax
	beq     L10FD
;
; AsmCallFunctionAtPtrOffsetByIndexVar(collision_functions, temp1);
;
	lda     _temp1
	asl     a
	tay
	lda     _collision_functions,y
	ldx     _collision_functions+1,y
	jsr     callax
;
; for (x = 0; x < enemies.count; ++x) {
;
	ldx     #$00
L10FD:	inc     _x
	jmp     L10FC
;
; }
;
L0CBD:	rts

.endproc

; ---------------------------------------------------------------
; void __near__ collision_with_inert (void)
; ---------------------------------------------------------------

.segment	"CODE"

.proc	_collision_with_inert: near

.segment	"CODE"

;
; void collision_with_inert(void) { }
;
	rts

.endproc

; ---------------------------------------------------------------
; void __near__ collision_with_killable_slashable (void)
; ---------------------------------------------------------------

.segment	"CODE"

.proc	_collision_with_killable_slashable: near

.segment	"CODE"

;
; if (!IS_SWINGING_SWORD) { 
;
	lda     _player_flags
	and     #$04
	bne     L0CF2
;
; SET_STATUS_DEAD();
;
	lda     _player_flags
	ora     #$02
	sta     _player_flags
;
; else {
;
	rts
;
; enemies.type[x] = ENEMY_PURPLE_DEATH_EFFECT;
;
L0CF2:	ldy     _x
	lda     #$0B
	sta     _enemies+160,y
;
; enemies.timer[x] = 12;
;
	ldy     _x
	lda     #$0C
	sta     _enemies+256,y
;
; score += 1; // Add to the score 
;
	inc     _score
	bne     L0D03
	inc     _score+1
;
; }
;
L0D03:	rts

.endproc

; ---------------------------------------------------------------
; void __near__ collision_with_inert_slashable (void)
; ---------------------------------------------------------------

.segment	"CODE"

.proc	_collision_with_inert_slashable: near

.segment	"CODE"

;
; if (IS_SWINGING_SWORD && !SLASHABLE_UNKILLABLE_IS_SLASHED(x)) { 
;
	lda     _player_flags
	and     #$04
	beq     L10FF
	ldy     _x
	lda     _enemies+128,y
	and     #$20
	beq     L1100
L10FF:	rts
;
; SLASHABLE_UNKILLABLE_SET_SLASHED(x);
;
L1100:	lda     #<(_enemies+128)
	ldx     #>(_enemies+128)
	clc
	adc     _x
	bcc     L0D10
	inx
L0D10:	sta     ptr1
	stx     ptr1+1
	ldy     #$00
	lda     (ptr1),y
	ora     #$20
	sta     (ptr1),y
;
; score += 1;
;
	inc     _score
	bne     L0D14
	inc     _score+1
;
; }
;
L0D14:	rts

.endproc

; ---------------------------------------------------------------
; void __near__ collision_with_unkillable_unslashable (void)
; ---------------------------------------------------------------

.segment	"CODE"

.proc	_collision_with_unkillable_unslashable: near

.segment	"CODE"

;
; SET_STATUS_DEAD();
;
	lda     _player_flags
	ora     #$02
	sta     _player_flags
;
; }
;
	rts

.endproc

; ---------------------------------------------------------------
; void __near__ collision_with_splyke (void)
; ---------------------------------------------------------------

.segment	"CODE"

.proc	_collision_with_splyke: near

.segment	"CODE"

;
; if (!IS_SWINGING_SWORD) { // Not swinging the sword?
;
	lda     _player_flags
	and     #$04
	bne     L0D1A
;
; SET_STATUS_DEAD();
;
	lda     _player_flags
	ora     #$02
	sta     _player_flags
;
; } else if (!SPLYKE_IS_MOVING_AROUND(x)){ // Not tornado:
;
	rts
L0D1A:	ldy     _x
	lda     _enemies+128,y
	and     #$20
	bne     L0D21
;
; enemies.type[x] = ENEMY_SPLYKE_DEATH_EFFECT;
;
	ldy     _x
	lda     #$0C
	sta     _enemies+160,y
;
; enemies.timer[x] = 12;
;
	ldy     _x
	sta     _enemies+256,y
;
; score += 1;
;
	inc     _score
	bne     L0D21
	inc     _score+1
;
; }
;
L0D21:	rts

.endproc

; ---------------------------------------------------------------
; void __near__ collision_with_boss (void)
; ---------------------------------------------------------------

.segment	"CODE"

.proc	_collision_with_boss: near

.segment	"CODE"

;
; }
;
	rts

.endproc

; ---------------------------------------------------------------
; void __near__ enemy_movement (void)
; ---------------------------------------------------------------

.segment	"CODE"

.proc	_enemy_movement: near

.segment	"CODE"

;
; for (x = 0; x < enemies.count; ++x) {
;
	lda     #$00
	sta     _x
	tax
L1101:	lda     _x
	cmp     _enemies+288
	txa
	sbc     #$00
	bcs     L0D41
;
; if (IS_ENEMY_ACTIVE(x)) {
;
	ldy     _x
	lda     _enemies+128,y
	and     #$80
	beq     L1102
;
; temp1 = GET_ENEMY_TYPE(x);
;
	ldy     _x
	lda     _enemies+160,y
	sta     _temp1
;
; AsmCallFunctionAtPtrOffsetByIndexVar(ai_pointers, temp1);
;
	asl     a
	tay
	lda     _ai_pointers,y
	ldx     _ai_pointers+1,y
	jsr     callax
;
; for (x = 0; x < enemies.count; ++x) {
;
	ldx     #$00
L1102:	inc     _x
	jmp     L1101
;
; }
;
L0D41:	rts

.endproc

; ---------------------------------------------------------------
; void __near__ korbat_ai (void)
; ---------------------------------------------------------------

.segment	"CODE"

.proc	_korbat_ai: near

.segment	"CODE"

;
; temp3 = ENEMY_DIRECTION(x);
;
	ldy     _x
	lda     _enemies+128,y
	and     #$01
	sta     _temp3
;
; temp1 = enemies.x[x];
;
	ldy     _x
	lda     _enemies,y
	sta     _temp1
;
; temp1 += leftright_movement_offset_lookup_table[temp3];
;
	ldy     _temp3
	lda     _leftright_movement_offset_lookup_table,y
	clc
	adc     _temp1
	sta     _temp1
;
; temp2 = enemies.actual_y[x] + 6; // center y
;
	ldy     _x
	lda     _enemies+64,y
	clc
	adc     #$06
	sta     _temp2
;
; coordinates = (temp1 >> 4) + (temp2 & 0xf0); 
;
	lda     _temp1
	lsr     a
	lsr     a
	lsr     a
	lsr     a
	sta     ptr1
	lda     _temp2
	and     #$F0
	clc
	adc     ptr1
	sta     _coordinates
;
; temp0 = enemies.nt[x];
;
	ldy     _x
	lda     _enemies+96,y
	sta     _temp0
;
; temppointer = cmaps[temp0];
;
	ldx     #$00
	lda     _temp0
	asl     a
	bcc     L1106
	inx
	clc
L1106:	adc     #<(_cmaps)
	sta     ptr1
	txa
	adc     #>(_cmaps)
	sta     ptr1+1
	ldy     #$01
	lda     (ptr1),y
	tax
	dey
	lda     (ptr1),y
	sta     _temppointer
	stx     _temppointer+1
;
; collision = temppointer[coordinates];
;
	ldy     _coordinates
	sta     ptr1
	stx     ptr1+1
	lda     (ptr1),y
	sta     _collision
;
; if (METATILE_IS_SOLID(collision)) {
;
	ldy     _collision
	lda     _metatile_property_lookup_table,y
	and     #$01
	beq     L0D7F
;
; ENEMY_FLIP_DIRECTION(x);
;
	lda     #<(_enemies+128)
	ldx     #>(_enemies+128)
	clc
	adc     _x
	bcc     L0D87
	inx
L0D87:	sta     ptr1
	stx     ptr1+1
	ldy     #$00
	lda     (ptr1),y
	eor     #$01
	sta     (ptr1),y
;
; temp3 ^= 1;
;
	lda     _temp3
	eor     #$01
	sta     _temp3
;
; temp1 = leftright_movement_moving_lookup_table[temp3];
;
L0D7F:	ldy     _temp3
	lda     _leftright_movement_moving_lookup_table,y
	sta     _temp1
;
; enemies.x[x] += temp1;
;
	lda     #<(_enemies)
	ldx     #>(_enemies)
	clc
	adc     _x
	bcc     L0D91
	inx
L0D91:	jsr     pushax
	sta     ptr1
	stx     ptr1+1
	ldy     #$00
	lda     (ptr1),y
	clc
	adc     _temp1
	jmp     staspidx

.endproc

; ---------------------------------------------------------------
; void __near__ spikeball_ai (void)
; ---------------------------------------------------------------

.segment	"CODE"

.proc	_spikeball_ai: near

.segment	"CODE"

;
; temp3 = ENEMY_DIRECTION(x);
;
	ldy     _x
	lda     _enemies+128,y
	and     #$01
	sta     _temp3
;
; temp1 = enemies.x[x];
;
	ldy     _x
	lda     _enemies,y
	sta     _temp1
;
; temp1 += leftright_movement_offset_lookup_table[temp3];
;
	ldy     _temp3
	lda     _leftright_movement_offset_lookup_table,y
	clc
	adc     _temp1
	sta     _temp1
;
; temp2 = enemies.actual_y[x] + 18; // Y beneath us
;
	ldy     _x
	lda     _enemies+64,y
	clc
	adc     #$12
	sta     _temp2
;
; coordinates = (temp1 >> 4) + (temp2 & 0xf0); 
;
	lda     _temp1
	lsr     a
	lsr     a
	lsr     a
	lsr     a
	sta     ptr1
	lda     _temp2
	and     #$F0
	clc
	adc     ptr1
	sta     _coordinates
;
; temp4 = temp2 >> 4;
;
	lda     _temp2
	lsr     a
	lsr     a
	lsr     a
	lsr     a
	sta     _temp4
;
; if (temp4 == 0xf) {
;
	cmp     #$0F
	bne     L0DAC
;
; temp4 = enemies.nt[x] + 1;
;
	ldy     _x
	lda     _enemies+96,y
	clc
	adc     #$01
;
; } else {
;
	jmp     L110D
;
; temp4 = enemies.nt[x];
;
L0DAC:	ldy     _x
	lda     _enemies+96,y
L110D:	sta     _temp4
;
; temppointer = cmaps[temp4];
;
	ldx     #$00
	lda     _temp4
	asl     a
	bcc     L110E
	inx
	clc
L110E:	adc     #<(_cmaps)
	sta     ptr1
	txa
	adc     #>(_cmaps)
	sta     ptr1+1
	ldy     #$01
	lda     (ptr1),y
	tax
	dey
	lda     (ptr1),y
	sta     _temppointer
	stx     _temppointer+1
;
; collision = temppointer[coordinates];
;
	ldy     _coordinates
	sta     ptr1
	stx     ptr1+1
	lda     (ptr1),y
	sta     _collision
;
; if (!METATILE_IS_SOLID(collision)) {
;
	ldy     _collision
	lda     _metatile_property_lookup_table,y
	and     #$01
	bne     L0DBE
;
; ENEMY_FLIP_DIRECTION(x);
;
	lda     #<(_enemies+128)
	ldx     #>(_enemies+128)
	clc
	adc     _x
	bcc     L0DC6
	inx
L0DC6:	sta     ptr1
	stx     ptr1+1
	ldy     #$00
	lda     (ptr1),y
	eor     #$01
	sta     (ptr1),y
;
; temp3 ^= 1;
;
	lda     _temp3
	eor     #$01
	sta     _temp3
;
; temp2 = enemies.actual_y[x] + 6; // center y
;
L0DBE:	ldy     _x
	lda     _enemies+64,y
	clc
	adc     #$06
	sta     _temp2
;
; coordinates = (temp1 >> 4) + (temp2 & 0xf0); 
;
	lda     _temp1
	lsr     a
	lsr     a
	lsr     a
	lsr     a
	sta     ptr1
	lda     _temp2
	and     #$F0
	clc
	adc     ptr1
	sta     _coordinates
;
; temp4 = enemies.nt[x];
;
	ldy     _x
	lda     _enemies+96,y
	sta     _temp4
;
; temppointer = cmaps[temp4];
;
	ldx     #$00
	lda     _temp4
	asl     a
	bcc     L110F
	inx
	clc
L110F:	adc     #<(_cmaps)
	sta     ptr1
	txa
	adc     #>(_cmaps)
	sta     ptr1+1
	ldy     #$01
	lda     (ptr1),y
	tax
	dey
	lda     (ptr1),y
	sta     _temppointer
	stx     _temppointer+1
;
; collision = temppointer[coordinates];
;
	ldy     _coordinates
	sta     ptr1
	stx     ptr1+1
	lda     (ptr1),y
	sta     _collision
;
; if (METATILE_IS_SOLID(collision)) {
;
	ldy     _collision
	lda     _metatile_property_lookup_table,y
	and     #$01
	beq     L0DDD
;
; ENEMY_FLIP_DIRECTION(x);
;
	lda     #<(_enemies+128)
	ldx     #>(_enemies+128)
	clc
	adc     _x
	bcc     L0DE5
	inx
L0DE5:	sta     ptr1
	stx     ptr1+1
	ldy     #$00
	lda     (ptr1),y
	eor     #$01
	sta     (ptr1),y
;
; temp3 ^= 1;
;
	lda     _temp3
	eor     #$01
	sta     _temp3
;
; temp1 = leftright_movement_moving_lookup_table[temp3];
;
L0DDD:	ldy     _temp3
	lda     _leftright_movement_moving_lookup_table,y
	sta     _temp1
;
; enemies.x[x] += temp1;
;
	lda     #<(_enemies)
	ldx     #>(_enemies)
	clc
	adc     _x
	bcc     L0DEF
	inx
L0DEF:	jsr     pushax
	sta     ptr1
	stx     ptr1+1
	ldy     #$00
	lda     (ptr1),y
	clc
	adc     _temp1
	jmp     staspidx

.endproc

; ---------------------------------------------------------------
; void __near__ cannon_ai (void)
; ---------------------------------------------------------------

.segment	"CODE"

.proc	_cannon_ai: near

.segment	"CODE"

;
; if (IS_ENEMY_ACTIVE(x+1)) { return; }
;
	ldx     #$00
	lda     _x
	clc
	adc     #$01
	bcc     L0E80
	inx
L0E80:	sta     ptr1
	txa
	clc
	adc     #>(_enemies+128)
	sta     ptr1+1
	ldy     #<(_enemies+128)
	lda     (ptr1),y
	and     #$80
	beq     L1123
;
; }
;
	rts
;
; if (--enemies.timer[x] == 20) { 
;
L1123:	lda     #<(_enemies+256)
	ldx     #>(_enemies+256)
	clc
	adc     _x
	bcc     L0E84
	inx
L0E84:	sta     ptr1
	stx     ptr1+1
	ldy     #$00
	lda     (ptr1),y
	sec
	sbc     #$01
	sta     (ptr1),y
	cmp     #$14
	jne     L0E81
;
; if (!(enemies.extra2[x] & 0xf0)) {
;
	ldy     _x
	lda     _enemies+224,y
	and     #$F0
	jne     L0E81
;
; temp0 = high_byte(valrigard.x) + (VALRIGARD_WIDTH/2);
;
	lda     _valrigard+1
	clc
	adc     #$05
	sta     _temp0
;
; temp1 = high_byte(valrigard.y) + 4; // Tweaked for maximum accuracy - may need to be tweaked more.
;
	lda     _valrigard+3
	clc
	adc     #$04
	sta     _temp1
;
; temp2 = enemies.x[x] + 6; // ENEMY_WIDTH/2
;
	ldy     _x
	lda     _enemies,y
	clc
	adc     #$06
	sta     _temp2
;
; temp3 = enemies.y[x] + 6; // ENEMY_HEIGHT/2
;
	ldy     _x
	lda     _enemies+32,y
	clc
	adc     #$06
	sta     _temp3
;
; temp4 = 0;
;
	lda     #$00
	sta     _temp4
;
; if (temp0 < temp2) {
;
	tax
	lda     _temp0
	cmp     _temp2
	bcs     L111E
;
; CANNONBALL_SET_NEG_X(x+1);
;
	lda     _x
	clc
	adc     #$01
	bcc     L1115
	inx
	clc
L1115:	adc     #<(_enemies+128)
	sta     ptr1
	txa
	adc     #>(_enemies+128)
	sta     ptr1+1
	ldy     #$00
	ldx     #$00
	lda     (ptr1),y
	and     #$BF
	sta     (ptr1),y
;
; } else {
;
	jmp     L111F
;
; CANNONBALL_SET_POS_X(x+1);
;
L111E:	lda     _x
	clc
	adc     #$01
	bcc     L1116
	inx
	clc
L1116:	adc     #<(_enemies+128)
	sta     ptr1
	txa
	adc     #>(_enemies+128)
	sta     ptr1+1
	ldy     #$00
	lda     (ptr1),y
	ora     #$40
	sta     (ptr1),y
;
; ++temp4;
;
	inc     _temp4
;
; if (temp1 < temp3) {
;
	ldx     #$00
L111F:	lda     _temp1
	cmp     _temp3
	bcs     L1120
;
; CANNONBALL_SET_NEG_Y(x+1);
;
	lda     _x
	clc
	adc     #$01
	bcc     L1117
	inx
	clc
L1117:	adc     #<(_enemies+128)
	sta     ptr1
	txa
	adc     #>(_enemies+128)
	sta     ptr1+1
	lda     (ptr1),y
	and     #$DF
	sta     (ptr1),y
;
; } else {
;
	jmp     L0EB4
;
; CANNONBALL_SET_POS_Y(x+1);
;
L1120:	lda     _x
	clc
	adc     #$01
	bcc     L1118
	inx
	clc
L1118:	adc     #<(_enemies+128)
	sta     ptr1
	txa
	adc     #>(_enemies+128)
	sta     ptr1+1
	lda     (ptr1),y
	ora     #$20
	sta     (ptr1),y
;
; temp4 += 0b10;
;
	lda     #$02
	clc
	adc     _temp4
	sta     _temp4
;
; temp0 = abs_subtract(temp0, temp2);
;
L0EB4:	lda     _temp0
	jsr     pusha
	lda     _temp2
	jsr     _abs_subtract
	sta     _temp0
;
; if ((temp0 & 0x0f) > 8) { temp0 += 0x10; } // Round metatile x up.
;
	and     #$0F
	cmp     #$09
	bcc     L0EC0
	lda     #$10
	clc
	adc     _temp0
	sta     _temp0
;
; temp1 = abs_subtract(temp1, temp3);
;
L0EC0:	lda     _temp1
	jsr     pusha
	lda     _temp3
	jsr     _abs_subtract
	sta     _temp1
;
; coordinates = (temp1 & 0xf0) + (temp0 >> 4);
;
	and     #$F0
	sta     ptr1
	lda     _temp0
	lsr     a
	lsr     a
	lsr     a
	lsr     a
	clc
	adc     ptr1
	sta     _coordinates
;
; temp2 = brads_lookup(coordinates);
;
	jsr     _brads_lookup
	sta     _temp2
;
; enemies.extra[x] = temp2;
;
	ldy     _x
	lda     _temp2
	sta     _enemies+192,y
;
; temppointer = cannon_sprite_quadrant_lookup_table[temp4];
;
	ldx     #$00
	lda     _temp4
	asl     a
	bcc     L1119
	inx
	clc
L1119:	adc     #<(_cannon_sprite_quadrant_lookup_table)
	sta     ptr1
	txa
	adc     #>(_cannon_sprite_quadrant_lookup_table)
	sta     ptr1+1
	ldy     #$01
	lda     (ptr1),y
	sta     _temppointer+1
	dey
	lda     (ptr1),y
	sta     _temppointer
;
; if (temp2 > 0x30) { // over 0x30 brads
;
	lda     _temp2
	cmp     #$31
	bcc     L1121
;
; temp3 = temppointer[2]; // y-axis aligned
;
	lda     _temppointer+1
	sta     ptr1+1
	lda     _temppointer
	sta     ptr1
	ldy     #$02
;
; } else if (temp2 > 0x10) { // over 0x10 brads
;
	jmp     L1122
L1121:	lda     _temp2
	cmp     #$11
	bcc     L0EDD
;
; temp3 = temppointer[1]; // diagonal
;
	lda     _temppointer+1
	sta     ptr1+1
	lda     _temppointer
	sta     ptr1
	iny
;
; } else { // 0x10 or fewer brads
;
	jmp     L1122
;
; temp3 = temppointer[0]; // x-axis aligned
;
L0EDD:	lda     _temppointer+1
	sta     ptr1+1
	lda     _temppointer
	sta     ptr1
L1122:	lda     (ptr1),y
	sta     _temp3
;
; enemies.extra2[x] = temp3;
;
	ldy     _x
	lda     _temp3
	sta     _enemies+224,y
;
; if (enemies.timer[x] == 0) {
;
L0E81:	ldy     _x
	lda     _enemies+256,y
	beq     L1124
;
; }
;
	rts
;
; enemies.timer[x] = 120;
;
L1124:	ldy     _x
	lda     #$78
	sta     _enemies+256,y
;
; temp0 = enemies.x[x] + 3;
;
	ldy     _x
	lda     _enemies,y
	clc
	adc     #$03
	sta     _temp0
;
; temp1 = enemies.actual_y[x] + 3;
;
	ldy     _x
	lda     _enemies+64,y
	clc
	adc     #$03
	sta     _temp1
;
; temp2 = enemies.nt[x];
;
	ldy     _x
	lda     _enemies+96,y
	sta     _temp2
;
; enemies.x[x+1] = temp0;
;
	ldx     #$00
	lda     _x
	clc
	adc     #$01
	bcc     L111A
	inx
	clc
L111A:	adc     #<(_enemies)
	sta     ptr1
	txa
	adc     #>(_enemies)
	sta     ptr1+1
	lda     _temp0
	ldy     #$00
	sta     (ptr1),y
;
; enemies.actual_y[x+1] = temp1;
;
	ldx     #$00
	lda     _x
	clc
	adc     #$01
	bcc     L111B
	inx
	clc
L111B:	adc     #<(_enemies+64)
	sta     ptr1
	txa
	adc     #>(_enemies+64)
	sta     ptr1+1
	lda     _temp1
	sta     (ptr1),y
;
; enemies.nt[x+1] = temp2;
;
	ldx     #$00
	lda     _x
	clc
	adc     #$01
	bcc     L111C
	inx
	clc
L111C:	adc     #<(_enemies+96)
	sta     ptr1
	txa
	adc     #>(_enemies+96)
	sta     ptr1+1
	lda     _temp2
	sta     (ptr1),y
;
; enemies.type[x+1] = ENEMY_CANNONBALL;
;
	ldx     #$00
	lda     _x
	clc
	adc     #$01
	bcc     L111D
	inx
	clc
L111D:	adc     #<(_enemies+160)
	sta     ptr1
	txa
	adc     #>(_enemies+160)
	sta     ptr1+1
	lda     #$09
	sta     (ptr1),y
;
; }
;
	rts

.endproc

; ---------------------------------------------------------------
; void __near__ cannonball_ai (void)
; ---------------------------------------------------------------

.segment	"CODE"

.proc	_cannonball_ai: near

.segment	"CODE"

;
; temp1 = enemies.extra[x - 1];
;
	ldx     #$00
	lda     _x
	sec
	sbc     #$01
	bcs     L0F14
	dex
L0F14:	sta     ptr1
	txa
	clc
	adc     #>(_enemies+192)
	sta     ptr1+1
	ldy     #<(_enemies+192)
	lda     (ptr1),y
	sta     _temp1
;
; temp2 = cos_lookup(temp1);
;
	jsr     _cos_lookup
	sta     _temp2
;
; temp3 = sin_lookup(temp1);
;
	lda     _temp1
	jsr     _sin_lookup
	sta     _temp3
;
; high_byte(temp5) = enemies.x[x];
;
	ldy     _x
	lda     _enemies,y
	sta     _temp5+1
;
; low_byte(temp5) = enemies.extra[x];
;
	ldy     _x
	lda     _enemies+192,y
	sta     _temp5
;
; if (CANNONBALL_X_DIRECTION(x)) {
;
	ldy     _x
	lda     _enemies+128,y
	and     #$40
	beq     L112A
;
; temp5 += temp2;
;
	lda     _temp2
	clc
	adc     _temp5
	sta     _temp5
	lda     #$00
	adc     _temp5+1
	sta     _temp5+1
;
; temp1 = high_byte(temp5) + 7;
;
	clc
	adc     #$07
;
; } else {
;
	jmp     L1127
;
; temp5 -= temp2;
;
L112A:	lda     _temp2
	eor     #$FF
	sec
	adc     _temp5
	sta     _temp5
	lda     #$FF
	adc     _temp5+1
	sta     _temp5+1
;
; temp1 = high_byte(temp5) + 0xff;
;
	clc
	adc     #$FF
L1127:	sta     _temp1
;
; enemies.x[x] = high_byte(temp5);
;
	ldy     _x
	lda     _temp5+1
	sta     _enemies,y
;
; enemies.extra[x] = low_byte(temp5);
;
	ldy     _x
	lda     _temp5
	sta     _enemies+192,y
;
; high_byte(temp6) = enemies.actual_y[x];
;
	ldy     _x
	lda     _enemies+64,y
	sta     _temp6+1
;
; low_byte(temp6) = enemies.extra2[x];
;
	ldy     _x
	lda     _enemies+224,y
	sta     _temp6
;
; if (CANNONBALL_Y_DIRECTION(x)) {
;
	ldy     _x
	lda     _enemies+128,y
	and     #$20
	beq     L112B
;
; temp6 += temp3;
;
	lda     _temp3
	clc
	adc     _temp6
	sta     _temp6
	lda     #$00
	adc     _temp6+1
	sta     _temp6+1
;
; enemies.extra2[x] = low_byte(temp6);
;
	ldy     _x
	lda     _temp6
	sta     _enemies+224,y
;
; low_byte(temp6) = high_byte(temp6);
;
	lda     _temp6+1
	sta     _temp6
;
; high_byte(temp6) = enemies.nt[x];
;
	ldy     _x
	lda     _enemies+96,y
	sta     _temp6+1
;
; temp6 = add_scroll_y(0x00, temp6);
;
	lda     #$00
	jsr     pusha
	lda     _temp6
	ldx     _temp6+1
	jsr     _add_scroll_y
	sta     _temp6
	stx     _temp6+1
;
; enemies.nt[x] = high_byte(temp6);
;
	ldy     _x
	lda     _temp6+1
	sta     _enemies+96,y
;
; enemies.actual_y[x] = low_byte(temp6);
;
	ldy     _x
	lda     _temp6
	sta     _enemies+64,y
;
; temp5 = add_scroll_y(7, temp6);
;
	lda     #$07
;
; } else {
;
	jmp     L1131
;
; temp6 -= temp3;
;
L112B:	lda     _temp3
	eor     #$FF
	sec
	adc     _temp6
	sta     _temp6
	lda     #$FF
	adc     _temp6+1
	sta     _temp6+1
;
; enemies.extra2[x] = low_byte(temp6);
;
	ldy     _x
	lda     _temp6
	sta     _enemies+224,y
;
; low_byte(temp6) = high_byte(temp6);
;
	lda     _temp6+1
	sta     _temp6
;
; high_byte(temp6) = enemies.nt[x];
;
	ldy     _x
	lda     _enemies+96,y
	sta     _temp6+1
;
; temp6 = sub_scroll_y(0x00, temp6);
;
	lda     #$00
	jsr     pusha
	lda     _temp6
	ldx     _temp6+1
	jsr     _sub_scroll_y
	sta     _temp6
	stx     _temp6+1
;
; enemies.nt[x] = high_byte(temp6);
;
	ldy     _x
	lda     _temp6+1
	sta     _enemies+96,y
;
; enemies.actual_y[x] = low_byte(temp6);
;
	ldy     _x
	lda     _temp6
	sta     _enemies+64,y
;
; temp5 = add_scroll_y(1, temp6);
;
	lda     #$01
L1131:	jsr     pusha
	lda     _temp6
	ldx     _temp6+1
	jsr     _add_scroll_y
	sta     _temp5
	stx     _temp5+1
;
; coordinates = (temp1 >> 4) + (low_byte(temp5) & 0xf0);
;
	lda     _temp1
	lsr     a
	lsr     a
	lsr     a
	lsr     a
	sta     ptr1
	lda     _temp5
	and     #$F0
	clc
	adc     ptr1
	sta     _coordinates
;
; temppointer = cmaps[high_byte(temp5)];
;
	ldx     #$00
	lda     _temp5+1
	asl     a
	bcc     L1129
	inx
	clc
L1129:	adc     #<(_cmaps)
	sta     ptr1
	txa
	adc     #>(_cmaps)
	sta     ptr1+1
	ldy     #$01
	lda     (ptr1),y
	tax
	dey
	lda     (ptr1),y
	sta     _temppointer
	stx     _temppointer+1
;
; collision = temppointer[coordinates];
;
	ldy     _coordinates
	sta     ptr1
	stx     ptr1+1
	lda     (ptr1),y
	sta     _collision
;
; if (METATILE_IS_SOLID(collision)) {
;
	ldy     _collision
	lda     _metatile_property_lookup_table,y
	and     #$01
	beq     L0FA1
;
; enemies.type[x] = ENEMY_NONE;
;
	ldy     _x
	lda     #$00
	sta     _enemies+160,y
;
; enemies.flags[x] = 0; 
;
	ldy     _x
	sta     _enemies+128,y
;
; }
;
L0FA1:	rts

.endproc

; ---------------------------------------------------------------
; void __near__ acid_ai (void)
; ---------------------------------------------------------------

.segment	"CODE"

.proc	_acid_ai: near

.segment	"CODE"

;
; if (enemies.extra2[x] > 0) {
;
	ldy     _x
	ldx     #$00
	lda     _enemies+224,y
	beq     L1137
;
; --enemies.extra2[x];
;
	lda     #<(_enemies+224)
	ldx     #>(_enemies+224)
	clc
	adc     _x
	bcc     L0FB5
	inx
L0FB5:	sta     ptr1
	stx     ptr1+1
	ldy     #$00
	lda     (ptr1),y
	sec
	sbc     #$01
	sta     (ptr1),y
;
; if (IS_ENEMY_ACTIVE(x+1)) { return; }
;
	ldx     #$00
L1137:	lda     _x
	clc
	adc     #$01
	bcc     L0FBA
	inx
L0FBA:	sta     ptr1
	txa
	clc
	adc     #>(_enemies+128)
	sta     ptr1+1
	ldy     #<(_enemies+128)
	lda     (ptr1),y
	and     #$80
	beq     L1138
;
; }
;
	rts
;
; if (--enemies.timer[x] == 0) {
;
L1138:	lda     #<(_enemies+256)
	ldx     #>(_enemies+256)
	clc
	adc     _x
	bcc     L0FBE
	inx
L0FBE:	sta     ptr1
	stx     ptr1+1
	ldy     #$00
	lda     (ptr1),y
	sec
	sbc     #$01
	sta     (ptr1),y
	cmp     #$00
	beq     L1139
;
; }
;
	rts
;
; temp0 = enemies.extra[x];
;
L1139:	ldy     _x
	lda     _enemies+192,y
	sta     _temp0
;
; enemies.timer[x] = temp0;
;
	ldy     _x
	lda     _temp0
	sta     _enemies+256,y
;
; temp0 = rand8() & 0b111; // Bottom 3 bits, 0 - 7
;
	jsr     _rand8
	and     #$07
	sta     _temp0
;
; temp1 = enemies.x[x] + temp0; 
;
	ldy     _x
	lda     _enemies,y
	clc
	adc     _temp0
	sta     _temp1
;
; temp2 = enemies.actual_y[x];
;
	ldy     _x
	lda     _enemies+64,y
	sta     _temp2
;
; temp3 = enemies.nt[x];
;
	ldy     _x
	lda     _enemies+96,y
	sta     _temp3
;
; enemies.x[x+1] = temp1;
;
	ldx     #$00
	lda     _x
	clc
	adc     #$01
	bcc     L1133
	inx
	clc
L1133:	adc     #<(_enemies)
	sta     ptr1
	txa
	adc     #>(_enemies)
	sta     ptr1+1
	lda     _temp1
	ldy     #$00
	sta     (ptr1),y
;
; enemies.actual_y[x+1] = temp2;
;
	ldx     #$00
	lda     _x
	clc
	adc     #$01
	bcc     L1134
	inx
	clc
L1134:	adc     #<(_enemies+64)
	sta     ptr1
	txa
	adc     #>(_enemies+64)
	sta     ptr1+1
	lda     _temp2
	sta     (ptr1),y
;
; enemies.nt[x+1] = temp3;
;
	ldx     #$00
	lda     _x
	clc
	adc     #$01
	bcc     L1135
	inx
	clc
L1135:	adc     #<(_enemies+96)
	sta     ptr1
	txa
	adc     #>(_enemies+96)
	sta     ptr1+1
	lda     _temp3
	sta     (ptr1),y
;
; enemies.type[x+1] = ENEMY_ACIDDROP;
;
	ldx     #$00
	lda     _x
	clc
	adc     #$01
	bcc     L1136
	inx
	clc
L1136:	adc     #<(_enemies+160)
	sta     ptr1
	txa
	adc     #>(_enemies+160)
	sta     ptr1+1
	lda     #$0A
	sta     (ptr1),y
;
; enemies.extra2[x] = 12; // ACIDBLOB_ANIMATION_FRAME_COUNT
;
	ldy     _x
	lda     #$0C
	sta     _enemies+224,y
;
; }
;
	rts

.endproc

; ---------------------------------------------------------------
; void __near__ acid_drop_ai (void)
; ---------------------------------------------------------------

.segment	"CODE"

.proc	_acid_drop_ai: near

.segment	"CODE"

;
; high_byte(temp5) = enemies.nt[x];
;
	ldy     _x
	lda     _enemies+96,y
	sta     _temp5+1
;
; low_byte(temp5) = enemies.actual_y[x];
;
	ldy     _x
	lda     _enemies+64,y
	sta     _temp5
;
; temp1 = enemies.x[x];
;
	ldy     _x
	lda     _enemies,y
	sta     _temp1
;
; temp5 = add_scroll_y(1, temp5);
;
	lda     #$01
	jsr     pusha
	lda     _temp5
	ldx     _temp5+1
	jsr     _add_scroll_y
	sta     _temp5
	stx     _temp5+1
;
; temp6 = add_scroll_y(6, temp5); // 8 being the cosmetic projectile height
;
	lda     #$06
	jsr     pusha
	lda     _temp5
	ldx     _temp5+1
	jsr     _add_scroll_y
	sta     _temp6
	stx     _temp6+1
;
; coordinates = (temp1 >> 4) + (low_byte(temp6) & 0xf0);
;
	lda     _temp1
	lsr     a
	lsr     a
	lsr     a
	lsr     a
	sta     ptr1
	lda     _temp6
	and     #$F0
	clc
	adc     ptr1
	sta     _coordinates
;
; temppointer = cmaps[high_byte(temp6)];
;
	ldx     #$00
	lda     _temp6+1
	asl     a
	bcc     L113C
	inx
	clc
L113C:	adc     #<(_cmaps)
	sta     ptr1
	txa
	adc     #>(_cmaps)
	sta     ptr1+1
	ldy     #$01
	lda     (ptr1),y
	tax
	dey
	lda     (ptr1),y
	sta     _temppointer
	stx     _temppointer+1
;
; collision = temppointer[coordinates];
;
	ldy     _coordinates
	sta     ptr1
	stx     ptr1+1
	lda     (ptr1),y
	sta     _collision
;
; if (METATILE_IS_SOLID(collision)) {
;
	ldy     _collision
	lda     _metatile_property_lookup_table,y
	and     #$01
	beq     L0E64
;
; enemies.type[x] = ENEMY_NONE;
;
	ldy     _x
	lda     #$00
	sta     _enemies+160,y
;
; enemies.flags[x] = 0;
;
	ldy     _x
	sta     _enemies+128,y
;
; return;
;
	rts
;
; enemies.nt[x] = high_byte(temp5);
;
L0E64:	ldy     _x
	lda     _temp5+1
	sta     _enemies+96,y
;
; enemies.actual_y[x] = low_byte(temp5);
;
	ldy     _x
	lda     _temp5
	sta     _enemies+64,y
;
; }
;
	rts

.endproc

; ---------------------------------------------------------------
; void __near__ splyke_ai (void)
; ---------------------------------------------------------------

.segment	"CODE"

.proc	_splyke_ai: near

.segment	"CODE"

;
; temp0 = rand8() & 0x0f; // random from 0 to 15
;
	jsr     _rand8
	and     #$0F
	sta     _temp0
;
; temp1 = SPLYKE_IS_MOVING_AROUND(x);
;
	ldy     _x
	lda     _enemies+128,y
	and     #$20
	sta     _temp1
;
; ++enemies.extra2[x];
;
	lda     #<(_enemies+224)
	ldx     #>(_enemies+224)
	clc
	adc     _x
	bcc     L0FF3
	inx
L0FF3:	sta     ptr1
	stx     ptr1+1
	ldy     #$00
	lda     #$01
	clc
	adc     (ptr1),y
	sta     (ptr1),y
;
; enemies.extra2[x] &= 7; // Crop the animation counter to 7. (this will get >> 1'd in draw_sprites)
;
	lda     #<(_enemies+224)
	ldx     #>(_enemies+224)
	clc
	adc     _x
	bcc     L0FF6
	inx
L0FF6:	sta     ptr1
	stx     ptr1+1
	lda     (ptr1),y
	and     #$07
	sta     (ptr1),y
;
; if (temp0 == 0 && temp1 == 0) {
;
	lda     _temp0
	bne     L0FF8
	lda     _temp1
	bne     L0FF8
;
; SPLYKE_SET_MOVING_AROUND(x); // Start moving.
;
	lda     #<(_enemies+128)
	ldx     #>(_enemies+128)
	clc
	adc     _x
	bcc     L0FFF
	inx
L0FFF:	sta     ptr1
	stx     ptr1+1
	lda     (ptr1),y
	ora     #$20
	sta     (ptr1),y
;
; } else if (temp1){
;
	rts
L0FF8:	lda     _temp1
	bne     L114A
;
; }
;
	rts
;
; if (temp0 == 0) {
;
L114A:	lda     _temp0
	bne     L1004
;
; SPLYKE_SET_STANDING_STILL(x);
;
	lda     #<(_enemies+128)
	ldx     #>(_enemies+128)
	clc
	adc     _x
	bcc     L1009
	inx
L1009:	sta     ptr1
	stx     ptr1+1
	lda     (ptr1),y
	and     #$DF
	sta     (ptr1),y
;
; temp3 = ENEMY_DIRECTION(x);
;
L1004:	ldy     _x
	lda     _enemies+128,y
	and     #$01
	sta     _temp3
;
; temp1 = enemies.x[x];
;
	ldy     _x
	lda     _enemies,y
	sta     _temp1
;
; temp1 += leftright_movement_offset_lookup_table[temp3];
;
	ldy     _temp3
	lda     _leftright_movement_offset_lookup_table,y
	clc
	adc     _temp1
	sta     _temp1
;
; temp1 += leftright_movement_moving_lookup_table[temp3];
;
	ldy     _temp3
	lda     _leftright_movement_moving_lookup_table,y
	clc
	adc     _temp1
	sta     _temp1
;
; temp2 = enemies.actual_y[x] + 18; // Y beneath us
;
	ldy     _x
	lda     _enemies+64,y
	clc
	adc     #$12
	sta     _temp2
;
; coordinates = (temp1 >> 4) + (temp2 & 0xf0); 
;
	lda     _temp1
	lsr     a
	lsr     a
	lsr     a
	lsr     a
	sta     ptr1
	lda     _temp2
	and     #$F0
	clc
	adc     ptr1
	sta     _coordinates
;
; temp4 = temp2 >> 4;
;
	lda     _temp2
	lsr     a
	lsr     a
	lsr     a
	lsr     a
	sta     _temp4
;
; if (temp4 == 0xf) {
;
	cmp     #$0F
	bne     L1027
;
; temp4 = enemies.nt[x] + 1;
;
	ldy     _x
	lda     _enemies+96,y
	clc
	adc     #$01
;
; } else {
;
	jmp     L1143
;
; temp4 = enemies.nt[x];
;
L1027:	ldy     _x
	lda     _enemies+96,y
L1143:	sta     _temp4
;
; temppointer = cmaps[temp4];
;
	ldx     #$00
	lda     _temp4
	asl     a
	bcc     L1144
	inx
	clc
L1144:	adc     #<(_cmaps)
	sta     ptr1
	txa
	adc     #>(_cmaps)
	sta     ptr1+1
	ldy     #$01
	lda     (ptr1),y
	tax
	dey
	lda     (ptr1),y
	sta     _temppointer
	stx     _temppointer+1
;
; collision = temppointer[coordinates];
;
	ldy     _coordinates
	sta     ptr1
	stx     ptr1+1
	lda     (ptr1),y
	sta     _collision
;
; if (!METATILE_IS_SOLID(collision)) {
;
	ldy     _collision
	lda     _metatile_property_lookup_table,y
	and     #$01
	bne     L1039
;
; ENEMY_FLIP_DIRECTION(x);
;
	lda     #<(_enemies+128)
	ldx     #>(_enemies+128)
	clc
	adc     _x
	bcc     L1041
	inx
L1041:	sta     ptr1
	stx     ptr1+1
	ldy     #$00
	lda     (ptr1),y
	eor     #$01
	sta     (ptr1),y
;
; temp3 ^= 1;
;
	lda     _temp3
	eor     #$01
	sta     _temp3
;
; temp2 = enemies.actual_y[x] + 6; // center y
;
L1039:	ldy     _x
	lda     _enemies+64,y
	clc
	adc     #$06
	sta     _temp2
;
; coordinates = (temp1 >> 4) + (temp2 & 0xf0); 
;
	lda     _temp1
	lsr     a
	lsr     a
	lsr     a
	lsr     a
	sta     ptr1
	lda     _temp2
	and     #$F0
	clc
	adc     ptr1
	sta     _coordinates
;
; temp4 = enemies.nt[x];
;
	ldy     _x
	lda     _enemies+96,y
	sta     _temp4
;
; temppointer = cmaps[temp4];
;
	ldx     #$00
	lda     _temp4
	asl     a
	bcc     L1145
	inx
	clc
L1145:	adc     #<(_cmaps)
	sta     ptr1
	txa
	adc     #>(_cmaps)
	sta     ptr1+1
	ldy     #$01
	lda     (ptr1),y
	tax
	dey
	lda     (ptr1),y
	sta     _temppointer
	stx     _temppointer+1
;
; collision = temppointer[coordinates];
;
	ldy     _coordinates
	sta     ptr1
	stx     ptr1+1
	lda     (ptr1),y
	sta     _collision
;
; if (METATILE_IS_SOLID(collision)) {
;
	ldy     _collision
	lda     _metatile_property_lookup_table,y
	and     #$01
	beq     L1058
;
; ENEMY_FLIP_DIRECTION(x);
;
	lda     #<(_enemies+128)
	ldx     #>(_enemies+128)
	clc
	adc     _x
	bcc     L1060
	inx
L1060:	sta     ptr1
	stx     ptr1+1
	ldy     #$00
	lda     (ptr1),y
	eor     #$01
	sta     (ptr1),y
;
; temp3 ^= 1;
;
	lda     _temp3
	eor     #$01
	sta     _temp3
;
; temp1 = leftright_movement_moving_lookup_table[temp3];
;
L1058:	ldy     _temp3
	lda     _leftright_movement_moving_lookup_table,y
	sta     _temp1
;
; temp1 += temp1;
;
	clc
	adc     _temp1
	sta     _temp1
;
; enemies.x[x] += temp1;
;
	lda     #<(_enemies)
	ldx     #>(_enemies)
	clc
	adc     _x
	bcc     L106C
	inx
L106C:	jsr     pushax
	sta     ptr1
	stx     ptr1+1
	ldy     #$00
	lda     (ptr1),y
	clc
	adc     _temp1
	jmp     staspidx

.endproc

; ---------------------------------------------------------------
; void __near__ sun_ai (void)
; ---------------------------------------------------------------

.segment	"CODE"

.proc	_sun_ai: near

.segment	"CODE"

;
; temp3 = ENEMY_DIRECTION(x);
;
	ldy     _x
	lda     _enemies+128,y
	and     #$01
	sta     _temp3
;
; high_byte(temp5) = enemies.nt[x];
;
	ldy     _x
	lda     _enemies+96,y
	sta     _temp5+1
;
; low_byte(temp5) = enemies.actual_y[x];
;
	ldy     _x
	lda     _enemies+64,y
	sta     _temp5
;
; temp1 = enemies.x[x] + 6; 
;
	ldy     _x
	lda     _enemies,y
	clc
	adc     #$06
	sta     _temp1
;
; if (temp3 == UP) { // subtracting from y
;
	lda     _temp3
	bne     L0E06
;
; temp5 = sub_scroll_y(1, temp5);
;
	lda     #$01
	jsr     pusha
	lda     _temp5
	ldx     _temp5+1
	jsr     _sub_scroll_y
	sta     _temp5
	stx     _temp5+1
;
; temp2 = low_byte(temp5); // Y of tile of interest
;
	lda     _temp5
	sta     _temp2
;
; temp4 = high_byte(temp5); // NT of tile of interest
;
	lda     _temp5+1
;
; } else { // DOWN (adding to y)
;
	jmp     L114D
;
; temp5 = add_scroll_y(1, temp5);
;
L0E06:	lda     #$01
	jsr     pusha
	lda     _temp5
	ldx     _temp5+1
	jsr     _add_scroll_y
	sta     _temp5
	stx     _temp5+1
;
; temp6 = add_scroll_y(15, temp5); // 15 being the cosmetic size of an enemy
;
	lda     #$0F
	jsr     pusha
	lda     _temp5
	ldx     _temp5+1
	jsr     _add_scroll_y
	sta     _temp6
	stx     _temp6+1
;
; temp2 = low_byte(temp6); // Y of tile of interest
;
	lda     _temp6
	sta     _temp2
;
; temp4 = high_byte(temp6); // NT of tile of interest
;
	lda     _temp6+1
L114D:	sta     _temp4
;
; coordinates = (temp1 >> 4) + (temp2 & 0xf0);
;
	lda     _temp1
	lsr     a
	lsr     a
	lsr     a
	lsr     a
	sta     ptr1
	lda     _temp2
	and     #$F0
	clc
	adc     ptr1
	sta     _coordinates
;
; temppointer = cmaps[temp4];
;
	ldx     #$00
	lda     _temp4
	asl     a
	bcc     L114E
	inx
	clc
L114E:	adc     #<(_cmaps)
	sta     ptr1
	txa
	adc     #>(_cmaps)
	sta     ptr1+1
	ldy     #$01
	lda     (ptr1),y
	tax
	dey
	lda     (ptr1),y
	sta     _temppointer
	stx     _temppointer+1
;
; collision = temppointer[coordinates];
;
	ldy     _coordinates
	sta     ptr1
	stx     ptr1+1
	lda     (ptr1),y
	sta     _collision
;
; if (METATILE_IS_SOLID(collision)) {
;
	ldy     _collision
	lda     _metatile_property_lookup_table,y
	and     #$01
	beq     L0E2B
;
; ENEMY_FLIP_DIRECTION(x);
;
	lda     #<(_enemies+128)
	ldx     #>(_enemies+128)
	clc
	adc     _x
	bcc     L0E33
	inx
L0E33:	sta     ptr1
	stx     ptr1+1
	ldy     #$00
	lda     (ptr1),y
	eor     #$01
	sta     (ptr1),y
;
; temp3 ^= 1;
;
	lda     _temp3
	eor     #$01
	sta     _temp3
;
; enemies.nt[x] = high_byte(temp5);
;
L0E2B:	ldy     _x
	lda     _temp5+1
	sta     _enemies+96,y
;
; enemies.actual_y[x] = low_byte(temp5);
;
	ldy     _x
	lda     _temp5
	sta     _enemies+64,y
;
; }
;
	rts

.endproc

; ---------------------------------------------------------------
; void __near__ boss_ai (void)
; ---------------------------------------------------------------

.segment	"CODE"

.proc	_boss_ai: near

.segment	"CODE"

;
; }
;
	rts

.endproc

; ---------------------------------------------------------------
; void __near__ death_effect_timer_ai (void)
; ---------------------------------------------------------------

.segment	"CODE"

.proc	_death_effect_timer_ai: near

.segment	"CODE"

;
; if (--enemies.timer[x] == 0){
;
	lda     #<(_enemies+256)
	ldx     #>(_enemies+256)
	clc
	adc     _x
	bcc     L1073
	inx
L1073:	sta     ptr1
	stx     ptr1+1
	ldy     #$00
	lda     (ptr1),y
	sec
	sbc     #$01
	sta     (ptr1),y
	cmp     #$00
	bne     L1070
;
; enemies.type[x] = ENEMY_NONE;
;
	ldy     _x
	sta     _enemies+160,y
;
; enemies.flags[x] = 0;
;
	ldy     _x
	sta     _enemies+128,y
;
; }
;
L1070:	rts

.endproc

; ---------------------------------------------------------------
; void __near__ main (void)
; ---------------------------------------------------------------

.segment	"CODE"

.proc	_main: near

.segment	"CODE"

;
; ppu_off(); // screen off
;
	jsr     _ppu_off
;
; pal_bg(palette_bg);
;
	lda     #<(_palette_bg)
	ldx     #>(_palette_bg)
	jsr     _pal_bg
;
; pal_spr(palette_sp);
;
	lda     #<(_palette_sp)
	ldx     #>(_palette_sp)
	jsr     _pal_spr
;
; set_prg_bank(0);
;
	lda     #$00
	jsr     _set_prg_bank
;
; set_chr_bank_0(0);
;
	lda     #$00
	jsr     _set_chr_bank_0
;
; bank_spr(1);
;
	lda     #$01
	jsr     _bank_spr
;
; set_vram_buffer(); // do at least once, sets a pointer to a buffer
;
	jsr     _set_vram_buffer
;
; clear_vram_buffer();
;
	jsr     _clear_vram_buffer
;
; level_index = 0;
;
	lda     #$00
	sta     _level_index
;
; load_title_screen();
;
	jsr     _load_title_screen
;
; ppu_on_all(); // turn on screen
;
	jsr     _ppu_on_all
;
; while (game_mode == MODE_TITLE) { 
;
	jmp     L1150
;
; ppu_wait_nmi();
;
L0758:	jsr     _ppu_wait_nmi
;
; pad1 = pad_poll(0); // read the first controller
;
	lda     #$00
	jsr     _pad_poll
	sta     _pad1
;
; pad1_new = get_pad_new(0);
;
	lda     #$00
	jsr     _get_pad_new
	sta     _pad1_new
;
; if (pad1_new & PAD_UP) {
;
	and     #$08
	beq     L1150
;
; level_index = 0;
;
	lda     #$00
	sta     _level_index
;
; score = 0; // Reset the score.
;
	sta     _score
	sta     _score+1
;
; begin_level();
;
	jsr     _begin_level
;
; while (game_mode == MODE_TITLE) { 
;
L1150:	lda     _game_mode
	beq     L0758
;
; while (game_mode == MODE_GAME) {
;
	jmp     L1152
;
; ppu_wait_nmi(); // wait till beginning of the frame
;
L076A:	jsr     _ppu_wait_nmi
;
; set_chr_bank_0(0);
;
	lda     #$00
	jsr     _set_chr_bank_0
;
; pad1 = pad_poll(0); // read the first controller
;
	lda     #$00
	jsr     _pad_poll
	sta     _pad1
;
; pad1_new = get_pad_new(0); 
;
	lda     #$00
	jsr     _get_pad_new
	sta     _pad1_new
;
; clear_vram_buffer();
;
	jsr     _clear_vram_buffer
;
; movement();
;
	jsr     _movement
;
; check_spr_objects();
;
	jsr     _check_spr_objects
;
; swing_sword();
;
	jsr     _swing_sword
;
; sprite_collisions();
;
	jsr     _sprite_collisions
;
; enemy_movement();
;
	jsr     _enemy_movement
;
; set_scroll_y(scroll_y);
;
	lda     _scroll_y
	ldx     _scroll_y+1
	jsr     _set_scroll_y
;
; convert_to_decimal(score);
;
	lda     _score
	ldx     _score+1
	jsr     _convert_to_decimal
;
; draw_sprites();
;
	jsr     _draw_sprites
;
; if (valrigard.velocity_y >= 0) { // If this is true, draw down. Otherwise, draw up.
;
	ldx     _valrigard+6+1
	bmi     L0782
;
; draw_screen_D();
;
	jsr     _draw_screen_D
;
; }  else {
;
	jmp     L0785
;
; draw_screen_U();
;
L0782:	jsr     _draw_screen_U
;
; if (game_mode == MODE_GAME_OVER) {
;
L0785:	lda     _game_mode
	cmp     #$04
	bne     L1151
;
; load_game_over_screen();
;
	jsr     _load_game_over_screen
;
; if (pad1 & PAD_DOWN) {
;
L1151:	lda     _pad1
	and     #$04
	beq     L078A
;
; SET_STATUS_ALIVE();
;
	lda     _player_flags
	and     #$FD
	sta     _player_flags
;
; gray_line(); // The further down this renders, the fewer clock cycles were free this frame.
;
L078A:	jsr     _gray_line
;
; while (game_mode == MODE_GAME) {
;
L1152:	lda     _game_mode
	cmp     #$01
	beq     L076A
;
; while (game_mode == MODE_GAME_OVER) {
;
	jmp     L1153
;
; ppu_wait_nmi();
;
L0790:	jsr     _ppu_wait_nmi
;
; pad1 = pad_poll(0);
;
	lda     #$00
	jsr     _pad_poll
	sta     _pad1
;
; pad1_new = get_pad_new(0);
;
	lda     #$00
	jsr     _get_pad_new
	sta     _pad1_new
;
; if (pad1_new & PAD_DOWN) {
;
	and     #$04
	beq     L1153
;
; level_index = 0;
;
	lda     #$00
	sta     _level_index
;
; score = 0; // Reset the score.
;
	sta     _score
	sta     _score+1
;
; begin_level();
;
	jsr     _begin_level
;
; while (game_mode == MODE_GAME_OVER) {
;
L1153:	lda     _game_mode
	cmp     #$04
	beq     L0790
;
; while (1){
;
	jmp     L1150

.endproc

