;
; File generated by cc65 v 2.18 - N/A
;
	.fopt		compiler,"cc65 v 2.18 - N/A"
	.setcpu		"6502"
	.smart		on
	.autoimport	on
	.case		on
	.debuginfo	off
	.importzp	sp, sreg, regsave, regbank
	.importzp	tmp1, tmp2, tmp3, tmp4, ptr1, ptr2, ptr3, ptr4
	.macpack	longbranch
	.forceimport	__STARTUP__
	.import		_pal_bg
	.import		_pal_spr
	.import		_ppu_wait_nmi
	.import		_ppu_off
	.import		_ppu_on_all
	.import		_oam_clear
	.import		_oam_spr
	.import		_oam_meta_spr
	.import		_pad_poll
	.import		_bank_spr
	.import		_memcpy
	.import		_set_vram_buffer
	.import		_clear_vram_buffer
	.import		_get_pad_new
	.import		_get_frame_count
	.import		_check_collision
	.import		_set_scroll_y
	.import		_add_scroll_y
	.import		_sub_scroll_y
	.import		_get_ppu_addr
	.import		_set_data_pointer
	.import		_set_mt_pointer
	.import		_buffer_1_mt
	.import		_buffer_4_mt
	.import		_flush_vram_update_nmi
	.import		_gray_line
	.export		_valrigardIdleLeft
	.export		_valrigardIdleRight
	.export		_spikeball
	.export		_korbat_left
	.export		_korbat_right
	.export		_sun0
	.export		_sun1
	.export		_metatiles
	.export		_level10_0
	.export		_level10_1
	.export		_level10_2
	.export		_level10_enemy
	.export		_level_starting_nt
	.export		_valrigard_starting_nt
	.export		_valrigard_inital_coords
	.export		_level_nametables
	.export		_level_names
	.export		_level_enemy_data
	.import		_clear_object_bitfield
	.import		_score_string
	.import		_convert_to_decimal
	.export		_pad1
	.export		_pad1_new
	.export		_collision
	.export		_collision_L
	.export		_collision_R
	.export		_collision_U
	.export		_collision_D
	.export		_coordinates
	.export		_temp1
	.export		_temp2
	.export		_temp3
	.export		_temp4
	.export		_temp5
	.export		_temp6
	.export		_temppointer
	.export		_eject_L
	.export		_eject_R
	.export		_eject_D
	.export		_eject_U
	.export		_player_flags
	.export		_address
	.export		_x
	.export		_y
	.export		_nt
	.export		_index
	.export		_map
	.export		_scroll_x
	.export		_pseudo_scroll_y
	.export		_scroll_y
	.export		_min_scroll_y
	.export		_max_scroll_y
	.export		_initial_scroll
	.export		_scroll_count
	.export		_L_R_switch
	.export		_old_x
	.export		_old_y
	.export		_temp_x
	.export		_temp_y
	.export		_level_index
	.export		_energy
	.export		_stars
	.export		_pointer
	.export		_timer
	.export		_song
	.export		_nt_min
	.export		_nt_max
	.export		_nt_current
	.export		_score
	.export		_c_map
	.export		_c_map2
	.export		_palette_bg
	.export		_palette_sp
	.export		_shuffle_array
	.export		_valrigard
	.export		_hitbox
	.export		_enemies
	.export		_hitbox2
	.export		_debug_tile_x
	.export		_debug_tile_y
	.export		_draw_sprites
	.export		_movement
	.export		_load_level
	.export		_load_room
	.export		_bg_collision
	.export		_bg_collision_sub
	.export		_draw_screen_sub
	.export		_new_cmap
	.export		_check_spr_objects
	.export		_sprite_collisions
	.export		_enemy_movement
	.export		_korbat_ai
	.export		_spikeball_ai
	.export		_cannon_ai
	.export		_cannonball_ai
	.export		_acid_ai
	.export		_acid_drop_ai
	.export		_splyke_ai
	.export		_sun_ai
	.export		_draw_screen_sub_lookup_addr_0
	.export		_draw_screen_sub_lookup_index_offset_0
	.export		_draw_screen_sub_lookup_addr_1
	.export		_draw_screen_sub_lookup_index_offset_1
	.export		_leftright_movement_offset_lookup_table
	.export		_leftright_movement_moving_lookup_table
	.export		_updown_movement_offset_lookup_table
	.export		_korbat_sprite_lookup_table
	.export		_main

.segment	"DATA"

_valrigard:
	.word	$0014
	.word	$0028
	.res	4,$00

.segment	"RODATA"

_valrigardIdleLeft:
	.byte	$FE
	.byte	$FD
	.byte	$E0
	.byte	$01
	.byte	$06
	.byte	$FD
	.byte	$E1
	.byte	$01
	.byte	$FE
	.byte	$05
	.byte	$F0
	.byte	$01
	.byte	$06
	.byte	$05
	.byte	$F1
	.byte	$01
	.byte	$80
_valrigardIdleRight:
	.byte	$06
	.byte	$FD
	.byte	$E0
	.byte	$41
	.byte	$FE
	.byte	$FD
	.byte	$E1
	.byte	$41
	.byte	$06
	.byte	$05
	.byte	$F0
	.byte	$41
	.byte	$FE
	.byte	$05
	.byte	$F1
	.byte	$41
	.byte	$80
_spikeball:
	.byte	$FF
	.byte	$FF
	.byte	$12
	.byte	$03
	.byte	$07
	.byte	$FF
	.byte	$12
	.byte	$43
	.byte	$FF
	.byte	$07
	.byte	$12
	.byte	$83
	.byte	$07
	.byte	$07
	.byte	$12
	.byte	$C3
	.byte	$80
_korbat_left:
	.byte	$FF
	.byte	$FF
	.byte	$20
	.byte	$02
	.byte	$07
	.byte	$FF
	.byte	$21
	.byte	$02
	.byte	$FF
	.byte	$07
	.byte	$30
	.byte	$02
	.byte	$07
	.byte	$07
	.byte	$31
	.byte	$02
	.byte	$80
_korbat_right:
	.byte	$07
	.byte	$FF
	.byte	$20
	.byte	$42
	.byte	$FF
	.byte	$FF
	.byte	$21
	.byte	$42
	.byte	$07
	.byte	$07
	.byte	$30
	.byte	$42
	.byte	$FF
	.byte	$07
	.byte	$31
	.byte	$42
	.byte	$80
_sun0:
	.byte	$FF
	.byte	$FF
	.byte	$13
	.byte	$00
	.byte	$07
	.byte	$FF
	.byte	$13
	.byte	$40
	.byte	$FF
	.byte	$07
	.byte	$14
	.byte	$00
	.byte	$07
	.byte	$07
	.byte	$14
	.byte	$40
	.byte	$80
_sun1:
	.byte	$FF
	.byte	$FF
	.byte	$15
	.byte	$00
	.byte	$07
	.byte	$FF
	.byte	$15
	.byte	$40
	.byte	$FF
	.byte	$07
	.byte	$16
	.byte	$00
	.byte	$07
	.byte	$07
	.byte	$16
	.byte	$40
	.byte	$80
_metatiles:
	.byte	$A0
	.byte	$A0
	.byte	$B0
	.byte	$B0
	.byte	$00
	.byte	$A1
	.byte	$A1
	.byte	$B1
	.byte	$B1
	.byte	$00
	.byte	$A2
	.byte	$A3
	.byte	$A2
	.byte	$A3
	.byte	$00
	.byte	$B2
	.byte	$B3
	.byte	$B2
	.byte	$B3
	.byte	$00
	.byte	$E6
	.byte	$E7
	.byte	$F6
	.byte	$F7
	.byte	$00
	.byte	$84
	.byte	$E5
	.byte	$F6
	.byte	$F7
	.byte	$00
	.byte	$E6
	.byte	$E3
	.byte	$F6
	.byte	$F3
	.byte	$00
	.byte	$E6
	.byte	$E7
	.byte	$94
	.byte	$F5
	.byte	$00
	.byte	$E2
	.byte	$E7
	.byte	$F2
	.byte	$F7
	.byte	$00
	.byte	$84
	.byte	$8D
	.byte	$F6
	.byte	$F3
	.byte	$00
	.byte	$E6
	.byte	$E3
	.byte	$94
	.byte	$9D
	.byte	$00
	.byte	$E2
	.byte	$E7
	.byte	$F0
	.byte	$F5
	.byte	$00
	.byte	$E0
	.byte	$E5
	.byte	$F2
	.byte	$F7
	.byte	$00
	.byte	$84
	.byte	$E5
	.byte	$94
	.byte	$F5
	.byte	$00
	.byte	$E2
	.byte	$E3
	.byte	$F2
	.byte	$F3
	.byte	$00
	.byte	$E0
	.byte	$8D
	.byte	$F0
	.byte	$9D
	.byte	$00
	.byte	$80
	.byte	$81
	.byte	$90
	.byte	$91
	.byte	$00
	.byte	$84
	.byte	$85
	.byte	$94
	.byte	$95
	.byte	$00
	.byte	$86
	.byte	$81
	.byte	$96
	.byte	$91
	.byte	$00
	.byte	$84
	.byte	$89
	.byte	$94
	.byte	$99
	.byte	$00
	.byte	$8A
	.byte	$81
	.byte	$9A
	.byte	$91
	.byte	$00
	.byte	$84
	.byte	$8D
	.byte	$94
	.byte	$9D
	.byte	$00
	.byte	$EC
	.byte	$ED
	.byte	$FC
	.byte	$FD
	.byte	$03
	.byte	$A4
	.byte	$A5
	.byte	$B4
	.byte	$B5
	.byte	$03
	.byte	$A6
	.byte	$A5
	.byte	$B6
	.byte	$B5
	.byte	$03
	.byte	$A6
	.byte	$A9
	.byte	$B6
	.byte	$B9
	.byte	$03
	.byte	$AA
	.byte	$AB
	.byte	$BA
	.byte	$BB
	.byte	$02
	.byte	$8E
	.byte	$8F
	.byte	$9E
	.byte	$9F
	.byte	$00
	.byte	$00
	.byte	$00
	.byte	$00
	.byte	$8E
	.byte	$00
	.byte	$00
	.byte	$00
	.byte	$8F
	.byte	$00
	.byte	$00
	.byte	$00
	.byte	$9E
	.byte	$00
	.byte	$00
	.byte	$00
	.byte	$9F
	.byte	$00
	.byte	$00
	.byte	$00
	.byte	$00
	.byte	$AC
	.byte	$AD
	.byte	$BC
	.byte	$BD
	.byte	$00
	.byte	$AE
	.byte	$AF
	.byte	$BE
	.byte	$BF
	.byte	$00
	.byte	$BC
	.byte	$CD
	.byte	$BC
	.byte	$DD
	.byte	$00
	.byte	$CE
	.byte	$BF
	.byte	$DE
	.byte	$BF
	.byte	$00
	.byte	$C4
	.byte	$C5
	.byte	$D4
	.byte	$D5
	.byte	$00
	.byte	$C6
	.byte	$C7
	.byte	$D6
	.byte	$D7
	.byte	$00
	.byte	$C8
	.byte	$C9
	.byte	$D8
	.byte	$D9
	.byte	$00
	.byte	$CA
	.byte	$CB
	.byte	$DA
	.byte	$DB
	.byte	$00
	.byte	$C2
	.byte	$C3
	.byte	$D2
	.byte	$D3
	.byte	$03
	.byte	$C0
	.byte	$C1
	.byte	$D0
	.byte	$D1
	.byte	$00
	.byte	$E8
	.byte	$E9
	.byte	$F8
	.byte	$F9
	.byte	$03
	.byte	$EA
	.byte	$EB
	.byte	$FA
	.byte	$FB
	.byte	$01
	.byte	$00
	.byte	$00
	.byte	$00
	.byte	$00
	.byte	$00
_level10_0:
	.byte	$04
	.byte	$07
	.byte	$07
	.byte	$07
	.byte	$07
	.byte	$07
	.byte	$07
	.byte	$07
	.byte	$07
	.byte	$07
	.byte	$07
	.byte	$06
	.byte	$2C
	.byte	$2C
	.byte	$2C
	.byte	$2C
	.byte	$06
	.byte	$2C
	.byte	$2C
	.byte	$2C
	.byte	$2C
	.byte	$2C
	.byte	$2C
	.byte	$2C
	.byte	$2C
	.byte	$2C
	.byte	$2C
	.byte	$0E
	.byte	$2C
	.byte	$2C
	.byte	$2C
	.byte	$2C
	.byte	$06
	.byte	$2C
	.byte	$2C
	.byte	$2C
	.byte	$2C
	.byte	$2C
	.byte	$2C
	.byte	$2C
	.byte	$2C
	.byte	$2C
	.byte	$2C
	.byte	$0E
	.byte	$2C
	.byte	$2C
	.byte	$2C
	.byte	$2C
	.byte	$06
	.byte	$2C
	.byte	$2C
	.byte	$2C
	.byte	$2C
	.byte	$2C
	.byte	$2C
	.byte	$2C
	.byte	$2C
	.byte	$2C
	.byte	$2C
	.byte	$0E
	.byte	$2C
	.byte	$2C
	.byte	$2C
	.byte	$2C
	.byte	$06
	.byte	$2C
	.byte	$2C
	.byte	$2C
	.byte	$2C
	.byte	$2C
	.byte	$2C
	.byte	$2C
	.byte	$2C
	.byte	$2C
	.byte	$2C
	.byte	$0E
	.byte	$2C
	.byte	$2C
	.byte	$2C
	.byte	$2C
	.byte	$06
	.byte	$2C
	.byte	$2C
	.byte	$2C
	.byte	$2C
	.byte	$2C
	.byte	$2C
	.byte	$2C
	.byte	$2C
	.byte	$2C
	.byte	$2C
	.byte	$0E
	.byte	$2C
	.byte	$2C
	.byte	$2C
	.byte	$2C
	.byte	$06
	.byte	$2C
	.byte	$2C
	.byte	$2C
	.byte	$2C
	.byte	$2C
	.byte	$2C
	.byte	$2C
	.byte	$2C
	.byte	$2C
	.byte	$2C
	.byte	$0E
	.byte	$2C
	.byte	$2C
	.byte	$2C
	.byte	$2C
	.byte	$06
	.byte	$2A
	.byte	$2A
	.byte	$2A
	.byte	$2A
	.byte	$2A
	.byte	$2C
	.byte	$2C
	.byte	$2C
	.byte	$2C
	.byte	$2C
	.byte	$0E
	.byte	$2C
	.byte	$2C
	.byte	$2C
	.byte	$2C
	.byte	$06
	.byte	$17
	.byte	$19
	.byte	$2A
	.byte	$2A
	.byte	$2A
	.byte	$2C
	.byte	$2C
	.byte	$2C
	.byte	$2C
	.byte	$2C
	.byte	$0E
	.byte	$2C
	.byte	$2C
	.byte	$2C
	.byte	$2C
	.byte	$06
	.byte	$18
	.byte	$18
	.byte	$2A
	.byte	$2A
	.byte	$2A
	.byte	$2C
	.byte	$2C
	.byte	$2C
	.byte	$2C
	.byte	$2C
	.byte	$0E
	.byte	$2C
	.byte	$2C
	.byte	$2C
	.byte	$2C
	.byte	$06
	.byte	$0D
	.byte	$0D
	.byte	$0D
	.byte	$0D
	.byte	$0D
	.byte	$0D
	.byte	$0D
	.byte	$15
	.byte	$2C
	.byte	$2C
	.byte	$0E
	.byte	$2C
	.byte	$2C
	.byte	$2C
	.byte	$2C
	.byte	$06
	.byte	$2C
	.byte	$2C
	.byte	$2C
	.byte	$2C
	.byte	$2C
	.byte	$2C
	.byte	$01
	.byte	$01
	.byte	$2C
	.byte	$2C
	.byte	$0E
	.byte	$2C
	.byte	$2C
	.byte	$2C
	.byte	$2C
	.byte	$06
	.byte	$2C
	.byte	$2C
	.byte	$2C
	.byte	$2C
	.byte	$2C
	.byte	$2C
	.byte	$2C
	.byte	$2C
	.byte	$2C
	.byte	$2C
	.byte	$0E
	.byte	$2C
	.byte	$2C
	.byte	$2C
	.byte	$2C
	.byte	$06
	.byte	$2C
	.byte	$2C
	.byte	$2C
	.byte	$2C
	.byte	$2C
	.byte	$0F
	.byte	$2C
	.byte	$2C
	.byte	$2C
	.byte	$2C
	.byte	$0E
	.byte	$2C
	.byte	$2C
	.byte	$2C
	.byte	$2C
	.byte	$06
	.byte	$2C
	.byte	$2C
	.byte	$00
	.byte	$00
	.byte	$00
	.byte	$00
	.byte	$00
	.byte	$00
	.byte	$00
	.byte	$00
	.byte	$0E
	.byte	$2C
	.byte	$2C
	.byte	$2C
	.byte	$2C
_level10_1:
	.byte	$06
	.byte	$2C
	.byte	$2C
	.byte	$0C
	.byte	$05
	.byte	$05
	.byte	$05
	.byte	$05
	.byte	$05
	.byte	$05
	.byte	$05
	.byte	$06
	.byte	$2C
	.byte	$2C
	.byte	$2C
	.byte	$2C
	.byte	$06
	.byte	$2C
	.byte	$2C
	.byte	$0B
	.byte	$07
	.byte	$07
	.byte	$07
	.byte	$07
	.byte	$07
	.byte	$07
	.byte	$07
	.byte	$06
	.byte	$2C
	.byte	$2C
	.byte	$2C
	.byte	$2C
	.byte	$06
	.byte	$2C
	.byte	$28
	.byte	$2C
	.byte	$28
	.byte	$2C
	.byte	$2C
	.byte	$2C
	.byte	$2C
	.byte	$2C
	.byte	$2C
	.byte	$0E
	.byte	$2C
	.byte	$2C
	.byte	$2C
	.byte	$2C
	.byte	$06
	.byte	$2C
	.byte	$2C
	.byte	$2C
	.byte	$2C
	.byte	$2C
	.byte	$2C
	.byte	$2C
	.byte	$2C
	.byte	$2C
	.byte	$2C
	.byte	$0E
	.byte	$2C
	.byte	$2C
	.byte	$2C
	.byte	$2C
	.byte	$04
	.byte	$0D
	.byte	$11
	.byte	$2C
	.byte	$10
	.byte	$11
	.byte	$2C
	.byte	$2C
	.byte	$2C
	.byte	$2C
	.byte	$2C
	.byte	$0E
	.byte	$2C
	.byte	$2C
	.byte	$2C
	.byte	$2C
	.byte	$06
	.byte	$2C
	.byte	$2C
	.byte	$2C
	.byte	$2C
	.byte	$2C
	.byte	$2C
	.byte	$2C
	.byte	$2C
	.byte	$2C
	.byte	$2C
	.byte	$0E
	.byte	$2C
	.byte	$2C
	.byte	$2C
	.byte	$2C
	.byte	$06
	.byte	$2C
	.byte	$2C
	.byte	$2C
	.byte	$2C
	.byte	$2C
	.byte	$2C
	.byte	$2C
	.byte	$2C
	.byte	$2C
	.byte	$2C
	.byte	$0E
	.byte	$2C
	.byte	$2C
	.byte	$2C
	.byte	$2C
	.byte	$06
	.byte	$2C
	.byte	$16
	.byte	$2C
	.byte	$2C
	.byte	$28
	.byte	$1C
	.byte	$1D
	.byte	$28
	.byte	$2C
	.byte	$2C
	.byte	$0E
	.byte	$2C
	.byte	$2C
	.byte	$2C
	.byte	$2C
	.byte	$06
	.byte	$2C
	.byte	$2C
	.byte	$2C
	.byte	$2C
	.byte	$2C
	.byte	$1E
	.byte	$1F
	.byte	$2C
	.byte	$2C
	.byte	$2C
	.byte	$0E
	.byte	$2C
	.byte	$2C
	.byte	$2C
	.byte	$2C
	.byte	$06
	.byte	$2C
	.byte	$2C
	.byte	$2C
	.byte	$2C
	.byte	$2C
	.byte	$2C
	.byte	$2C
	.byte	$2C
	.byte	$2C
	.byte	$2C
	.byte	$0E
	.byte	$2C
	.byte	$2C
	.byte	$2C
	.byte	$2C
	.byte	$06
	.byte	$29
	.byte	$2C
	.byte	$29
	.byte	$2C
	.byte	$2C
	.byte	$2C
	.byte	$2C
	.byte	$2C
	.byte	$2C
	.byte	$2C
	.byte	$0E
	.byte	$2C
	.byte	$2C
	.byte	$2C
	.byte	$2C
	.byte	$04
	.byte	$0D
	.byte	$0D
	.byte	$11
	.byte	$2C
	.byte	$2C
	.byte	$2C
	.byte	$2C
	.byte	$2C
	.byte	$2C
	.byte	$2C
	.byte	$0E
	.byte	$2C
	.byte	$2C
	.byte	$2C
	.byte	$2C
	.byte	$06
	.byte	$2C
	.byte	$2C
	.byte	$2C
	.byte	$2C
	.byte	$2C
	.byte	$2C
	.byte	$2A
	.byte	$2A
	.byte	$2A
	.byte	$2C
	.byte	$0E
	.byte	$2C
	.byte	$2C
	.byte	$2C
	.byte	$2C
	.byte	$06
	.byte	$2C
	.byte	$2C
	.byte	$2C
	.byte	$2C
	.byte	$2C
	.byte	$2C
	.byte	$2A
	.byte	$16
	.byte	$2A
	.byte	$2C
	.byte	$0E
	.byte	$2C
	.byte	$2C
	.byte	$2C
	.byte	$2C
	.byte	$06
	.byte	$2C
	.byte	$2C
	.byte	$2A
	.byte	$2A
	.byte	$2A
	.byte	$2C
	.byte	$2A
	.byte	$2A
	.byte	$2A
	.byte	$2C
	.byte	$0E
	.byte	$2C
	.byte	$2C
	.byte	$2C
	.byte	$2C
_level10_2:
	.byte	$06
	.byte	$2C
	.byte	$2C
	.byte	$2A
	.byte	$16
	.byte	$2A
	.byte	$2C
	.byte	$2C
	.byte	$2C
	.byte	$2C
	.byte	$2C
	.byte	$0E
	.byte	$2C
	.byte	$2C
	.byte	$2C
	.byte	$2C
	.byte	$06
	.byte	$2C
	.byte	$2C
	.byte	$2A
	.byte	$2A
	.byte	$2A
	.byte	$2C
	.byte	$2C
	.byte	$2C
	.byte	$2C
	.byte	$2C
	.byte	$0E
	.byte	$2C
	.byte	$2C
	.byte	$2C
	.byte	$2C
	.byte	$06
	.byte	$2C
	.byte	$2C
	.byte	$2C
	.byte	$2C
	.byte	$10
	.byte	$0D
	.byte	$0D
	.byte	$0D
	.byte	$0D
	.byte	$0D
	.byte	$06
	.byte	$2C
	.byte	$2C
	.byte	$2C
	.byte	$2C
	.byte	$06
	.byte	$28
	.byte	$1C
	.byte	$1D
	.byte	$28
	.byte	$2C
	.byte	$2C
	.byte	$2C
	.byte	$2C
	.byte	$2C
	.byte	$2C
	.byte	$0E
	.byte	$2C
	.byte	$2C
	.byte	$2C
	.byte	$2C
	.byte	$06
	.byte	$2C
	.byte	$1E
	.byte	$1F
	.byte	$2C
	.byte	$2C
	.byte	$2C
	.byte	$2C
	.byte	$2C
	.byte	$2C
	.byte	$2C
	.byte	$0E
	.byte	$2C
	.byte	$2C
	.byte	$2C
	.byte	$2C
	.byte	$04
	.byte	$05
	.byte	$05
	.byte	$05
	.byte	$05
	.byte	$05
	.byte	$09
	.byte	$2C
	.byte	$2C
	.byte	$2C
	.byte	$2C
	.byte	$0E
	.byte	$2C
	.byte	$2C
	.byte	$2C
	.byte	$2C
	.byte	$04
	.byte	$07
	.byte	$07
	.byte	$07
	.byte	$07
	.byte	$07
	.byte	$07
	.byte	$15
	.byte	$2C
	.byte	$2C
	.byte	$2C
	.byte	$0E
	.byte	$2C
	.byte	$2C
	.byte	$2C
	.byte	$2C
	.byte	$06
	.byte	$2C
	.byte	$2C
	.byte	$2C
	.byte	$2C
	.byte	$2C
	.byte	$2C
	.byte	$2C
	.byte	$2C
	.byte	$2C
	.byte	$2C
	.byte	$0E
	.byte	$2C
	.byte	$2C
	.byte	$2C
	.byte	$2C
	.byte	$06
	.byte	$2C
	.byte	$2C
	.byte	$2C
	.byte	$2C
	.byte	$2C
	.byte	$2C
	.byte	$2C
	.byte	$28
	.byte	$2C
	.byte	$2C
	.byte	$0E
	.byte	$2C
	.byte	$2C
	.byte	$2C
	.byte	$2C
	.byte	$06
	.byte	$2C
	.byte	$2C
	.byte	$2C
	.byte	$2C
	.byte	$2C
	.byte	$2C
	.byte	$2C
	.byte	$2C
	.byte	$2C
	.byte	$0C
	.byte	$06
	.byte	$2C
	.byte	$2C
	.byte	$2C
	.byte	$2C
	.byte	$06
	.byte	$2C
	.byte	$2C
	.byte	$2C
	.byte	$2C
	.byte	$2C
	.byte	$28
	.byte	$2C
	.byte	$2C
	.byte	$0C
	.byte	$04
	.byte	$06
	.byte	$2C
	.byte	$2C
	.byte	$2C
	.byte	$2C
	.byte	$06
	.byte	$2C
	.byte	$2C
	.byte	$2C
	.byte	$2C
	.byte	$2C
	.byte	$2C
	.byte	$2C
	.byte	$0C
	.byte	$07
	.byte	$07
	.byte	$0A
	.byte	$2C
	.byte	$2C
	.byte	$2C
	.byte	$2C
	.byte	$06
	.byte	$2C
	.byte	$28
	.byte	$20
	.byte	$21
	.byte	$2C
	.byte	$2C
	.byte	$0C
	.byte	$06
	.byte	$2C
	.byte	$2C
	.byte	$2C
	.byte	$2C
	.byte	$2C
	.byte	$2C
	.byte	$2C
	.byte	$06
	.byte	$2C
	.byte	$2C
	.byte	$22
	.byte	$23
	.byte	$2C
	.byte	$0C
	.byte	$04
	.byte	$06
	.byte	$2C
	.byte	$1A
	.byte	$2C
	.byte	$2C
	.byte	$2C
	.byte	$2C
	.byte	$2C
	.byte	$04
	.byte	$05
	.byte	$05
	.byte	$05
	.byte	$05
	.byte	$05
	.byte	$04
	.byte	$04
	.byte	$04
	.byte	$05
	.byte	$05
	.byte	$09
	.byte	$2C
	.byte	$2C
	.byte	$2C
	.byte	$2C
_level10_enemy:
	.byte	$49
	.byte	$02
	.byte	$09
	.byte	$59
	.byte	$02
	.byte	$0A
	.byte	$31
	.byte	$02
	.byte	$07
	.byte	$24
	.byte	$02
	.byte	$06
	.byte	$71
	.byte	$02
	.byte	$06
	.byte	$91
	.byte	$02
	.byte	$02
	.byte	$2A
	.byte	$01
	.byte	$06
	.byte	$9C
	.byte	$00
	.byte	$01
	.byte	$FF
_level_starting_nt:
	.byte	$00
	.byte	$03
_valrigard_starting_nt:
	.byte	$02
_valrigard_inital_coords:
	.byte	$4D
_level_nametables:
	.addr	_level10_0
	.addr	_level10_1
	.addr	_level10_2
	.addr	_level10_0
_level_names:
	.addr	L044F
	.addr	L0451
_level_enemy_data:
	.addr	_level10_enemy
_palette_bg:
	.byte	$0F
	.byte	$00
	.byte	$10
	.byte	$30
	.byte	$0F
	.byte	$01
	.byte	$11
	.byte	$31
	.byte	$0F
	.byte	$06
	.byte	$16
	.byte	$26
	.byte	$0F
	.byte	$17
	.byte	$27
	.byte	$38
_palette_sp:
	.byte	$0F
	.byte	$16
	.byte	$27
	.byte	$37
	.byte	$0F
	.byte	$01
	.byte	$0F
	.byte	$32
	.byte	$0F
	.byte	$04
	.byte	$14
	.byte	$24
	.byte	$0F
	.byte	$30
	.byte	$16
	.byte	$00
_shuffle_array:
	.byte	$00
	.byte	$01
	.byte	$02
	.byte	$03
	.byte	$04
	.byte	$05
	.byte	$06
	.byte	$07
	.byte	$08
	.byte	$09
	.byte	$0A
	.byte	$0B
	.byte	$0C
	.byte	$0D
	.byte	$0E
	.byte	$0F
	.byte	$10
	.byte	$11
	.byte	$12
	.byte	$13
	.byte	$14
	.byte	$15
	.byte	$16
	.byte	$17
	.byte	$18
	.byte	$19
	.byte	$1A
	.byte	$1B
	.byte	$1C
	.byte	$1D
	.byte	$1E
	.byte	$1F
	.byte	$1F
	.byte	$1E
	.byte	$1D
	.byte	$1C
	.byte	$1B
	.byte	$1A
	.byte	$19
	.byte	$18
	.byte	$17
	.byte	$16
	.byte	$15
	.byte	$14
	.byte	$13
	.byte	$12
	.byte	$11
	.byte	$10
	.byte	$0F
	.byte	$0E
	.byte	$0D
	.byte	$0C
	.byte	$0B
	.byte	$0A
	.byte	$09
	.byte	$08
	.byte	$07
	.byte	$06
	.byte	$05
	.byte	$04
	.byte	$03
	.byte	$02
	.byte	$01
	.byte	$00
	.byte	$00
	.byte	$02
	.byte	$04
	.byte	$06
	.byte	$08
	.byte	$0A
	.byte	$0C
	.byte	$0E
	.byte	$10
	.byte	$12
	.byte	$14
	.byte	$16
	.byte	$18
	.byte	$1A
	.byte	$1C
	.byte	$1E
	.byte	$01
	.byte	$03
	.byte	$05
	.byte	$07
	.byte	$09
	.byte	$0B
	.byte	$0D
	.byte	$0F
	.byte	$11
	.byte	$13
	.byte	$15
	.byte	$17
	.byte	$19
	.byte	$1B
	.byte	$1D
	.byte	$1F
	.byte	$1F
	.byte	$1D
	.byte	$1B
	.byte	$19
	.byte	$17
	.byte	$15
	.byte	$13
	.byte	$11
	.byte	$0F
	.byte	$0D
	.byte	$0B
	.byte	$09
	.byte	$07
	.byte	$05
	.byte	$03
	.byte	$01
	.byte	$1E
	.byte	$1C
	.byte	$1A
	.byte	$18
	.byte	$16
	.byte	$14
	.byte	$12
	.byte	$10
	.byte	$0E
	.byte	$0C
	.byte	$0A
	.byte	$08
	.byte	$06
	.byte	$04
	.byte	$02
	.byte	$00
_draw_screen_sub_lookup_addr_0:
	.byte	$00
	.byte	$40
	.byte	$80
	.byte	$C0
_draw_screen_sub_lookup_index_offset_0:
	.byte	$00
	.byte	$04
	.byte	$08
	.byte	$0C
_draw_screen_sub_lookup_addr_1:
	.byte	$20
	.byte	$60
	.byte	$A0
	.byte	$E0
_draw_screen_sub_lookup_index_offset_1:
	.byte	$02
	.byte	$06
	.byte	$0A
	.byte	$0E
_leftright_movement_offset_lookup_table:
	.byte	$FF
	.byte	$0F
_leftright_movement_moving_lookup_table:
	.byte	$FF
	.byte	$01
_updown_movement_offset_lookup_table:
	.byte	$FF
	.byte	$0F
_korbat_sprite_lookup_table:
	.addr	_korbat_left
	.addr	_korbat_right
L044F:
	.byte	$4D,$6F,$63,$6B,$75,$70,$20,$4C,$65,$76,$65,$6C,$20,$31,$30,$00
L0451:
	.byte	$4E,$75,$6C,$6C,$00

.segment	"BSS"

.segment	"ZEROPAGE"
_pad1:
	.res	1,$00
_pad1_new:
	.res	1,$00
_collision:
	.res	1,$00
_collision_L:
	.res	1,$00
_collision_R:
	.res	1,$00
_collision_U:
	.res	1,$00
_collision_D:
	.res	1,$00
_coordinates:
	.res	1,$00
_temp1:
	.res	1,$00
_temp2:
	.res	1,$00
_temp3:
	.res	1,$00
_temp4:
	.res	1,$00
_temp5:
	.res	2,$00
_temp6:
	.res	2,$00
_temppointer:
	.res	2,$00
_eject_L:
	.res	1,$00
_eject_R:
	.res	1,$00
_eject_D:
	.res	1,$00
_eject_U:
	.res	1,$00
_player_flags:
	.res	1,$00
_address:
	.res	2,$00
_x:
	.res	1,$00
_y:
	.res	1,$00
_nt:
	.res	1,$00
_index:
	.res	1,$00
_map:
	.res	1,$00
_scroll_x:
	.res	2,$00
_pseudo_scroll_y:
	.res	2,$00
_scroll_y:
	.res	2,$00
_min_scroll_y:
	.res	2,$00
_max_scroll_y:
	.res	2,$00
_initial_scroll:
	.res	2,$00
_scroll_count:
	.res	1,$00
_L_R_switch:
	.res	1,$00
_old_x:
	.res	2,$00
_old_y:
	.res	2,$00
_temp_x:
	.res	1,$00
_temp_y:
	.res	1,$00
_level_index:
	.res	1,$00
_energy:
	.res	1,$00
_stars:
	.res	1,$00
_pointer:
	.res	2,$00
_timer:
	.res	1,$00
_song:
	.res	1,$00
_nt_min:
	.res	1,$00
_nt_max:
	.res	1,$00
_nt_current:
	.res	1,$00
.segment	"BSS"
_score:
	.res	2,$00
_c_map:
	.res	240,$00
_c_map2:
	.res	240,$00
_hitbox:
	.res	4,$00
_enemies:
	.res	160,$00
_hitbox2:
	.res	4,$00
_debug_tile_x:
	.res	1,$00
_debug_tile_y:
	.res	1,$00

; ---------------------------------------------------------------
; void __near__ draw_sprites (void)
; ---------------------------------------------------------------

.segment	"CODE"

.proc	_draw_sprites: near

.segment	"CODE"

;
; oam_clear();
;
	jsr     _oam_clear
;
; temp1 = valrigard.x >> 8;
;
	lda     _valrigard+1
	sta     _temp1
;
; temp2 = valrigard.y >> 8;
;
	lda     _valrigard+3
	sta     _temp2
;
; if (DIRECTION == LEFT) {
;
	lda     _player_flags
	and     #$01
	bne     L0613
;
; oam_meta_spr(temp1, temp2, valrigardIdleLeft);
;
	jsr     decsp2
	lda     _temp1
	ldy     #$01
	sta     (sp),y
	lda     _temp2
	dey
	sta     (sp),y
	lda     #<(_valrigardIdleLeft)
	ldx     #>(_valrigardIdleLeft)
;
; } else {
;
	jmp     L0A1C
;
; oam_meta_spr(temp1, temp2, valrigardIdleRight);
;
L0613:	jsr     decsp2
	lda     _temp1
	ldy     #$01
	sta     (sp),y
	lda     _temp2
	dey
	sta     (sp),y
	lda     #<(_valrigardIdleRight)
	ldx     #>(_valrigardIdleRight)
L0A1C:	jsr     _oam_meta_spr
;
; temp1 = get_frame_count() & 3;
;
	jsr     _get_frame_count
	and     #$03
	sta     _temp1
;
; temp1 = temp1 << 8; // * 32, since that's the size of our shuffle array.
;
	lda     #$00
	sta     _temp1
;
; for (x = 0; x < MAX_ENEMIES; ++x) {
;
	sta     _x
L0A20:	lda     _x
	cmp     #$20
	jcs     L0A23
;
; y = shuffle_array[temp1];
;
	ldy     _temp1
	lda     _shuffle_array,y
	sta     _y
;
; ++temp1;
;
	inc     _temp1
;
; temp2 = enemies.flags_type[y];
;
	ldy     _y
	lda     _enemies+128,y
	sta     _temp2
;
; if (temp2 == 0) continue;
;
	lda     _temp2
	jeq     L0A22
;
; if (!IS_ENEMY_ACTIVE(y)) continue;
;
	ldy     _y
	lda     _enemies+128,y
	and     #$80
	jeq     L0A22
;
; temp_x = enemies.x[y];
;
	ldy     _y
	lda     _enemies,y
	sta     _temp_x
;
; if (temp_x == 0) temp_x = 1; // Basing this off NESDoug's report of problems with temp_x = 0.
;
	lda     _temp_x
	bne     L0A21
	lda     #$01
	sta     _temp_x
;
; if (temp_x > 0xf0) continue;
;
L0A21:	lda     _temp_x
	cmp     #$F1
	jcs     L0A22
;
; temp_y = enemies.y[y];
;
	ldy     _y
	lda     _enemies+32,y
	sta     _temp_y
;
; if (temp_y < 0xf0) {
;
	cmp     #$F0
	jcs     L0A22
;
; switch (GET_ENEMY_TYPE(y)) {
;
	ldy     _x
	lda     _enemies+128,y
	and     #$0F
;
; }
;
	cmp     #$01
	beq     L0653
	cmp     #$06
	jeq     L067A
	cmp     #$07
	beq     L0667
	cmp     #$09
	beq     L066D
	cmp     #$0A
	jeq     L0674
	jmp     L067A
;
; temp3 = ENEMY_DIRECTION(y) >> 6;
;
L0653:	ldy     _y
	lda     _enemies+128,y
	and     #$40
	lsr     a
	lsr     a
	lsr     a
	lsr     a
	lsr     a
	lsr     a
	sta     _temp3
;
; temppointer = korbat_sprite_lookup_table[temp3];
;
	ldx     #$00
	lda     _temp3
	asl     a
	bcc     L0A1F
	inx
	clc
L0A1F:	adc     #<(_korbat_sprite_lookup_table)
	sta     ptr1
	txa
	adc     #>(_korbat_sprite_lookup_table)
	sta     ptr1+1
	ldy     #$01
	lda     (ptr1),y
	sta     _temppointer+1
	dey
	lda     (ptr1),y
	sta     _temppointer
;
; oam_meta_spr(temp_x, temp_y, temppointer);
;
	jsr     decsp2
	lda     _temp_x
	iny
	sta     (sp),y
	lda     _temp_y
	dey
	sta     (sp),y
	lda     _temppointer
	ldx     _temppointer+1
;
; break;
;
	jmp     L0A1D
;
; oam_meta_spr(temp_x, temp_y, sun0);
;
L0667:	jsr     decsp2
	lda     _temp_x
	ldy     #$01
	sta     (sp),y
	lda     _temp_y
	dey
	sta     (sp),y
	lda     #<(_sun0)
	ldx     #>(_sun0)
;
; break;
;
	jmp     L0A1D
;
; oam_spr(temp_x, temp_y, CANNONBALL_SPRITE_OFFSET, 1);
;
L066D:	jsr     decsp3
	lda     _temp_x
	ldy     #$02
	sta     (sp),y
	lda     _temp_y
	dey
	sta     (sp),y
	lda     #$18
	dey
	sta     (sp),y
	lda     #$01
	jsr     _oam_spr
;
; break;
;
	jmp     L0A22
;
; oam_spr(temp_x, temp_y, ACIDDROP_SPRITE_OFFSET, 3);
;
L0674:	jsr     decsp3
	lda     _temp_x
	ldy     #$02
	sta     (sp),y
	lda     _temp_y
	dey
	sta     (sp),y
	lda     #$17
	dey
	sta     (sp),y
	lda     #$03
	jsr     _oam_spr
;
; break;
;
	jmp     L0A22
;
; oam_meta_spr(temp_x, temp_y, spikeball);
;
L067A:	jsr     decsp2
	lda     _temp_x
	ldy     #$01
	sta     (sp),y
	lda     _temp_y
	dey
	sta     (sp),y
	lda     #<(_spikeball)
	ldx     #>(_spikeball)
L0A1D:	jsr     _oam_meta_spr
;
; for (x = 0; x < MAX_ENEMIES; ++x) {
;
L0A22:	inc     _x
	jmp     L0A20
;
; temp1 = energy >> 4; 
;
L0A23:	lda     _energy
	lsr     a
	lsr     a
	lsr     a
	lsr     a
	sta     _temp1
;
; oam_spr(200, 28, temp1, 1);
;
	jsr     decsp3
	lda     #$C8
	ldy     #$02
	sta     (sp),y
	lda     #$1C
	dey
	sta     (sp),y
	lda     _temp1
	dey
	sta     (sp),y
	lda     #$01
	jsr     _oam_spr
;
; temp1 = energy & 0x0f;
;
	lda     _energy
	and     #$0F
	sta     _temp1
;
; oam_spr(208, 28, temp1, 1);
;
	jsr     decsp3
	lda     #$D0
	ldy     #$02
	sta     (sp),y
	lda     #$1C
	dey
	sta     (sp),y
	lda     _temp1
	dey
	sta     (sp),y
	lda     #$01
	jsr     _oam_spr
;
; y = 4;
;
	lda     #$04
	sta     _y
;
; for (x = 200; x <= 232; x+=8) {
;
	lda     #$C8
L0A1E:	sta     _x
	cmp     #$E9
	bcs     L0690
;
; oam_spr(x, 20, score_string[y], 3);
;
	jsr     decsp3
	lda     _x
	ldy     #$02
	sta     (sp),y
	lda     #$14
	dey
	sta     (sp),y
	ldy     _y
	lda     _score_string,y
	ldy     #$00
	sta     (sp),y
	lda     #$03
	jsr     _oam_spr
;
; --y;
;
	dec     _y
;
; for (x = 200; x <= 232; x+=8) {
;
	lda     #$08
	clc
	adc     _x
	jmp     L0A1E
;
; oam_spr(232, 42, STATUS_DEAD, 2);
;
L0690:	jsr     decsp3
	lda     #$E8
	ldy     #$02
	sta     (sp),y
	lda     #$2A
	dey
	sta     (sp),y
	lda     _player_flags
	and     #$02
	dey
	sta     (sp),y
	lda     #$02
	jsr     _oam_spr
;
; oam_spr(200, 50, debug_tile_x >> 4, 1);
;
	jsr     decsp3
	lda     #$C8
	ldy     #$02
	sta     (sp),y
	lda     #$32
	dey
	sta     (sp),y
	lda     _debug_tile_x
	lsr     a
	lsr     a
	lsr     a
	lsr     a
	dey
	sta     (sp),y
	lda     #$01
	jsr     _oam_spr
;
; oam_spr(208, 50, debug_tile_x & 0x0f, 1);
;
	jsr     decsp3
	lda     #$D0
	ldy     #$02
	sta     (sp),y
	lda     #$32
	dey
	sta     (sp),y
	lda     _debug_tile_x
	and     #$0F
	dey
	sta     (sp),y
	lda     #$01
	jsr     _oam_spr
;
; oam_spr(224, 50, debug_tile_y >> 4, 1);
;
	jsr     decsp3
	lda     #$E0
	ldy     #$02
	sta     (sp),y
	lda     #$32
	dey
	sta     (sp),y
	lda     _debug_tile_y
	lsr     a
	lsr     a
	lsr     a
	lsr     a
	dey
	sta     (sp),y
	lda     #$01
	jsr     _oam_spr
;
; oam_spr(232, 50, debug_tile_y & 0x0f, 1);
;
	jsr     decsp3
	lda     #$E8
	ldy     #$02
	sta     (sp),y
	lda     #$32
	dey
	sta     (sp),y
	lda     _debug_tile_y
	and     #$0F
	dey
	sta     (sp),y
	lda     #$01
	jmp     _oam_spr

.endproc

; ---------------------------------------------------------------
; void __near__ movement (void)
; ---------------------------------------------------------------

.segment	"CODE"

.proc	_movement: near

.segment	"CODE"

;
; old_x = valrigard.x;
;
	lda     _valrigard+1
	sta     _old_x+1
	lda     _valrigard
	sta     _old_x
;
; if (pad1 & PAD_LEFT) {
;
	lda     _pad1
	and     #$02
	beq     L0A2E
;
; SET_DIRECTION_LEFT();
;
	lda     _player_flags
	and     #$FE
	sta     _player_flags
;
; if (valrigard.x <= 0x0200) { // Changed by 1 from nesdoug's example because Valrigard's hitbox is narrower by 1 pixel on both sides
;
	lda     _valrigard+1
	cmp     #$02
	bne     L06C4
	lda     _valrigard
	cmp     #$01
L06C4:	bcs     L06C2
;
; valrigard.velocity_x = 0;
;
	lda     #$00
	sta     _valrigard+4
	sta     _valrigard+4+1
;
; valrigard.x = 0x200;
;
	ldx     #$02
	sta     _valrigard
	stx     _valrigard+1
;
; } else if (valrigard.x < 0x0600) { // Don't allow us to wrap to the other side
;
	jmp     L06E5
L06C2:	ldx     _valrigard+1
	cpx     #$06
	bcs     L06CA
;
; valrigard.velocity_x = -0x100;
;
	ldx     #$FF
	lda     #$00
;
; } else {
;
	jmp     L0A30
;
; valrigard.velocity_x = -SPEED;
;
L06CA:	ldx     #$FE
	lda     #$B0
;
; else if (pad1 & PAD_RIGHT){
;
	jmp     L0A30
L0A2E:	lda     _pad1
	ldx     #$00
	and     #$01
	beq     L0A30
;
; SET_DIRECTION_RIGHT();
;
	lda     _player_flags
	ora     #$01
	sta     _player_flags
;
; if (valrigard.x >= 0xf000) {  // Also changed by 1 from nesdoug's example because Valrigard's hitbox is narrower by 1 pixel on both sides
;
	lda     _valrigard
	cmp     #$00
	lda     _valrigard+1
	sbc     #$F0
	bcc     L06D7
;
; valrigard.velocity_x = 0;
;
	txa
	sta     _valrigard+4
	sta     _valrigard+4+1
;
; valrigard.x = 0xf000; // ...and we'd add 0x100 to this constant here (and the 0x200 in the PAD_LEFT block would be a 0x100)
;
	ldx     #$F0
	sta     _valrigard
	stx     _valrigard+1
;
; } else if (valrigard.x > 0xec00) { // Don't allow us to wrap to the other side
;
	jmp     L06E5
L06D7:	lda     _valrigard
	cmp     #$01
	lda     _valrigard+1
	sbc     #$EC
	bcc     L06DE
;
; valrigard.velocity_x = 0x100;
;
	inx
	lda     #$00
;
; } else {
;
	jmp     L0A30
;
; valrigard.velocity_x = SPEED;
;
L06DE:	inx
	lda     #$50
;
; valrigard.velocity_x = 0;
;
L0A30:	sta     _valrigard+4
	stx     _valrigard+4+1
;
; valrigard.x += valrigard.velocity_x;
;
L06E5:	lda     _valrigard+4
	clc
	adc     _valrigard
	sta     _valrigard
	lda     _valrigard+4+1
	adc     _valrigard+1
	sta     _valrigard+1
;
; if((valrigard.x < 0x100)||(valrigard.x > 0xf800)) { // make sure no wrap around to the other side
;
	ldx     _valrigard+1
	cpx     #$01
	bcc     L0A31
	lda     _valrigard
	cmp     #$01
	lda     _valrigard+1
	sbc     #$F8
	bcc     L0A32
;
; valrigard.x = 0x100;
;
L0A31:	ldx     #$01
	lda     #$00
	sta     _valrigard
	stx     _valrigard+1
;
; L_R_switch = 1; // Shrinks the Y values in bg_coll. This makes head/foot collisions less problematic (examine this)
;
L0A32:	lda     #$01
	sta     _L_R_switch
;
; hitbox.x = high_byte(valrigard.x);
;
	lda     _valrigard+1
	sta     _hitbox
;
; hitbox.y = high_byte(valrigard.y);
;
	lda     _valrigard+3
	sta     _hitbox+1
;
; hitbox.width = VALRIGARD_WIDTH;
;
	lda     #$0B
	sta     _hitbox+2
;
; hitbox.height = VALRIGARD_HEIGHT;
;
	lda     #$0D
	sta     _hitbox+3
;
; bg_collision();
;
	jsr     _bg_collision
;
; if (collision_L && collision_R) { // Half-stuck in a wall, I'm guessing?
;
	lda     _collision_L
	beq     L06FE
	lda     _collision_R
	beq     L06FE
;
; valrigard.x = old_x;
;
	lda     _old_x+1
	sta     _valrigard+1
	lda     _old_x
	sta     _valrigard
;
; else if (collision_L) {
;
	jmp     L070B
L06FE:	lda     _collision_L
	beq     L0705
;
; valrigard.x -= (eject_L << 8);
;
	lda     #$FF
	sec
	adc     _valrigard
	sta     _valrigard
	lda     _eject_L
;
; else if (collision_R) {
;
	jmp     L0A3D
L0705:	lda     _collision_R
	beq     L070B
;
; valrigard.x -= (eject_R << 8);
;
	lda     #$FF
	sec
	adc     _valrigard
	sta     _valrigard
	lda     _eject_R
L0A3D:	eor     #$FF
	adc     _valrigard+1
	sta     _valrigard+1
;
; old_y = valrigard.y;
;
L070B:	lda     _valrigard+2+1
	sta     _old_y+1
	lda     _valrigard+2
	sta     _old_y
;
; if (pad1 & PAD_UP && energy > 0) { // If we're holding up on the DPad...
;
	lda     _pad1
	and     #$08
	beq     L0712
	lda     _energy
	beq     L0712
;
; valrigard.velocity_y -= GRAVITY;
;
	lda     _valrigard+6
	sec
	sbc     #$30
	sta     _valrigard+6
	bcs     L0718
	dec     _valrigard+6+1
;
; if (valrigard.velocity_y < -SPEED) valrigard.velocity_y = -SPEED;
;
L0718:	lda     _valrigard+6
	cmp     #$B0
	lda     _valrigard+6+1
	sbc     #$FE
	bvc     L071B
	eor     #$80
L071B:	bpl     L0A36
	ldx     #$FE
	lda     #$B0
	sta     _valrigard+6
	stx     _valrigard+6+1
;
; energy -= 1;
;
L0A36:	dec     _energy
;
; } else {
;
	jmp     L0724
;
; valrigard.velocity_y += GRAVITY;
;
L0712:	lda     #$30
	clc
	adc     _valrigard+6
	sta     _valrigard+6
	bcc     L0723
	inc     _valrigard+6+1
;
; if (valrigard.velocity_y > MAX_FALL) valrigard.velocity_y = MAX_FALL;
;
L0723:	lda     _valrigard+6
	cmp     #$51
	lda     _valrigard+6+1
	sbc     #$01
	bvs     L0726
	eor     #$80
L0726:	bpl     L0724
	ldx     #$01
	lda     #$50
	sta     _valrigard+6
	stx     _valrigard+6+1
;
; valrigard.y += valrigard.velocity_y;
;
L0724:	lda     _valrigard+6
	clc
	adc     _valrigard+2
	sta     _valrigard+2
	lda     _valrigard+6+1
	adc     _valrigard+2+1
	sta     _valrigard+2+1
;
; if (valrigard.y < 0x100)  valrigard.y = 0x100;
;
	ldx     _valrigard+2+1
	cpx     #$01
	bcs     L072B
	ldx     #$01
	lda     #$00
	sta     _valrigard+2
	stx     _valrigard+2+1
;
; if (valrigard.y > 0xf000) valrigard.y = 0xf000;
;
L072B:	lda     _valrigard+2
	cmp     #$01
	lda     _valrigard+2+1
	sbc     #$F0
	lda     #$00
	bcc     L0A38
	ldx     #$F0
	sta     _valrigard+2
	stx     _valrigard+2+1
;
; L_R_switch = 0;
;
L0A38:	sta     _L_R_switch
;
; hitbox.x = high_byte(valrigard.x);
;
	lda     _valrigard+1
	sta     _hitbox
;
; hitbox.y = high_byte(valrigard.y);
;
	lda     _valrigard+3
	sta     _hitbox+1
;
; bg_collision();
;
	jsr     _bg_collision
;
; if(collision_U) {
;
	lda     _collision_U
	beq     L073C
;
; high_byte(valrigard.y) -= eject_U;
;
	lda     _eject_U
	eor     #$FF
	sec
	adc     _valrigard+3
	sta     _valrigard+3
;
; else if (collision_D) {
;
	jmp     L0749
L073C:	lda     _collision_D
	beq     L0749
;
; high_byte(valrigard.y) -= eject_D;
;
	lda     _eject_D
	eor     #$FF
	sec
	adc     _valrigard+3
	sta     _valrigard+3
;
; energy += 4;
;
	lda     #$04
	clc
	adc     _energy
	sta     _energy
;
; if (energy > MAX_ENERGY) energy = MAX_ENERGY;
;
	cmp     #$71
	bcc     L0749
	lda     #$70
	sta     _energy
;
; temp5 = valrigard.y;
;
L0749:	lda     _valrigard+2+1
	sta     _temp5+1
	lda     _valrigard+2
	sta     _temp5
;
; if (valrigard.y < MAX_UP && scroll_y > min_scroll_y) {
;
	ldx     _valrigard+2+1
	cpx     #$40
	bcs     L074F
	lda     _scroll_y
	sec
	sbc     _min_scroll_y
	sta     tmp1
	lda     _scroll_y+1
	sbc     _min_scroll_y+1
	ora     tmp1
	beq     L074F
	bcc     L074F
;
; temp1 = (MAX_UP - valrigard.y + 0x80) >> 8; // "the numbers work better with +80 (like 0.5)". I'll take his word for it.
;
	lda     #$00
	sec
	sbc     _valrigard+2
	pha
	lda     #$40
	sbc     _valrigard+2+1
	tax
	pla
	clc
	adc     #$80
	bcc     L0756
	inx
L0756:	txa
	sta     _temp1
;
; scroll_y = sub_scroll_y(temp1, scroll_y);
;
	jsr     pusha
	lda     _scroll_y
	ldx     _scroll_y+1
	jsr     _sub_scroll_y
	sta     _scroll_y
	stx     _scroll_y+1
;
; valrigard.y += (temp1 << 8);
;
	lda     #$00
	clc
	adc     _valrigard+2
	sta     _valrigard+2
	lda     _temp1
	adc     _valrigard+2+1
	sta     _valrigard+2+1
;
; if (valrigard.y > MIN_DOWN && scroll_y < max_scroll_y) {
;
L074F:	lda     _valrigard+2
	cmp     #$01
	lda     _valrigard+2+1
	sbc     #$80
	bcc     L075E
	lda     _scroll_y
	cmp     _max_scroll_y
	lda     _scroll_y+1
	sbc     _max_scroll_y+1
	bcs     L075E
;
; temp1 = (MIN_DOWN + valrigard.y + 0x80) >> 8;
;
	lda     _valrigard+2
	pha
	lda     _valrigard+2+1
	clc
	adc     #$80
	tax
	pla
	clc
	adc     #$80
	bcc     L0765
	inx
L0765:	txa
	sta     _temp1
;
; scroll_y = add_scroll_y(temp1, scroll_y);
;
	jsr     pusha
	lda     _scroll_y
	ldx     _scroll_y+1
	jsr     _add_scroll_y
	sta     _scroll_y
	stx     _scroll_y+1
;
; valrigard.y -= (temp1 << 8);
;
	lda     #$FF
	sec
	adc     _valrigard+2
	sta     _valrigard+2
	lda     _temp1
	eor     #$FF
	adc     _valrigard+2+1
	sta     _valrigard+2+1
;
; if (valrigard.velocity_y <= 0) {
;
L075E:	lda     _valrigard+6
	cmp     #$01
	lda     _valrigard+6+1
	sbc     #$00
	bvc     L076F
	eor     #$80
L076F:	bpl     L076D
;
; if ((scroll_y & 0xff) >= 0xec) {
;
	lda     _scroll_y
	cmp     #$EC
	bcc     L0778
;
; nt_current = (scroll_y >> 8);
;
	lda     _scroll_y+1
	sta     _nt_current
;
; new_cmap();
;
	jmp     _new_cmap
;
; if ((scroll_y & 0xff) <= 0x02) {
;
L076D:	lda     _scroll_y
	cmp     #$03
	bcs     L0778
;
; nt_current = (scroll_y >> 8) + 1;
;
	lda     _scroll_y+1
	clc
	adc     #$01
	sta     _nt_current
;
; new_cmap();
;
	jmp     _new_cmap
;
; }
;
L0778:	rts

.endproc

; ---------------------------------------------------------------
; void __near__ load_level (void)
; ---------------------------------------------------------------

.segment	"CODE"

.proc	_load_level: near

.segment	"CODE"

;
; clear_object_bitfield(); // Clear all object destruction flags
;
	jsr     _clear_object_bitfield
;
; player_flags = 0; // Clear the player flags
;
	lda     #$00
	sta     _player_flags
;
; nt_max = level_starting_nt[level_index+1];
;
	tax
	lda     _level_index
	clc
	adc     #$01
	bcc     L054F
	inx
L054F:	sta     ptr1
	txa
	clc
	adc     #>(_level_starting_nt)
	sta     ptr1+1
	ldy     #<(_level_starting_nt)
	lda     (ptr1),y
	sta     _nt_max
;
; nt_current = valrigard_starting_nt[level_index];
;
	ldy     _level_index
	lda     _valrigard_starting_nt,y
	sta     _nt_current
;
; high_byte(scroll_y) = nt_current; // The high byte of scroll_y is the nametable we're currently in (0-255).
;
	sta     _scroll_y+1
;
; low_byte(scroll_y) = 2;
;
	lda     #$02
	sta     _scroll_y
;
; high_byte(max_scroll_y) = nt_max - 1; // bottom of this level
;
	lda     _nt_max
	sec
	sbc     #$01
	sta     _max_scroll_y+1
;
; low_byte(max_scroll_y) = 0xef;
;
	lda     #$EF
	sta     _max_scroll_y
;
; high_byte(min_scroll_y) = level_starting_nt[level_index]; // Min Scroll
;
	ldy     _level_index
	lda     _level_starting_nt,y
	sta     _min_scroll_y+1
;
; low_byte(min_scroll_y) = 0x02;
;
	lda     #$02
	sta     _min_scroll_y
;
; scroll_count = 0;
;
	lda     #$00
	sta     _scroll_count
;
; initial_scroll = ((nt_current * 0x100) - 0x11);
;
	ldx     _nt_current
	sec
	sbc     #$11
	bcs     L056F
	dex
L056F:	sta     _initial_scroll
	stx     _initial_scroll+1
;
; temp4 = valrigard_inital_coords[level_index];
;
	ldy     _level_index
	lda     _valrigard_inital_coords,y
	sta     _temp4
;
; valrigard.x = (temp4 & 0xf0) << 8;
;
	and     #$F0
	sta     _valrigard+1
	lda     #$00
	sta     _valrigard
;
; valrigard.y = ((temp4 & 0x0f) * 16) << 8;
;
	lda     _temp4
	and     #$0F
	asl     a
	asl     a
	asl     a
	asl     a
	sta     _valrigard+2+1
	lda     #$00
	sta     _valrigard+2
;
; }
;
	rts

.endproc

; ---------------------------------------------------------------
; void __near__ load_room (void)
; ---------------------------------------------------------------

.segment	"CODE"

.proc	_load_room: near

.segment	"CODE"

;
; set_data_pointer(level_nametables[nt_current]);
;
	ldx     #$00
	lda     _nt_current
	asl     a
	bcc     L0A4A
	inx
	clc
L0A4A:	adc     #<(_level_nametables)
	sta     ptr1
	txa
	adc     #>(_level_nametables)
	sta     ptr1+1
	ldy     #$01
	lda     (ptr1),y
	tax
	dey
	lda     (ptr1),y
	jsr     _set_data_pointer
;
; set_mt_pointer(metatiles);
;
	lda     #<(_metatiles)
	ldx     #>(_metatiles)
	jsr     _set_mt_pointer
;
; temp1 = (initial_scroll >> 8) + 1;
;
	lda     _initial_scroll+1
	clc
	adc     #$01
	sta     _temp1
;
; temp1 = (temp1 & 1) << 1;
;
	and     #$01
	asl     a
	sta     _temp1
;
; for(y=0; ;y+=0x20){
;
	lda     #$00
L0A47:	sta     _y
;
; for(x=0; ;x+=0x20){
;
	lda     #$00
L0A46:	sta     _x
;
; clear_vram_buffer(); // do each frame, and before putting anything in the buffer
;
	jsr     _clear_vram_buffer
;
; address = get_ppu_addr(temp1, x, y);
;
	jsr     decsp2
	lda     _temp1
	ldy     #$01
	sta     (sp),y
	lda     _x
	dey
	sta     (sp),y
	lda     _y
	jsr     _get_ppu_addr
	sta     _address
	stx     _address+1
;
; index = (y & 0xf0) + (x >> 4);
;
	lda     _y
	and     #$F0
	sta     ptr1
	lda     _x
	lsr     a
	lsr     a
	lsr     a
	lsr     a
	clc
	adc     ptr1
	sta     _index
;
; buffer_4_mt(address, index); // ppu_address, index to the data
;
	lda     _address
	ldx     _address+1
	jsr     pushax
	lda     _index
	jsr     _buffer_4_mt
;
; flush_vram_update_nmi();
;
	jsr     _flush_vram_update_nmi
;
; if (x == 0xe0) break;
;
	lda     _x
	cmp     #$E0
	beq     L0A4D
;
; for(x=0; ;x+=0x20){
;
	lda     #$20
	clc
	adc     _x
	jmp     L0A46
;
; if (y == 0xe0) break;
;
L0A4D:	lda     _y
	cmp     #$E0
	beq     L0A4E
;
; for(y=0; ;y+=0x20){
;
	lda     #$20
	clc
	adc     _y
	jmp     L0A47
;
; temp1 = temp1 ^ 2; // flip that 0000 0010 bit
;
L0A4E:	lda     _temp1
	eor     #$02
	sta     _temp1
;
; set_data_pointer(level_nametables[(char)nt_current-1]); // NOTE: Don't call if nt_current = 0, or who really knows what will happen
;
	ldx     #$00
	lda     _nt_current
	sec
	sbc     #$01
	bcs     L05AF
	dex
L05AF:	stx     tmp1
	asl     a
	rol     tmp1
	clc
	adc     #<(_level_nametables)
	sta     ptr1
	lda     tmp1
	adc     #>(_level_nametables)
	sta     ptr1+1
	ldy     #$01
	lda     (ptr1),y
	tax
	dey
	lda     (ptr1),y
	jsr     _set_data_pointer
;
; for(x=0; ;x+=0x20){
;
	lda     #$00
L0A48:	sta     _x
;
; y = 0xe0;
;
	lda     #$E0
	sta     _y
;
; clear_vram_buffer(); // do each frame, and before putting anything in the buffer
;
	jsr     _clear_vram_buffer
;
; address = get_ppu_addr(temp1, x, y);
;
	jsr     decsp2
	lda     _temp1
	ldy     #$01
	sta     (sp),y
	lda     _x
	dey
	sta     (sp),y
	lda     _y
	jsr     _get_ppu_addr
	sta     _address
	stx     _address+1
;
; index = (y & 0xf0) + (x >> 4);
;
	lda     _y
	and     #$F0
	sta     ptr1
	lda     _x
	lsr     a
	lsr     a
	lsr     a
	lsr     a
	clc
	adc     ptr1
	sta     _index
;
; buffer_4_mt(address, index); // ppu_address, index to the data
;
	lda     _address
	ldx     _address+1
	jsr     pushax
	lda     _index
	jsr     _buffer_4_mt
;
; flush_vram_update_nmi();
;
	jsr     _flush_vram_update_nmi
;
; if (x == 0xe0) break;
;
	lda     _x
	cmp     #$E0
	beq     L05B1
;
; for(x=0; ;x+=0x20){
;
	lda     #$20
	clc
	adc     _x
	jmp     L0A48
;
; clear_vram_buffer();
;
L05B1:	jsr     _clear_vram_buffer
;
; memcpy(c_map, level_nametables[nt_current], 240);
;
	lda     #<(_c_map)
	ldx     #>(_c_map)
	jsr     pushax
	ldx     #$00
	lda     _nt_current
	asl     a
	bcc     L0A4B
	inx
	clc
L0A4B:	adc     #<(_level_nametables)
	sta     ptr1
	txa
	adc     #>(_level_nametables)
	sta     ptr1+1
	ldy     #$01
	lda     (ptr1),y
	tax
	dey
	lda     (ptr1),y
	jsr     pushax
	ldx     #$00
	lda     #$F0
	jsr     _memcpy
;
; max_scroll_y = scroll_y;
;
	lda     _scroll_y+1
	sta     _max_scroll_y+1
	lda     _scroll_y
	sta     _max_scroll_y
;
; pointer = level_enemy_data[level_index];
;
	ldx     #$00
	lda     _level_index
	asl     a
	bcc     L0A4C
	inx
	clc
L0A4C:	adc     #<(_level_enemy_data)
	sta     ptr1
	txa
	adc     #>(_level_enemy_data)
	sta     ptr1+1
	ldy     #$01
	lda     (ptr1),y
	sta     _pointer+1
	dey
	lda     (ptr1),y
	sta     _pointer
;
; for (x = 0, y = 0; x < MAX_ENEMIES; ++x){
;
	tya
	sta     _x
	sta     _y
L0A4F:	lda     _x
	cmp     #$20
	jcs     L0A50
;
; enemies.y[x] = 0;
;
	ldy     _x
	lda     #$00
	sta     _enemies+32,y
;
; temp1 = pointer[y]; // Get a byte of data - the bitpacked coords.
;
	lda     _pointer
	ldx     _pointer+1
	ldy     _y
	sta     ptr1
	stx     ptr1+1
	lda     (ptr1),y
	sta     _temp1
;
; if (temp1 == 0xff) break; // 0xff terminates the enemy data.
;
	cmp     #$FF
	beq     L0A50
;
; enemies.x[x] = temp1 & 0xf0;
;
	lda     #<(_enemies)
	ldx     #>(_enemies)
	clc
	adc     _x
	bcc     L05EA
	inx
L05EA:	sta     ptr1
	stx     ptr1+1
	lda     _temp1
	and     #$F0
	ldy     #$00
	sta     (ptr1),y
;
; enemies.actual_y[x] = (temp1 & 0x0f) << 4;
;
	lda     #<(_enemies+64)
	ldx     #>(_enemies+64)
	clc
	adc     _x
	bcc     L05EE
	inx
L05EE:	sta     ptr1
	stx     ptr1+1
	lda     _temp1
	and     #$0F
	asl     a
	asl     a
	asl     a
	asl     a
	sta     (ptr1),y
;
; ++y; // Next byte:
;
	inc     _y
;
; temp1 = pointer[y]; // the namtetable byte.
;
	lda     _pointer
	ldx     _pointer+1
	ldy     _y
	sta     ptr1
	stx     ptr1+1
	lda     (ptr1),y
	sta     _temp1
;
; enemies.nt[x] = temp1;
;
	ldy     _x
	lda     _temp1
	sta     _enemies+96,y
;
; ++y; // Next byte:
;
	inc     _y
;
; temp1 = pointer[y]; // the direction+type byte.
;
	lda     _pointer
	ldx     _pointer+1
	ldy     _y
	sta     ptr1
	stx     ptr1+1
	lda     (ptr1),y
	sta     _temp1
;
; enemies.flags_type[x] = temp1; 
;
	ldy     _x
	lda     _temp1
	sta     _enemies+128,y
;
; ++y; // Next byte.
;
	inc     _y
;
; for (x = 0, y = 0; x < MAX_ENEMIES; ++x){
;
	inc     _x
	jmp     L0A4F
;
; for(++x; x < MAX_ENEMIES; ++x) {
;
L0A50:	inc     _x
	lda     _x
	cmp     #$20
	bcs     L0603
;
; enemies.flags_type[x] = ENEMY_NONE;
;
	ldy     _x
	lda     #$00
	sta     _enemies+128,y
;
; for(++x; x < MAX_ENEMIES; ++x) {
;
	jmp     L0A50
;
; }
;
L0603:	rts

.endproc

; ---------------------------------------------------------------
; void __near__ bg_collision (void)
; ---------------------------------------------------------------

.segment	"CODE"

.proc	_bg_collision: near

.segment	"CODE"

;
; collision_L = 0;
;
	lda     #$00
	sta     _collision_L
;
; collision_R = 0;
;
	sta     _collision_R
;
; collision_U = 0;
;
	sta     _collision_U
;
; collision_D = 0;
;
	sta     _collision_D
;
; temp3 = hitbox.y;
;
	lda     _hitbox+1
	sta     _temp3
;
; if(L_R_switch) temp3 += 2; // fix bug, walking through walls
;
	lda     _L_R_switch
	beq     L0A52
	lda     #$02
	clc
	adc     _temp3
	sta     _temp3
;
; if(temp3 >= 0xf0) return;
;
L0A52:	lda     _temp3
	cmp     #$F0
	bcc     L0A53
;
; }
;
	rts
;
; temp5 = add_scroll_y(temp3, scroll_y); // upper left
;
L0A53:	jsr     pusha
	lda     _scroll_y
	ldx     _scroll_y+1
	jsr     _add_scroll_y
	sta     _temp5
	stx     _temp5+1
;
; temp2 = temp5 >> 8; // high byte y
;
	lda     _temp5+1
	sta     _temp2
;
; temp3 = temp5 & 0xff; // low byte y
;
	lda     _temp5
	sta     _temp3
;
; temp1 = hitbox.x; // x left
;
	lda     _hitbox
	sta     _temp1
;
; eject_L = temp1 | 0xf0;
;
	ora     #$F0
	sta     _eject_L
;
; eject_U = temp3 | 0xf0;
;
	lda     _temp3
	ora     #$F0
	sta     _eject_U
;
; bg_collision_sub();
;
	jsr     _bg_collision_sub
;
; if(collision){ // find a corner in the collision map
;
	lda     _collision
	beq     L07A1
;
; ++collision_L;
;
	inc     _collision_L
;
; ++collision_U;
;
	inc     _collision_U
;
; temp1 += hitbox.width; // x right
;
L07A1:	lda     _hitbox+2
	clc
	adc     _temp1
	sta     _temp1
;
; eject_R = (temp1 + 1) & 0x0f;
;
	clc
	adc     #$01
	and     #$0F
	sta     _eject_R
;
; bg_collision_sub();
;
	jsr     _bg_collision_sub
;
; if(collision){ // find a corner in the collision map
;
	lda     _collision
	beq     L07AC
;
; ++collision_R;
;
	inc     _collision_R
;
; ++collision_U;
;
	inc     _collision_U
;
; temp3 = hitbox.y + hitbox.height; // y bottom
;
L07AC:	lda     _hitbox+1
	clc
	adc     _hitbox+3
	sta     _temp3
;
; if(L_R_switch) temp3 -= 2; // fix bug, walking through walls
;
	lda     _L_R_switch
	beq     L07B2
	lda     _temp3
	sec
	sbc     #$02
	sta     _temp3
;
; temp5 = add_scroll_y(temp3, scroll_y); // upper left
;
L07B2:	lda     _temp3
	jsr     pusha
	lda     _scroll_y
	ldx     _scroll_y+1
	jsr     _add_scroll_y
	sta     _temp5
	stx     _temp5+1
;
; temp2 = temp5 >> 8; // high byte y
;
	lda     _temp5+1
	sta     _temp2
;
; temp3 = temp5 & 0xff; // low byte y
;
	lda     _temp5
	sta     _temp3
;
; eject_D = (temp3 + 1) & 0x0f;
;
	clc
	adc     #$01
	and     #$0F
	sta     _eject_D
;
; if(temp3 >= 0xf0) return;
;
	lda     _temp3
	cmp     #$F0
	bcs     L07CC
;
; bg_collision_sub();
;
	jsr     _bg_collision_sub
;
; if(collision){ // find a corner in the collision map
;
	lda     _collision
	beq     L07C5
;
; ++collision_R;
;
	inc     _collision_R
;
; ++collision_D;
;
	inc     _collision_D
;
; temp1 = hitbox.x; // x left
;
L07C5:	lda     _hitbox
	sta     _temp1
;
; bg_collision_sub();
;
	jsr     _bg_collision_sub
;
; if(collision){ // find a corner in the collision map
;
	lda     _collision
	beq     L07CC
;
; ++collision_L;
;
	inc     _collision_L
;
; ++collision_D;
;
	inc     _collision_D
;
; }
;
L07CC:	rts

.endproc

; ---------------------------------------------------------------
; void __near__ bg_collision_sub (void)
; ---------------------------------------------------------------

.segment	"CODE"

.proc	_bg_collision_sub: near

.segment	"CODE"

;
; coordinates = (temp1 >> 4) + (temp3 & 0xf0); 
;
	lda     _temp1
	lsr     a
	lsr     a
	lsr     a
	lsr     a
	sta     ptr1
	lda     _temp3
	and     #$F0
	clc
	adc     ptr1
	sta     _coordinates
;
; map = temp2&1;
;
	lda     _temp2
	and     #$01
	sta     _map
;
; if (!map) {
;
	lda     _map
	bne     L07D7
;
; temp4 = c_map[coordinates];
;
	ldy     _coordinates
	lda     _c_map,y
	sta     _temp4
;
; temp5 = (unsigned int)&(c_map[coordinates]); 
;
	lda     #<(_c_map)
	ldx     #>(_c_map)
;
; else {
;
	jmp     L0A5D
;
; temp4 = c_map2[coordinates];
;
L07D7:	ldy     _coordinates
	lda     _c_map2,y
	sta     _temp4
;
; temp5 = (unsigned int)&(c_map2[coordinates]);
;
	lda     #<(_c_map2)
	ldx     #>(_c_map2)
L0A5D:	clc
	adc     _coordinates
	bcc     L07EB
	inx
L07EB:	sta     _temp5
	stx     _temp5+1
;
; collision = METATILE_IS_SOLID(temp4); // 0x17 is the first non-solid tile, so if the tile is less than that, it's a collision
;
	lda     _temp4
	cmp     #$17
	bcs     L0A55
	cmp     #$04
	bcs     L0A56
L0A55:	lda     #$00
	jmp     L0A57
L0A56:	lda     #$01
L0A57:	sta     _collision
;
; if (collision) return; // Uh, we might need to do something special about conveyor tiles in the future. Hmm.
;
	lda     _collision
	bne     L07F5
;
; switch (temp4) {
;
	lda     _temp4
;
; }
;
	beq     L0A58
	cmp     #$01
	beq     L0A58
	cmp     #$02
	beq     L0A58
	cmp     #$03
	beq     L0A58
	cmp     #$2A
	beq     L0802
	cmp     #$2B
	beq     L0811
	rts
;
; SET_STATUS_DEAD();
;
L0A58:	lda     _player_flags
	ora     #$02
	sta     _player_flags
;
; break;
;
	rts
;
; *(unsigned char *)temp5 = EMPTY_TILE;
;
L0802:	lda     _temp5+1
	sta     ptr1+1
	lda     _temp5
	sta     ptr1
	lda     #$2C
	ldy     #$00
	sta     (ptr1),y
;
; score += 1;
;
	inc     _score
	bne     L0807
	inc     _score+1
;
; address = get_ppu_addr(nt, temp1, temp3 & 0xf0);
;
L0807:	jsr     decsp2
	lda     _nt
	iny
	sta     (sp),y
	lda     _temp1
	dey
	sta     (sp),y
	lda     _temp3
	and     #$F0
	jsr     _get_ppu_addr
	sta     _address
	stx     _address+1
;
; buffer_1_mt(address, EMPTY_TILE);
;
	jsr     pushax
	lda     #$2C
	jmp     _buffer_1_mt
;
; *(unsigned char *)temp5 = EMPTY_TILE;
;
L0811:	lda     _temp5+1
	sta     ptr1+1
	lda     _temp5
	sta     ptr1
	lda     #$2C
	ldy     #$00
	sta     (ptr1),y
;
; energy = MAX_ENERGY;
;
	lda     #$70
	sta     _energy
;
; break;
;
	rts
;
; }
;
L07F5:	rts

.endproc

; ---------------------------------------------------------------
; void __near__ draw_screen_sub (void)
; ---------------------------------------------------------------

.segment	"CODE"

.proc	_draw_screen_sub: near

.segment	"CODE"

;
; temp1 = pseudo_scroll_y >> 8;
;
	lda     _pseudo_scroll_y+1
	sta     _temp1
;
; set_data_pointer(level_nametables[temp1]);
;
	ldx     #$00
	lda     _temp1
	asl     a
	bcc     L0A61
	inx
	clc
L0A61:	adc     #<(_level_nametables)
	sta     ptr1
	txa
	adc     #>(_level_nametables)
	sta     ptr1+1
	ldy     #$01
	lda     (ptr1),y
	tax
	dey
	lda     (ptr1),y
	jsr     _set_data_pointer
;
; nt = (temp1 & 1) << 1; // 0 or 2
;
	lda     _temp1
	and     #$01
	asl     a
	sta     _nt
;
; y = pseudo_scroll_y & 0xff;
;
	lda     _pseudo_scroll_y
	sta     _y
;
; temp2 = draw_screen_sub_lookup_index_offset_0[scroll_count];
;
	ldy     _scroll_count
	lda     _draw_screen_sub_lookup_index_offset_0,y
	sta     _temp2
;
; temp4 = draw_screen_sub_lookup_index_offset_1[scroll_count];
;
	ldy     _scroll_count
	lda     _draw_screen_sub_lookup_index_offset_1,y
	sta     _temp4
;
; address = get_ppu_addr(nt, draw_screen_sub_lookup_addr_0[scroll_count], y);
;
	jsr     decsp2
	lda     _nt
	ldy     #$01
	sta     (sp),y
	ldy     _scroll_count
	lda     _draw_screen_sub_lookup_addr_0,y
	ldy     #$00
	sta     (sp),y
	lda     _y
	jsr     _get_ppu_addr
	sta     _address
	stx     _address+1
;
; index = (y & 0xf0) + temp2;
;
	lda     _y
	and     #$F0
	clc
	adc     _temp2
	sta     _index
;
; buffer_4_mt(address, index); // ppu_address, index to the data
;
	lda     _address
	ldx     _address+1
	jsr     pushax
	lda     _index
	jsr     _buffer_4_mt
;
; address = get_ppu_addr(nt, draw_screen_sub_lookup_addr_1[scroll_count], y);
;
	jsr     decsp2
	lda     _nt
	ldy     #$01
	sta     (sp),y
	ldy     _scroll_count
	lda     _draw_screen_sub_lookup_addr_1,y
	ldy     #$00
	sta     (sp),y
	lda     _y
	jsr     _get_ppu_addr
	sta     _address
	stx     _address+1
;
; index = (y & 0xf0) + temp4;
;
	lda     _y
	and     #$F0
	clc
	adc     _temp4
	sta     _index
;
; buffer_4_mt(address, index); // ppu_address, index to the data
;
	lda     _address
	ldx     _address+1
	jsr     pushax
	lda     _index
	jsr     _buffer_4_mt
;
; ++scroll_count;
;
	inc     _scroll_count
;
; scroll_count &= 3; //mask off top bits, keep it 0-3
;
	lda     _scroll_count
	and     #$03
	sta     _scroll_count
;
; }
;
	rts

.endproc

; ---------------------------------------------------------------
; void __near__ new_cmap (void)
; ---------------------------------------------------------------

.segment	"CODE"

.proc	_new_cmap: near

.segment	"CODE"

;
; map = nt_current & 1; //even or odd?
;
	lda     _nt_current
	and     #$01
	sta     _map
;
; if (!map) {
;
	lda     _map
	bne     L084A
;
; memcpy(c_map, level_nametables[nt_current], 240);
;
	lda     #<(_c_map)
	ldx     #>(_c_map)
	jsr     pushax
	ldx     #$00
	lda     _nt_current
	asl     a
	bcc     L0A64
	inx
	clc
L0A64:	adc     #<(_level_nametables)
	sta     ptr1
	txa
	adc     #>(_level_nametables)
	sta     ptr1+1
	ldy     #$01
	lda     (ptr1),y
	tax
	dey
	lda     (ptr1),y
	jsr     pushax
	ldx     #$00
	lda     #$F0
	jmp     _memcpy
;
; memcpy(c_map2, level_nametables[nt_current], 240);
;
L084A:	lda     #<(_c_map2)
	ldx     #>(_c_map2)
	jsr     pushax
	ldx     #$00
	lda     _nt_current
	asl     a
	bcc     L0A65
	inx
	clc
L0A65:	adc     #<(_level_nametables)
	sta     ptr1
	txa
	adc     #>(_level_nametables)
	sta     ptr1+1
	ldy     #$01
	lda     (ptr1),y
	tax
	dey
	lda     (ptr1),y
	jsr     pushax
	ldx     #$00
	lda     #$F0
	jmp     _memcpy

.endproc

; ---------------------------------------------------------------
; void __near__ check_spr_objects (void)
; ---------------------------------------------------------------

.segment	"CODE"

.proc	_check_spr_objects: near

.segment	"CODE"

;
; nt_current = high_byte(scroll_y);
;
	lda     _scroll_y+1
	sta     _nt_current
;
; for (x = 0; x < MAX_ENEMIES; ++x) {
;
	lda     #$00
	sta     _x
L0A69:	lda     _x
	cmp     #$20
	bcc     L0A6B
;
; }
;
	rts
;
; if (GET_ENEMY_TYPE(x) == 0 /*ENEMY_NONE*/) continue; 
;
L0A6B:	ldy     _x
	lda     _enemies+128,y
	and     #$0F
	jeq     L0A6A
;
; temp5 = (enemies.nt[x] << 8) + enemies.actual_y[x];
;
	ldy     _x
	lda     _enemies+96,y
	sta     ptr1+1
	ldy     _x
	lda     _enemies+64,y
	clc
	adc     #$00
	ldx     ptr1+1
	bcc     L0A66
	inx
L0A66:	sta     _temp5
	stx     _temp5+1
;
; temp5 -= scroll_y;
;
	lda     _scroll_y
	eor     #$FF
	sec
	adc     _temp5
	sta     _temp5
	lda     _scroll_y+1
	eor     #$FF
	adc     _temp5+1
	sta     _temp5+1
;
; if (high_byte(temp5)) {
;
	lda     _temp5+1
	beq     L0872
;
; DEACTIVATE_ENEMY(x);
;
	lda     #<(_enemies+128)
	ldx     #>(_enemies+128)
	clc
	adc     _x
	bcc     L0878
	inx
L0878:	sta     ptr1
	stx     ptr1+1
	ldy     #$00
	lda     (ptr1),y
	and     #$7F
;
; continue;
;
	jmp     L0A68
;
; ACTIVATE_ENEMY(x); // This enemy is active if it's on-screen.
;
L0872:	lda     #<(_enemies+128)
	ldx     #>(_enemies+128)
	clc
	adc     _x
	bcc     L087D
	inx
L087D:	sta     ptr1
	stx     ptr1+1
	ldy     #$00
	lda     (ptr1),y
	ora     #$80
	sta     (ptr1),y
;
; enemies.y[x] = temp5 & 0xff;
;
	lda     #<(_enemies+32)
	ldx     #>(_enemies+32)
	clc
	adc     _x
	bcc     L0881
	inx
L0881:	sta     ptr1
	stx     ptr1+1
	lda     _temp5
	sta     (ptr1),y
;
; if (nt_current != enemies.nt[x]) enemies.y[x] -= 16;
;
	ldy     _x
	lda     _enemies+96,y
	cmp     _nt_current
	beq     L0A6A
	lda     #<(_enemies+32)
	ldx     #>(_enemies+32)
	clc
	adc     _x
	bcc     L0889
	inx
L0889:	sta     ptr1
	stx     ptr1+1
	ldy     #$00
	lda     (ptr1),y
	sec
	sbc     #$10
L0A68:	sta     (ptr1),y
;
; for (x = 0; x < MAX_ENEMIES; ++x) {
;
L0A6A:	inc     _x
	jmp     L0A69

.endproc

; ---------------------------------------------------------------
; void __near__ sprite_collisions (void)
; ---------------------------------------------------------------

.segment	"CODE"

.proc	_sprite_collisions: near

.segment	"CODE"

;
; hitbox.x = high_byte(valrigard.x);
;
	lda     _valrigard+1
	sta     _hitbox
;
; hitbox.y = high_byte(valrigard.y);
;
	lda     _valrigard+3
	sta     _hitbox+1
;
; hitbox.width = VALRIGARD_WIDTH;
;
	lda     #$0B
	sta     _hitbox+2
;
; hitbox.height = VALRIGARD_HEIGHT;
;
	lda     #$0D
	sta     _hitbox+3
;
; for (x = 0; x < MAX_ENEMIES; ++x) {
;
	lda     #$00
	sta     _x
L0A6D:	lda     _x
	cmp     #$20
	bcs     L0897
;
; if(IS_ENEMY_ACTIVE(x)) {
;
	ldy     _x
	lda     _enemies+128,y
	and     #$80
	beq     L0A6F
;
; temp1 = GET_ENEMY_TYPE(x);
;
	ldy     _x
	lda     _enemies+128,y
	and     #$0F
	sta     _temp1
;
; if (temp1 <= 8 /*ENEMY_BOSS*/) { // It's an enemy
;
	cmp     #$09
	bcs     L0A6E
;
; hitbox2.width = ENEMY_WIDTH;
;
	lda     #$0D
;
; } else { // It's a projectile
;
	jmp     L0A70
;
; hitbox2.width = PROJECTILE_WIDTH;
;
L0A6E:	lda     #$06
L0A70:	sta     _hitbox2+2
;
; hitbox2.height = PROJECTILE_HEIGHT;
;
	sta     _hitbox2+3
;
; hitbox2.x = enemies.x[x];
;
	ldy     _x
	lda     _enemies,y
	sta     _hitbox2
;
; hitbox2.y = enemies.y[x];
;
	ldy     _x
	lda     _enemies+32,y
	sta     _hitbox2+1
;
; if (check_collision(&hitbox, &hitbox2)) {
;
	lda     #<(_hitbox)
	ldx     #>(_hitbox)
	jsr     pushax
	lda     #<(_hitbox2)
	ldx     #>(_hitbox2)
	jsr     _check_collision
	tax
	beq     L0A6F
;
; SET_STATUS_DEAD();
;
	lda     _player_flags
	ora     #$02
	sta     _player_flags
;
; for (x = 0; x < MAX_ENEMIES; ++x) {
;
L0A6F:	inc     _x
	jmp     L0A6D
;
; }
;
L0897:	rts

.endproc

; ---------------------------------------------------------------
; void __near__ enemy_movement (void)
; ---------------------------------------------------------------

.segment	"CODE"

.proc	_enemy_movement: near

.segment	"CODE"

;
; temp4 = 0;
;
	lda     #$00
	sta     _temp4
;
; for (x = 0; x < MAX_ENEMIES; ++x) {
;
	sta     _x
L0A71:	lda     _x
	cmp     #$20
	bcs     L08C6
;
; if (IS_ENEMY_ACTIVE(x)) {
;
	ldy     _x
	lda     _enemies+128,y
	and     #$80
	beq     L0A72
;
; temp1 = GET_ENEMY_TYPE(x);
;
	ldy     _x
	lda     _enemies+128,y
	and     #$0F
	sta     _temp1
;
; }
;
	cmp     #$01
	beq     L08DB
	cmp     #$02
	beq     L08DE
	cmp     #$06
	beq     L08DE
	cmp     #$07
	beq     L08E3
	cmp     #$0A
	beq     L08E6
	jmp     L0A72
;
; korbat_ai();
;
L08DB:	jsr     _korbat_ai
;
; break;
;
	jmp     L0A72
;
; spikeball_ai();
;
L08DE:	jsr     _spikeball_ai
;
; break;
;
	jmp     L0A72
;
; sun_ai();
;
L08E3:	jsr     _sun_ai
;
; break;
;
	jmp     L0A72
;
; acid_drop_ai();
;
L08E6:	jsr     _acid_drop_ai
;
; for (x = 0; x < MAX_ENEMIES; ++x) {
;
L0A72:	inc     _x
	jmp     L0A71
;
; }
;
L08C6:	rts

.endproc

; ---------------------------------------------------------------
; void __near__ korbat_ai (void)
; ---------------------------------------------------------------

.segment	"CODE"

.proc	_korbat_ai: near

.segment	"CODE"

;
; temp3 = ENEMY_DIRECTION(x) >> 6;
;
	ldy     _x
	lda     _enemies+128,y
	and     #$40
	lsr     a
	lsr     a
	lsr     a
	lsr     a
	lsr     a
	lsr     a
	sta     _temp3
;
; temp1 = enemies.x[x];
;
	ldy     _x
	lda     _enemies,y
	sta     _temp1
;
; temp1 += leftright_movement_offset_lookup_table[temp3];
;
	ldy     _temp3
	lda     _leftright_movement_offset_lookup_table,y
	clc
	adc     _temp1
	sta     _temp1
;
; temp2 = enemies.actual_y[x] + 6; // center y
;
	ldy     _x
	lda     _enemies+64,y
	clc
	adc     #$06
	sta     _temp2
;
; coordinates = (temp1 >> 4) + (temp2 & 0xf0); 
;
	lda     _temp1
	lsr     a
	lsr     a
	lsr     a
	lsr     a
	sta     ptr1
	lda     _temp2
	and     #$F0
	clc
	adc     ptr1
	sta     _coordinates
;
; if (enemies.nt[x] & 1) { // Even or odd?
;
	ldy     _x
	lda     _enemies+96,y
	and     #$01
	beq     L0900
;
; collision = c_map2[coordinates];
;
	ldy     _coordinates
	lda     _c_map2,y
;
; } else {
;
	jmp     L0A74
;
; collision = c_map[coordinates];
;
L0900:	ldy     _coordinates
	lda     _c_map,y
L0A74:	sta     _collision
;
; if (METATILE_IS_SOLID(collision)) {
;
	cmp     #$17
	bcs     L090D
	lda     _collision
	cmp     #$04
	bcc     L090D
;
; ENEMY_FLIP_DIRECTION(x);
;
	lda     #<(_enemies+128)
	ldx     #>(_enemies+128)
	clc
	adc     _x
	bcc     L0915
	inx
L0915:	sta     ptr1
	stx     ptr1+1
	ldy     #$00
	lda     (ptr1),y
	eor     #$40
	sta     (ptr1),y
;
; temp3 ^= 1;
;
	lda     _temp3
	eor     #$01
	sta     _temp3
;
; temp1 = leftright_movement_moving_lookup_table[temp3];
;
L090D:	ldy     _temp3
	lda     _leftright_movement_moving_lookup_table,y
	sta     _temp1
;
; enemies.x[x] += temp1;
;
	lda     #<(_enemies)
	ldx     #>(_enemies)
	clc
	adc     _x
	bcc     L091F
	inx
L091F:	jsr     pushax
	sta     ptr1
	stx     ptr1+1
	ldy     #$00
	lda     (ptr1),y
	clc
	adc     _temp1
	jmp     staspidx

.endproc

; ---------------------------------------------------------------
; void __near__ spikeball_ai (void)
; ---------------------------------------------------------------

.segment	"CODE"

.proc	_spikeball_ai: near

.segment	"CODE"

;
; temp3 = ENEMY_DIRECTION(x) >> 6;
;
	ldy     _x
	lda     _enemies+128,y
	and     #$40
	lsr     a
	lsr     a
	lsr     a
	lsr     a
	lsr     a
	lsr     a
	sta     _temp3
;
; temp1 = enemies.x[x];
;
	ldy     _x
	lda     _enemies,y
	sta     _temp1
;
; temp1 += leftright_movement_offset_lookup_table[temp3];
;
	ldy     _temp3
	lda     _leftright_movement_offset_lookup_table,y
	clc
	adc     _temp1
	sta     _temp1
;
; temp2 = enemies.actual_y[x] + 18; // Y beneath us
;
	ldy     _x
	lda     _enemies+64,y
	clc
	adc     #$12
	sta     _temp2
;
; coordinates = (temp1 >> 4) + (temp2 & 0xf0); 
;
	lda     _temp1
	lsr     a
	lsr     a
	lsr     a
	lsr     a
	sta     ptr1
	lda     _temp2
	and     #$F0
	clc
	adc     ptr1
	sta     _coordinates
;
; temp4 = temp2 >> 4;
;
	lda     _temp2
	lsr     a
	lsr     a
	lsr     a
	lsr     a
	sta     _temp4
;
; if (temp4 == 0xf) {
;
	cmp     #$0F
	bne     L093A
;
; temp4 = enemies.nt[x] + 1;
;
	ldy     _x
	lda     _enemies+96,y
	clc
	adc     #$01
;
; } else {
;
	jmp     L0A79
;
; temp4 = enemies.nt[x];
;
L093A:	ldy     _x
	lda     _enemies+96,y
L0A79:	sta     _temp4
;
; if (temp4 & 1) { // Even or odd?
;
	and     #$01
	beq     L0946
;
; collision = c_map2[coordinates];
;
	ldy     _coordinates
	lda     _c_map2,y
;
; } else {
;
	jmp     L0A7A
;
; collision = c_map[coordinates];
;
L0946:	ldy     _coordinates
	lda     _c_map,y
L0A7A:	sta     _collision
;
; if (!METATILE_IS_SOLID(collision)) {
;
	cmp     #$17
	bcs     L0A7C
	lda     _collision
	cmp     #$04
	bcs     L0A7D
L0A7C:	lda     #$00
	jmp     L0955
L0A7D:	lda     #$01
L0955:	jsr     bnega
	beq     L0951
;
; ENEMY_FLIP_DIRECTION(x);
;
	lda     #<(_enemies+128)
	ldx     #>(_enemies+128)
	clc
	adc     _x
	bcc     L0959
	inx
L0959:	sta     ptr1
	stx     ptr1+1
	ldy     #$00
	lda     (ptr1),y
	eor     #$40
	sta     (ptr1),y
;
; temp3 ^= 1;
;
	lda     _temp3
	eor     #$01
	sta     _temp3
;
; temp2 = enemies.actual_y[x] + 6; // center y
;
L0951:	ldy     _x
	lda     _enemies+64,y
	clc
	adc     #$06
	sta     _temp2
;
; coordinates = (temp1 >> 4) + (temp2 & 0xf0); 
;
	lda     _temp1
	lsr     a
	lsr     a
	lsr     a
	lsr     a
	sta     ptr1
	lda     _temp2
	and     #$F0
	clc
	adc     ptr1
	sta     _coordinates
;
; if (enemies.nt[x] & 1) { // Even or odd?
;
	ldy     _x
	lda     _enemies+96,y
	and     #$01
	beq     L0966
;
; collision = c_map2[coordinates];
;
	ldy     _coordinates
	lda     _c_map2,y
;
; } else {
;
	jmp     L0A7B
;
; collision = c_map[coordinates];
;
L0966:	ldy     _coordinates
	lda     _c_map,y
L0A7B:	sta     _collision
;
; if (METATILE_IS_SOLID(collision)) {
;
	cmp     #$17
	bcs     L0973
	lda     _collision
	cmp     #$04
	bcc     L0973
;
; ENEMY_FLIP_DIRECTION(x);
;
	lda     #<(_enemies+128)
	ldx     #>(_enemies+128)
	clc
	adc     _x
	bcc     L097B
	inx
L097B:	sta     ptr1
	stx     ptr1+1
	ldy     #$00
	lda     (ptr1),y
	eor     #$40
	sta     (ptr1),y
;
; temp3 ^= 1;
;
	lda     _temp3
	eor     #$01
	sta     _temp3
;
; temp1 = leftright_movement_moving_lookup_table[temp3];
;
L0973:	ldy     _temp3
	lda     _leftright_movement_moving_lookup_table,y
	sta     _temp1
;
; enemies.x[x] += temp1;
;
	lda     #<(_enemies)
	ldx     #>(_enemies)
	clc
	adc     _x
	bcc     L0985
	inx
L0985:	jsr     pushax
	sta     ptr1
	stx     ptr1+1
	ldy     #$00
	lda     (ptr1),y
	clc
	adc     _temp1
	jmp     staspidx

.endproc

; ---------------------------------------------------------------
; void __near__ cannon_ai (void)
; ---------------------------------------------------------------

.segment	"CODE"

.proc	_cannon_ai: near

.segment	"CODE"

;
; }
;
	rts

.endproc

; ---------------------------------------------------------------
; void __near__ cannonball_ai (void)
; ---------------------------------------------------------------

.segment	"CODE"

.proc	_cannonball_ai: near

.segment	"CODE"

;
; }
;
	rts

.endproc

; ---------------------------------------------------------------
; void __near__ acid_ai (void)
; ---------------------------------------------------------------

.segment	"CODE"

.proc	_acid_ai: near

.segment	"CODE"

;
; }
;
	rts

.endproc

; ---------------------------------------------------------------
; void __near__ acid_drop_ai (void)
; ---------------------------------------------------------------

.segment	"CODE"

.proc	_acid_drop_ai: near

.segment	"CODE"

;
; high_byte(temp5) = enemies.nt[x];
;
	ldy     _x
	lda     _enemies+96,y
	sta     _temp5+1
;
; low_byte(temp5) = enemies.actual_y[x];
;
	ldy     _x
	lda     _enemies+64,y
	sta     _temp5
;
; temp1 = enemies.x[x];
;
	ldy     _x
	lda     _enemies,y
	sta     _temp1
;
; temp5 = add_scroll_y(1, temp5);
;
	lda     #$01
	jsr     pusha
	lda     _temp5
	ldx     _temp5+1
	jsr     _add_scroll_y
	sta     _temp5
	stx     _temp5+1
;
; temp6 = add_scroll_y(6, temp5); // 8 being the cosmetic projectile height
;
	lda     #$06
	jsr     pusha
	lda     _temp5
	ldx     _temp5+1
	jsr     _add_scroll_y
	sta     _temp6
	stx     _temp6+1
;
; coordinates = (temp1 >> 4) + (low_byte(temp6) & 0xf0);
;
	lda     _temp1
	lsr     a
	lsr     a
	lsr     a
	lsr     a
	sta     ptr1
	lda     _temp6
	and     #$F0
	clc
	adc     ptr1
	sta     _coordinates
;
; if (high_byte(temp6) & 1) {
;
	lda     _temp6+1
	and     #$01
	beq     L09F8
;
; collision = c_map2[coordinates];        
;
	ldy     _coordinates
	lda     _c_map2,y
;
; } else {
;
	jmp     L0A82
;
; collision = c_map[coordinates];
;
L09F8:	ldy     _coordinates
	lda     _c_map,y
L0A82:	sta     _collision
;
; if (METATILE_IS_SOLID(collision)) {
;
	cmp     #$17
	bcs     L0A04
	lda     _collision
	cmp     #$04
	bcc     L0A04
;
; enemies.flags_type[x] = ENEMY_NONE;
;
	ldy     _x
	lda     #$00
	sta     _enemies+128,y
;
; return;
;
	rts
;
; enemies.nt[x] = high_byte(temp5);
;
L0A04:	ldy     _x
	lda     _temp5+1
	sta     _enemies+96,y
;
; enemies.actual_y[x] = low_byte(temp5);
;
	ldy     _x
	lda     _temp5
	sta     _enemies+64,y
;
; }
;
	rts

.endproc

; ---------------------------------------------------------------
; void __near__ splyke_ai (void)
; ---------------------------------------------------------------

.segment	"CODE"

.proc	_splyke_ai: near

.segment	"CODE"

;
; }
;
	rts

.endproc

; ---------------------------------------------------------------
; void __near__ sun_ai (void)
; ---------------------------------------------------------------

.segment	"CODE"

.proc	_sun_ai: near

.segment	"CODE"

;
; temp3 = ENEMY_DIRECTION(x) >> 6;
;
	ldy     _x
	lda     _enemies+128,y
	and     #$40
	lsr     a
	lsr     a
	lsr     a
	lsr     a
	lsr     a
	lsr     a
	sta     _temp3
;
; high_byte(temp5) = enemies.nt[x];
;
	ldy     _x
	lda     _enemies+96,y
	sta     _temp5+1
;
; low_byte(temp5) = enemies.actual_y[x];
;
	ldy     _x
	lda     _enemies+64,y
	sta     _temp5
;
; temp1 = enemies.x[x] + 6; 
;
	ldy     _x
	lda     _enemies,y
	clc
	adc     #$06
	sta     _temp1
;
; if (temp3 == UP) { // subtracting from y
;
	lda     _temp3
	bne     L099C
;
; temp5 = sub_scroll_y(1, temp5);
;
	lda     #$01
	jsr     pusha
	lda     _temp5
	ldx     _temp5+1
	jsr     _sub_scroll_y
	sta     _temp5
	stx     _temp5+1
;
; temp2 = low_byte(temp5); // Y of tile of interest
;
	lda     _temp5
	sta     _temp2
;
; temp4 = high_byte(temp5); // NT of tile of interest
;
	lda     _temp5+1
;
; } else { // DOWN (adding to y)
;
	jmp     L0A86
;
; temp5 = add_scroll_y(1, temp5);
;
L099C:	lda     #$01
	jsr     pusha
	lda     _temp5
	ldx     _temp5+1
	jsr     _add_scroll_y
	sta     _temp5
	stx     _temp5+1
;
; temp6 = add_scroll_y(15, temp5); // 15 being the cosmetic size of an enemy
;
	lda     #$0F
	jsr     pusha
	lda     _temp5
	ldx     _temp5+1
	jsr     _add_scroll_y
	sta     _temp6
	stx     _temp6+1
;
; temp2 = low_byte(temp6); // Y of tile of interest
;
	lda     _temp6
	sta     _temp2
;
; temp4 = high_byte(temp6); // NT of tile of interest
;
	lda     _temp6+1
L0A86:	sta     _temp4
;
; coordinates = (temp1 >> 4) + (temp2 & 0xf0);
;
	lda     _temp1
	lsr     a
	lsr     a
	lsr     a
	lsr     a
	sta     ptr1
	lda     _temp2
	and     #$F0
	clc
	adc     ptr1
	sta     _coordinates
;
; if (temp4 & 1) { // Even or odd?
;
	lda     _temp4
	and     #$01
	beq     L09BB
;
; collision = c_map2[coordinates];
;
	ldy     _coordinates
	lda     _c_map2,y
;
; } else {
;
	jmp     L0A87
;
; collision = c_map[coordinates];
;
L09BB:	ldy     _coordinates
	lda     _c_map,y
L0A87:	sta     _collision
;
; if (METATILE_IS_SOLID(collision)) {
;
	cmp     #$17
	bcs     L09C6
	lda     _collision
	cmp     #$04
	bcc     L09C6
;
; ENEMY_FLIP_DIRECTION(x);
;
	lda     #<(_enemies+128)
	ldx     #>(_enemies+128)
	clc
	adc     _x
	bcc     L09CE
	inx
L09CE:	sta     ptr1
	stx     ptr1+1
	ldy     #$00
	lda     (ptr1),y
	eor     #$40
	sta     (ptr1),y
;
; temp3 ^= 1;
;
	lda     _temp3
	eor     #$01
	sta     _temp3
;
; enemies.nt[x] = high_byte(temp5);
;
L09C6:	ldy     _x
	lda     _temp5+1
	sta     _enemies+96,y
;
; enemies.actual_y[x] = low_byte(temp5);
;
	ldy     _x
	lda     _temp5
	sta     _enemies+64,y
;
; }
;
	rts

.endproc

; ---------------------------------------------------------------
; void __near__ main (void)
; ---------------------------------------------------------------

.segment	"CODE"

.proc	_main: near

.segment	"CODE"

;
; ppu_off(); // screen off
;
	jsr     _ppu_off
;
; pal_bg(palette_bg);
;
	lda     #<(_palette_bg)
	ldx     #>(_palette_bg)
	jsr     _pal_bg
;
; pal_spr(palette_sp);
;
	lda     #<(_palette_sp)
	ldx     #>(_palette_sp)
	jsr     _pal_spr
;
; bank_spr(1);
;
	lda     #$01
	jsr     _bank_spr
;
; set_vram_buffer(); // do at least once, sets a pointer to a buffer
;
	jsr     _set_vram_buffer
;
; clear_vram_buffer();
;
	jsr     _clear_vram_buffer
;
; load_level();
;
	jsr     _load_level
;
; load_room();
;
	jsr     _load_room
;
; level_index = 0;
;
	lda     #$00
	sta     _level_index
;
; energy = MAX_ENERGY;
;
	lda     #$70
	sta     _energy
;
; ppu_on_all(); // turn on screen
;
	jsr     _ppu_on_all
;
; ppu_wait_nmi(); // wait till beginning of the frame
;
L0523:	jsr     _ppu_wait_nmi
;
; pad1 = pad_poll(0); // read the first controller
;
	lda     #$00
	jsr     _pad_poll
	sta     _pad1
;
; pad1_new = get_pad_new(0);
;
	lda     #$00
	jsr     _get_pad_new
	sta     _pad1_new
;
; clear_vram_buffer();
;
	jsr     _clear_vram_buffer
;
; movement();
;
	jsr     _movement
;
; check_spr_objects();
;
	jsr     _check_spr_objects
;
; sprite_collisions();
;
	jsr     _sprite_collisions
;
; enemy_movement();
;
	jsr     _enemy_movement
;
; set_scroll_y(scroll_y);
;
	lda     _scroll_y
	ldx     _scroll_y+1
	jsr     _set_scroll_y
;
; convert_to_decimal(score);
;
	lda     _score
	ldx     _score+1
	jsr     _convert_to_decimal
;
; draw_sprites();
;
	jsr     _draw_sprites
;
; pseudo_scroll_y = sub_scroll_y(0x20, scroll_y);
;
	lda     #$20
	jsr     pusha
	lda     _scroll_y
	ldx     _scroll_y+1
	jsr     _sub_scroll_y
	sta     _pseudo_scroll_y
	stx     _pseudo_scroll_y+1
;
; if (valrigard.velocity_y >= 0) { // If this is true, draw down. Otherwise, draw up.
;
	ldx     _valrigard+6+1
	bmi     L053C
;
; pseudo_scroll_y += 0xef;
;
	lda     #$EF
	clc
	adc     _pseudo_scroll_y
	sta     _pseudo_scroll_y
	bcc     L053C
	inc     _pseudo_scroll_y+1
;
; draw_screen_sub();
;
L053C:	jsr     _draw_screen_sub
;
; gray_line();
;
	jsr     _gray_line
;
; if (pad1 & PAD_DOWN) {
;
	lda     _pad1
	and     #$04
	beq     L0523
;
; SET_STATUS_ALIVE();
;
	lda     _player_flags
	and     #$FD
	sta     _player_flags
;
; while (1){
;
	jmp     L0523

.endproc

