;
; File generated by cc65 v 2.18 - N/A
;
	.fopt		compiler,"cc65 v 2.18 - N/A"
	.setcpu		"6502"
	.smart		on
	.autoimport	on
	.case		on
	.debuginfo	off
	.importzp	sp, sreg, regsave, regbank
	.importzp	tmp1, tmp2, tmp3, tmp4, ptr1, ptr2, ptr3, ptr4
	.macpack	longbranch
	.forceimport	__STARTUP__
	.import		_pal_bg
	.import		_pal_spr
	.import		_ppu_wait_nmi
	.import		_ppu_off
	.import		_ppu_on_all
	.import		_oam_clear
	.import		_oam_spr
	.import		_oam_meta_spr
	.import		_pad_poll
	.import		_bank_spr
	.import		_rand8
	.import		_vram_adr
	.import		_vram_put
	.import		_vram_fill
	.import		_memcpy
	.import		_memfill
	.import		_set_vram_buffer
	.import		_clear_vram_buffer
	.import		_get_pad_new
	.import		_get_frame_count
	.import		_check_collision
	.import		_set_scroll_y
	.import		_add_scroll_y
	.import		_sub_scroll_y
	.import		_get_ppu_addr
	.import		_set_data_pointer
	.import		_set_mt_pointer
	.import		_buffer_1_mt
	.import		_buffer_4_mt
	.import		_flush_vram_update_nmi
	.import		_gray_line
	.import		_seed_rng
	.export		_bankLevel
	.export		_bankBuffer
	.import		_set_prg_bank
	.import		_set_chr_bank_0
	.export		_valrigardIdleLeft
	.export		_valrigardIdleRight
	.export		_spikeball
	.export		_korbat_left
	.export		_korbat_right
	.export		_sun0
	.export		_sun1
	.export		_cannon_up
	.export		_cannon_up_left
	.export		_cannon_left
	.export		_cannon_down_left
	.export		_cannon_down
	.export		_cannon_down_right
	.export		_cannon_right
	.export		_cannon_up_right
	.export		_grarrl_left
	.export		_grarrl_right
	.export		_metatiles
	.export		_metatile_property_lookup_table
	.export		_level10_0
	.export		_level10_1
	.export		_level10_2
	.export		_level10_enemy
	.export		_level_starting_nt
	.export		_valrigard_starting_nt
	.export		_valrigard_inital_coords
	.export		_level_nametables
	.export		_level_names
	.export		_level_enemy_data
	.import		_score_string
	.import		_convert_to_decimal
	.import		_sin_lookup
	.import		_cos_lookup
	.import		_brads_lookup
	.import		_abs_subtract
	.export		_pad1
	.export		_pad1_new
	.export		_collision
	.export		_collision_L
	.export		_collision_R
	.export		_collision_U
	.export		_collision_D
	.export		_coordinates
	.export		_temp0
	.export		_temp1
	.export		_temp2
	.export		_temp3
	.export		_temp4
	.export		_temp5
	.export		_temp6
	.export		_temppointer
	.export		_temp_mutablepointer
	.export		_temp_funcpointer
	.export		_eject_L
	.export		_eject_R
	.export		_eject_D
	.export		_eject_U
	.export		_player_flags
	.export		_game_mode
	.export		_address
	.export		_x
	.export		_y
	.export		_index
	.export		_nt
	.export		_scroll_x
	.export		_pseudo_scroll_y
	.export		_scroll_y
	.export		_min_scroll_y
	.export		_max_scroll_y
	.export		_initial_scroll
	.export		_scroll_count
	.export		_L_R_switch
	.export		_old_x
	.export		_old_y
	.export		_temp_x
	.export		_temp_y
	.export		_level_index
	.export		_energy
	.export		_score
	.export		_stars
	.export		_timer
	.export		_song
	.export		_nt_min
	.export		_nt_max
	.export		_nt_current
	.export		_valrigard
	.export		_hitbox
	.export		_hitbox2
	.export		_debug_tile_x
	.export		_debug_tile_y
	.export		_palette_bg
	.export		_palette_sp
	.export		_shuffle_array
	.export		_enemies
	.export		_cmap0
	.export		_cmap1
	.export		_cmap2
	.export		_cmap3
	.export		_cmap4
	.export		_cmap5
	.export		_cmaps
	.export		_draw_sprites
	.export		_movement
	.export		_begin_level
	.export		_load_level_new
	.export		_load_room_new
	.export		_bg_collision
	.export		_bg_collision_sub
	.export		_draw_screen_U
	.export		_draw_screen_D
	.export		_draw_screen_sub
	.export		_check_spr_objects
	.export		_sprite_collisions
	.export		_enemy_movement
	.export		_korbat_ai
	.export		_spikeball_ai
	.export		_cannon_ai
	.export		_cannonball_ai
	.export		_acid_ai
	.export		_acid_drop_ai
	.export		_splyke_ai
	.export		_sun_ai
	.export		_boss_ai
	.export		_load_title_screen
	.export		_load_game_over_screen
	.export		_clear_screen
	.export		_draw_screen_sub_lookup_addr_0
	.export		_draw_screen_sub_lookup_index_offset_0
	.export		_draw_screen_sub_lookup_addr_1
	.export		_draw_screen_sub_lookup_index_offset_1
	.export		_leftright_movement_offset_lookup_table
	.export		_leftright_movement_moving_lookup_table
	.export		_updown_movement_offset_lookup_table
	.export		_korbat_sprite_lookup_table
	.export		_grarrl_sprite_lookup_table
	.export		_cannon_sprite_lookup_table
	.export		_cannon_ul_sprite_lookup_table
	.export		_cannon_ur_sprite_lookup_table
	.export		_cannon_dr_sprite_lookup_table
	.export		_cannon_dl_sprite_lookup_table
	.export		_cannon_sprite_quadrant_lookup_table
	.export		_main
	.export		_title_string
	.export		_author_string
	.export		_instruction_string
	.export		_game_over_string

.segment	"DATA"

_score:
	.word	$0000

.segment	"RODATA"

_valrigardIdleLeft:
	.byte	$FE
	.byte	$FD
	.byte	$E0
	.byte	$01
	.byte	$06
	.byte	$FD
	.byte	$E1
	.byte	$01
	.byte	$FE
	.byte	$05
	.byte	$F0
	.byte	$01
	.byte	$06
	.byte	$05
	.byte	$F1
	.byte	$01
	.byte	$80
_valrigardIdleRight:
	.byte	$06
	.byte	$FD
	.byte	$E0
	.byte	$41
	.byte	$FE
	.byte	$FD
	.byte	$E1
	.byte	$41
	.byte	$06
	.byte	$05
	.byte	$F0
	.byte	$41
	.byte	$FE
	.byte	$05
	.byte	$F1
	.byte	$41
	.byte	$80
_spikeball:
	.byte	$FF
	.byte	$FF
	.byte	$12
	.byte	$03
	.byte	$07
	.byte	$FF
	.byte	$12
	.byte	$43
	.byte	$FF
	.byte	$07
	.byte	$12
	.byte	$83
	.byte	$07
	.byte	$07
	.byte	$12
	.byte	$C3
	.byte	$80
_korbat_left:
	.byte	$FF
	.byte	$FF
	.byte	$20
	.byte	$02
	.byte	$07
	.byte	$FF
	.byte	$21
	.byte	$02
	.byte	$FF
	.byte	$07
	.byte	$30
	.byte	$02
	.byte	$07
	.byte	$07
	.byte	$31
	.byte	$02
	.byte	$80
_korbat_right:
	.byte	$07
	.byte	$FF
	.byte	$20
	.byte	$42
	.byte	$FF
	.byte	$FF
	.byte	$21
	.byte	$42
	.byte	$07
	.byte	$07
	.byte	$30
	.byte	$42
	.byte	$FF
	.byte	$07
	.byte	$31
	.byte	$42
	.byte	$80
_sun0:
	.byte	$FF
	.byte	$FF
	.byte	$13
	.byte	$00
	.byte	$07
	.byte	$FF
	.byte	$13
	.byte	$40
	.byte	$FF
	.byte	$07
	.byte	$14
	.byte	$00
	.byte	$07
	.byte	$07
	.byte	$14
	.byte	$40
	.byte	$80
_sun1:
	.byte	$FF
	.byte	$FF
	.byte	$15
	.byte	$00
	.byte	$07
	.byte	$FF
	.byte	$15
	.byte	$40
	.byte	$FF
	.byte	$07
	.byte	$16
	.byte	$00
	.byte	$07
	.byte	$07
	.byte	$16
	.byte	$40
	.byte	$80
_cannon_up:
	.byte	$FF
	.byte	$FF
	.byte	$1A
	.byte	$80
	.byte	$07
	.byte	$FF
	.byte	$1A
	.byte	$C0
	.byte	$FF
	.byte	$07
	.byte	$19
	.byte	$80
	.byte	$07
	.byte	$07
	.byte	$19
	.byte	$C0
	.byte	$80
_cannon_up_left:
	.byte	$FF
	.byte	$FF
	.byte	$1E
	.byte	$C0
	.byte	$FF
	.byte	$07
	.byte	$1D
	.byte	$C0
	.byte	$07
	.byte	$FF
	.byte	$1C
	.byte	$C0
	.byte	$07
	.byte	$07
	.byte	$1B
	.byte	$C0
	.byte	$80
_cannon_left:
	.byte	$FF
	.byte	$FF
	.byte	$2F
	.byte	$40
	.byte	$07
	.byte	$FF
	.byte	$1F
	.byte	$40
	.byte	$FF
	.byte	$07
	.byte	$2F
	.byte	$C0
	.byte	$07
	.byte	$07
	.byte	$1F
	.byte	$C0
	.byte	$80
_cannon_down_left:
	.byte	$FF
	.byte	$FF
	.byte	$1D
	.byte	$40
	.byte	$07
	.byte	$FF
	.byte	$1B
	.byte	$40
	.byte	$FF
	.byte	$07
	.byte	$1E
	.byte	$40
	.byte	$07
	.byte	$07
	.byte	$1C
	.byte	$40
	.byte	$80
_cannon_down:
	.byte	$FF
	.byte	$FF
	.byte	$19
	.byte	$00
	.byte	$07
	.byte	$FF
	.byte	$19
	.byte	$40
	.byte	$FF
	.byte	$07
	.byte	$1A
	.byte	$00
	.byte	$07
	.byte	$07
	.byte	$1A
	.byte	$40
	.byte	$80
_cannon_down_right:
	.byte	$FF
	.byte	$FF
	.byte	$1B
	.byte	$00
	.byte	$07
	.byte	$FF
	.byte	$1D
	.byte	$00
	.byte	$FF
	.byte	$07
	.byte	$1C
	.byte	$00
	.byte	$07
	.byte	$07
	.byte	$1E
	.byte	$00
	.byte	$80
_cannon_right:
	.byte	$FF
	.byte	$FF
	.byte	$1F
	.byte	$00
	.byte	$07
	.byte	$FF
	.byte	$2F
	.byte	$00
	.byte	$FF
	.byte	$07
	.byte	$1F
	.byte	$80
	.byte	$07
	.byte	$07
	.byte	$2F
	.byte	$80
	.byte	$80
_cannon_up_right:
	.byte	$FF
	.byte	$FF
	.byte	$1C
	.byte	$80
	.byte	$07
	.byte	$FF
	.byte	$1E
	.byte	$80
	.byte	$FF
	.byte	$07
	.byte	$1B
	.byte	$80
	.byte	$07
	.byte	$07
	.byte	$1D
	.byte	$80
	.byte	$80
_grarrl_left:
	.byte	$FF
	.byte	$FF
	.byte	$40
	.byte	$02
	.byte	$07
	.byte	$FF
	.byte	$41
	.byte	$02
	.byte	$FF
	.byte	$07
	.byte	$50
	.byte	$02
	.byte	$07
	.byte	$07
	.byte	$51
	.byte	$02
	.byte	$80
_grarrl_right:
	.byte	$07
	.byte	$FF
	.byte	$40
	.byte	$42
	.byte	$FF
	.byte	$FF
	.byte	$41
	.byte	$42
	.byte	$07
	.byte	$07
	.byte	$50
	.byte	$42
	.byte	$FF
	.byte	$07
	.byte	$51
	.byte	$42
	.byte	$80
_metatiles:
	.byte	$A0
	.byte	$A0
	.byte	$B0
	.byte	$B0
	.byte	$00
	.byte	$A1
	.byte	$A1
	.byte	$B1
	.byte	$B1
	.byte	$00
	.byte	$A2
	.byte	$A3
	.byte	$A2
	.byte	$A3
	.byte	$00
	.byte	$B2
	.byte	$B3
	.byte	$B2
	.byte	$B3
	.byte	$00
	.byte	$E6
	.byte	$E7
	.byte	$F6
	.byte	$F7
	.byte	$00
	.byte	$84
	.byte	$E5
	.byte	$F6
	.byte	$F7
	.byte	$00
	.byte	$E6
	.byte	$E3
	.byte	$F6
	.byte	$F3
	.byte	$00
	.byte	$E6
	.byte	$E7
	.byte	$94
	.byte	$F5
	.byte	$00
	.byte	$E2
	.byte	$E7
	.byte	$F2
	.byte	$F7
	.byte	$00
	.byte	$84
	.byte	$8D
	.byte	$F6
	.byte	$F3
	.byte	$00
	.byte	$E6
	.byte	$E3
	.byte	$94
	.byte	$9D
	.byte	$00
	.byte	$E2
	.byte	$E7
	.byte	$F0
	.byte	$F5
	.byte	$00
	.byte	$E0
	.byte	$E5
	.byte	$F2
	.byte	$F7
	.byte	$00
	.byte	$84
	.byte	$E5
	.byte	$94
	.byte	$F5
	.byte	$00
	.byte	$E2
	.byte	$E3
	.byte	$F2
	.byte	$F3
	.byte	$00
	.byte	$E0
	.byte	$8D
	.byte	$F0
	.byte	$9D
	.byte	$00
	.byte	$80
	.byte	$81
	.byte	$90
	.byte	$91
	.byte	$00
	.byte	$84
	.byte	$85
	.byte	$94
	.byte	$95
	.byte	$00
	.byte	$86
	.byte	$81
	.byte	$96
	.byte	$91
	.byte	$00
	.byte	$84
	.byte	$89
	.byte	$94
	.byte	$99
	.byte	$00
	.byte	$8A
	.byte	$81
	.byte	$9A
	.byte	$91
	.byte	$00
	.byte	$84
	.byte	$8D
	.byte	$94
	.byte	$9D
	.byte	$00
	.byte	$EC
	.byte	$ED
	.byte	$FC
	.byte	$FD
	.byte	$03
	.byte	$A4
	.byte	$A5
	.byte	$B4
	.byte	$B5
	.byte	$03
	.byte	$A6
	.byte	$A5
	.byte	$B6
	.byte	$B5
	.byte	$03
	.byte	$A6
	.byte	$A9
	.byte	$B6
	.byte	$B9
	.byte	$03
	.byte	$AA
	.byte	$AB
	.byte	$BA
	.byte	$BB
	.byte	$02
	.byte	$8E
	.byte	$8F
	.byte	$9E
	.byte	$9F
	.byte	$00
	.byte	$00
	.byte	$00
	.byte	$00
	.byte	$8E
	.byte	$00
	.byte	$00
	.byte	$00
	.byte	$8F
	.byte	$00
	.byte	$00
	.byte	$00
	.byte	$9E
	.byte	$00
	.byte	$00
	.byte	$00
	.byte	$9F
	.byte	$00
	.byte	$00
	.byte	$00
	.byte	$00
	.byte	$AC
	.byte	$AD
	.byte	$BC
	.byte	$BD
	.byte	$00
	.byte	$AE
	.byte	$AF
	.byte	$BE
	.byte	$BF
	.byte	$00
	.byte	$BC
	.byte	$CD
	.byte	$BC
	.byte	$DD
	.byte	$00
	.byte	$CE
	.byte	$BF
	.byte	$DE
	.byte	$BF
	.byte	$00
	.byte	$C4
	.byte	$C5
	.byte	$D4
	.byte	$D5
	.byte	$00
	.byte	$C6
	.byte	$C7
	.byte	$D6
	.byte	$D7
	.byte	$00
	.byte	$C8
	.byte	$C9
	.byte	$D8
	.byte	$D9
	.byte	$00
	.byte	$CA
	.byte	$CB
	.byte	$DA
	.byte	$DB
	.byte	$00
	.byte	$C2
	.byte	$C3
	.byte	$D2
	.byte	$D3
	.byte	$03
	.byte	$C0
	.byte	$C1
	.byte	$D0
	.byte	$D1
	.byte	$00
	.byte	$E8
	.byte	$E9
	.byte	$F8
	.byte	$F9
	.byte	$03
	.byte	$EA
	.byte	$EB
	.byte	$FA
	.byte	$FB
	.byte	$01
	.byte	$00
	.byte	$00
	.byte	$00
	.byte	$00
	.byte	$00
_metatile_property_lookup_table:
	.byte	$02
	.byte	$02
	.byte	$02
	.byte	$02
	.byte	$01
	.byte	$01
	.byte	$01
	.byte	$01
	.byte	$01
	.byte	$01
	.byte	$01
	.byte	$01
	.byte	$01
	.byte	$01
	.byte	$01
	.byte	$01
	.byte	$01
	.byte	$01
	.byte	$05
	.byte	$09
	.byte	$01
	.byte	$01
	.byte	$01
	.byte	$10
	.byte	$10
	.byte	$10
	.byte	$20
	.byte	$00
	.byte	$00
	.byte	$00
	.byte	$00
	.byte	$00
	.byte	$00
	.byte	$00
	.byte	$00
	.byte	$00
	.byte	$00
	.byte	$00
	.byte	$00
	.byte	$00
	.byte	$00
	.byte	$00
	.byte	$40
	.byte	$40
	.byte	$00
_level10_0:
	.byte	$04
	.byte	$07
	.byte	$07
	.byte	$07
	.byte	$07
	.byte	$07
	.byte	$07
	.byte	$07
	.byte	$07
	.byte	$07
	.byte	$07
	.byte	$06
	.byte	$2C
	.byte	$2C
	.byte	$2C
	.byte	$2C
	.byte	$06
	.byte	$2C
	.byte	$2C
	.byte	$2C
	.byte	$2C
	.byte	$2C
	.byte	$2C
	.byte	$2C
	.byte	$2C
	.byte	$2C
	.byte	$2C
	.byte	$0E
	.byte	$2C
	.byte	$2C
	.byte	$2C
	.byte	$2C
	.byte	$06
	.byte	$2C
	.byte	$2C
	.byte	$2C
	.byte	$2C
	.byte	$2C
	.byte	$2C
	.byte	$2C
	.byte	$2C
	.byte	$2C
	.byte	$2C
	.byte	$0E
	.byte	$2C
	.byte	$2C
	.byte	$2C
	.byte	$2C
	.byte	$06
	.byte	$2C
	.byte	$2C
	.byte	$2C
	.byte	$2C
	.byte	$2C
	.byte	$2C
	.byte	$2C
	.byte	$2C
	.byte	$2C
	.byte	$2C
	.byte	$0E
	.byte	$2C
	.byte	$2C
	.byte	$2C
	.byte	$2C
	.byte	$06
	.byte	$2C
	.byte	$2C
	.byte	$2C
	.byte	$2C
	.byte	$2C
	.byte	$2C
	.byte	$2C
	.byte	$2C
	.byte	$2C
	.byte	$2C
	.byte	$0E
	.byte	$2C
	.byte	$2C
	.byte	$2C
	.byte	$2C
	.byte	$06
	.byte	$2C
	.byte	$2C
	.byte	$2C
	.byte	$2C
	.byte	$2C
	.byte	$2C
	.byte	$2C
	.byte	$2C
	.byte	$2C
	.byte	$2C
	.byte	$0E
	.byte	$2C
	.byte	$2C
	.byte	$2C
	.byte	$2C
	.byte	$06
	.byte	$2C
	.byte	$2C
	.byte	$2C
	.byte	$2C
	.byte	$2C
	.byte	$2C
	.byte	$2C
	.byte	$2C
	.byte	$2C
	.byte	$2C
	.byte	$0E
	.byte	$2C
	.byte	$2C
	.byte	$2C
	.byte	$2C
	.byte	$06
	.byte	$2A
	.byte	$2A
	.byte	$2A
	.byte	$2A
	.byte	$2A
	.byte	$2C
	.byte	$2C
	.byte	$2C
	.byte	$2C
	.byte	$2C
	.byte	$0E
	.byte	$2C
	.byte	$2C
	.byte	$2C
	.byte	$2C
	.byte	$06
	.byte	$17
	.byte	$19
	.byte	$2A
	.byte	$2A
	.byte	$2A
	.byte	$2C
	.byte	$2C
	.byte	$2C
	.byte	$2C
	.byte	$2C
	.byte	$0E
	.byte	$2C
	.byte	$2C
	.byte	$2C
	.byte	$2C
	.byte	$06
	.byte	$18
	.byte	$18
	.byte	$2A
	.byte	$2A
	.byte	$2A
	.byte	$2C
	.byte	$2C
	.byte	$2C
	.byte	$2C
	.byte	$2C
	.byte	$0E
	.byte	$2C
	.byte	$2C
	.byte	$2C
	.byte	$2C
	.byte	$06
	.byte	$0D
	.byte	$0D
	.byte	$0D
	.byte	$0D
	.byte	$0D
	.byte	$0D
	.byte	$0D
	.byte	$15
	.byte	$2C
	.byte	$2C
	.byte	$0E
	.byte	$2C
	.byte	$2C
	.byte	$2C
	.byte	$2C
	.byte	$06
	.byte	$2C
	.byte	$2C
	.byte	$2C
	.byte	$2C
	.byte	$2C
	.byte	$2C
	.byte	$01
	.byte	$01
	.byte	$2C
	.byte	$2C
	.byte	$0E
	.byte	$2C
	.byte	$2C
	.byte	$2C
	.byte	$2C
	.byte	$06
	.byte	$2C
	.byte	$2C
	.byte	$2C
	.byte	$2C
	.byte	$2C
	.byte	$2C
	.byte	$2C
	.byte	$2C
	.byte	$2C
	.byte	$2C
	.byte	$0E
	.byte	$2C
	.byte	$2C
	.byte	$2C
	.byte	$2C
	.byte	$06
	.byte	$2C
	.byte	$2C
	.byte	$2C
	.byte	$2C
	.byte	$2C
	.byte	$0F
	.byte	$2C
	.byte	$2C
	.byte	$2C
	.byte	$2C
	.byte	$0E
	.byte	$2C
	.byte	$2C
	.byte	$2C
	.byte	$2C
	.byte	$06
	.byte	$2C
	.byte	$2C
	.byte	$00
	.byte	$00
	.byte	$00
	.byte	$00
	.byte	$00
	.byte	$00
	.byte	$00
	.byte	$00
	.byte	$0E
	.byte	$2C
	.byte	$2C
	.byte	$2C
	.byte	$2C
_level10_1:
	.byte	$06
	.byte	$2C
	.byte	$2C
	.byte	$0C
	.byte	$05
	.byte	$05
	.byte	$05
	.byte	$05
	.byte	$05
	.byte	$05
	.byte	$05
	.byte	$06
	.byte	$2C
	.byte	$2C
	.byte	$2C
	.byte	$2C
	.byte	$06
	.byte	$2C
	.byte	$2C
	.byte	$0B
	.byte	$07
	.byte	$07
	.byte	$07
	.byte	$07
	.byte	$07
	.byte	$07
	.byte	$07
	.byte	$06
	.byte	$2C
	.byte	$2C
	.byte	$2C
	.byte	$2C
	.byte	$06
	.byte	$2C
	.byte	$28
	.byte	$2C
	.byte	$28
	.byte	$2C
	.byte	$2C
	.byte	$2C
	.byte	$2C
	.byte	$2C
	.byte	$2C
	.byte	$0E
	.byte	$2C
	.byte	$2C
	.byte	$2C
	.byte	$2C
	.byte	$06
	.byte	$2C
	.byte	$2C
	.byte	$2C
	.byte	$2C
	.byte	$2C
	.byte	$2C
	.byte	$2C
	.byte	$2C
	.byte	$2C
	.byte	$2C
	.byte	$0E
	.byte	$2C
	.byte	$2C
	.byte	$2C
	.byte	$2C
	.byte	$04
	.byte	$0D
	.byte	$11
	.byte	$2C
	.byte	$10
	.byte	$11
	.byte	$2C
	.byte	$2C
	.byte	$2C
	.byte	$2C
	.byte	$2C
	.byte	$0E
	.byte	$2C
	.byte	$2C
	.byte	$2C
	.byte	$2C
	.byte	$06
	.byte	$2C
	.byte	$2C
	.byte	$2C
	.byte	$2C
	.byte	$2C
	.byte	$2C
	.byte	$2C
	.byte	$2C
	.byte	$2C
	.byte	$2C
	.byte	$0E
	.byte	$2C
	.byte	$2C
	.byte	$2C
	.byte	$2C
	.byte	$06
	.byte	$2C
	.byte	$2C
	.byte	$2C
	.byte	$2C
	.byte	$2C
	.byte	$2C
	.byte	$2C
	.byte	$2C
	.byte	$2C
	.byte	$2C
	.byte	$0E
	.byte	$2C
	.byte	$2C
	.byte	$2C
	.byte	$2C
	.byte	$06
	.byte	$2C
	.byte	$16
	.byte	$2C
	.byte	$2C
	.byte	$28
	.byte	$1C
	.byte	$1D
	.byte	$28
	.byte	$2C
	.byte	$2C
	.byte	$0E
	.byte	$2C
	.byte	$2C
	.byte	$2C
	.byte	$2C
	.byte	$06
	.byte	$2C
	.byte	$2C
	.byte	$2C
	.byte	$2C
	.byte	$2C
	.byte	$1E
	.byte	$1F
	.byte	$2C
	.byte	$2C
	.byte	$2C
	.byte	$0E
	.byte	$2C
	.byte	$2C
	.byte	$2C
	.byte	$2C
	.byte	$06
	.byte	$2C
	.byte	$2C
	.byte	$2C
	.byte	$2C
	.byte	$2C
	.byte	$2C
	.byte	$2C
	.byte	$2C
	.byte	$2C
	.byte	$2C
	.byte	$0E
	.byte	$2C
	.byte	$2C
	.byte	$2C
	.byte	$2C
	.byte	$06
	.byte	$29
	.byte	$2C
	.byte	$29
	.byte	$2C
	.byte	$2C
	.byte	$2C
	.byte	$2C
	.byte	$2C
	.byte	$2C
	.byte	$2C
	.byte	$0E
	.byte	$2C
	.byte	$2C
	.byte	$2C
	.byte	$2C
	.byte	$04
	.byte	$0D
	.byte	$0D
	.byte	$11
	.byte	$2C
	.byte	$2C
	.byte	$2C
	.byte	$2C
	.byte	$2C
	.byte	$2C
	.byte	$2C
	.byte	$0E
	.byte	$2C
	.byte	$2C
	.byte	$2C
	.byte	$2C
	.byte	$06
	.byte	$2C
	.byte	$2C
	.byte	$2C
	.byte	$2C
	.byte	$2C
	.byte	$2C
	.byte	$2A
	.byte	$2A
	.byte	$2A
	.byte	$2C
	.byte	$0E
	.byte	$2C
	.byte	$2C
	.byte	$2C
	.byte	$2C
	.byte	$06
	.byte	$2C
	.byte	$2C
	.byte	$2C
	.byte	$2C
	.byte	$2C
	.byte	$2C
	.byte	$2A
	.byte	$16
	.byte	$2A
	.byte	$2C
	.byte	$0E
	.byte	$2C
	.byte	$2C
	.byte	$2C
	.byte	$2C
	.byte	$06
	.byte	$2C
	.byte	$2C
	.byte	$2A
	.byte	$2A
	.byte	$2A
	.byte	$2C
	.byte	$2A
	.byte	$2A
	.byte	$2A
	.byte	$2C
	.byte	$0E
	.byte	$2C
	.byte	$2C
	.byte	$2C
	.byte	$2C
_level10_2:
	.byte	$06
	.byte	$2C
	.byte	$2C
	.byte	$2A
	.byte	$16
	.byte	$2A
	.byte	$2C
	.byte	$2C
	.byte	$2C
	.byte	$2C
	.byte	$2C
	.byte	$0E
	.byte	$2C
	.byte	$2C
	.byte	$2C
	.byte	$2C
	.byte	$06
	.byte	$2C
	.byte	$2C
	.byte	$2A
	.byte	$2A
	.byte	$2A
	.byte	$2C
	.byte	$2C
	.byte	$2C
	.byte	$2C
	.byte	$2C
	.byte	$0E
	.byte	$2C
	.byte	$2C
	.byte	$2C
	.byte	$2C
	.byte	$06
	.byte	$2C
	.byte	$2C
	.byte	$2C
	.byte	$2C
	.byte	$10
	.byte	$0D
	.byte	$0D
	.byte	$0D
	.byte	$0D
	.byte	$0D
	.byte	$06
	.byte	$2C
	.byte	$2C
	.byte	$2C
	.byte	$2C
	.byte	$06
	.byte	$28
	.byte	$1C
	.byte	$1D
	.byte	$28
	.byte	$2C
	.byte	$2C
	.byte	$2C
	.byte	$2C
	.byte	$2C
	.byte	$2C
	.byte	$0E
	.byte	$2C
	.byte	$2C
	.byte	$2C
	.byte	$2C
	.byte	$06
	.byte	$2C
	.byte	$1E
	.byte	$1F
	.byte	$2C
	.byte	$2C
	.byte	$2C
	.byte	$2C
	.byte	$2C
	.byte	$2C
	.byte	$2C
	.byte	$0E
	.byte	$2C
	.byte	$2C
	.byte	$2C
	.byte	$2C
	.byte	$04
	.byte	$05
	.byte	$05
	.byte	$05
	.byte	$05
	.byte	$05
	.byte	$09
	.byte	$2C
	.byte	$2C
	.byte	$2C
	.byte	$2C
	.byte	$0E
	.byte	$2C
	.byte	$2C
	.byte	$2C
	.byte	$2C
	.byte	$04
	.byte	$07
	.byte	$07
	.byte	$07
	.byte	$07
	.byte	$07
	.byte	$07
	.byte	$15
	.byte	$2C
	.byte	$2C
	.byte	$2C
	.byte	$0E
	.byte	$2C
	.byte	$2C
	.byte	$2C
	.byte	$2C
	.byte	$06
	.byte	$2C
	.byte	$2C
	.byte	$2C
	.byte	$2C
	.byte	$2C
	.byte	$2C
	.byte	$2C
	.byte	$2C
	.byte	$2C
	.byte	$2C
	.byte	$0E
	.byte	$2C
	.byte	$2C
	.byte	$2C
	.byte	$2C
	.byte	$06
	.byte	$2C
	.byte	$2C
	.byte	$2C
	.byte	$2C
	.byte	$2C
	.byte	$2C
	.byte	$2C
	.byte	$28
	.byte	$2C
	.byte	$2C
	.byte	$0E
	.byte	$2C
	.byte	$2C
	.byte	$2C
	.byte	$2C
	.byte	$06
	.byte	$2C
	.byte	$2C
	.byte	$2C
	.byte	$2C
	.byte	$2C
	.byte	$2C
	.byte	$2C
	.byte	$2C
	.byte	$2C
	.byte	$0C
	.byte	$06
	.byte	$2C
	.byte	$2C
	.byte	$2C
	.byte	$2C
	.byte	$06
	.byte	$2C
	.byte	$2C
	.byte	$2C
	.byte	$2C
	.byte	$2C
	.byte	$28
	.byte	$2C
	.byte	$2C
	.byte	$0C
	.byte	$04
	.byte	$06
	.byte	$2C
	.byte	$2C
	.byte	$2C
	.byte	$2C
	.byte	$06
	.byte	$2C
	.byte	$2C
	.byte	$2C
	.byte	$2C
	.byte	$2C
	.byte	$2C
	.byte	$2C
	.byte	$0C
	.byte	$07
	.byte	$07
	.byte	$0A
	.byte	$2C
	.byte	$2C
	.byte	$2C
	.byte	$2C
	.byte	$06
	.byte	$2C
	.byte	$28
	.byte	$20
	.byte	$21
	.byte	$2C
	.byte	$2C
	.byte	$0C
	.byte	$06
	.byte	$2C
	.byte	$2C
	.byte	$2C
	.byte	$2C
	.byte	$2C
	.byte	$2C
	.byte	$2C
	.byte	$06
	.byte	$2C
	.byte	$2C
	.byte	$22
	.byte	$23
	.byte	$2C
	.byte	$0C
	.byte	$04
	.byte	$06
	.byte	$2C
	.byte	$1A
	.byte	$2C
	.byte	$2C
	.byte	$2C
	.byte	$2C
	.byte	$2C
	.byte	$04
	.byte	$05
	.byte	$05
	.byte	$05
	.byte	$05
	.byte	$05
	.byte	$04
	.byte	$04
	.byte	$04
	.byte	$05
	.byte	$05
	.byte	$09
	.byte	$2C
	.byte	$2C
	.byte	$2C
	.byte	$2C
_level10_enemy:
	.byte	$49
	.byte	$02
	.byte	$04
	.byte	$59
	.byte	$02
	.byte	$07
	.byte	$69
	.byte	$02
	.byte	$04
	.byte	$24
	.byte	$02
	.byte	$06
	.byte	$71
	.byte	$02
	.byte	$06
	.byte	$91
	.byte	$02
	.byte	$02
	.byte	$2A
	.byte	$01
	.byte	$06
	.byte	$9C
	.byte	$00
	.byte	$01
	.byte	$FF
_level_starting_nt:
	.byte	$00
	.byte	$03
_valrigard_starting_nt:
	.byte	$02
_valrigard_inital_coords:
	.byte	$4D
_level_nametables:
	.addr	_level10_0
	.addr	_level10_1
	.addr	_level10_2
_level_names:
	.addr	L0529
	.addr	L052B
_level_enemy_data:
	.addr	_level10_enemy
.segment	"RODATA"
_palette_bg:
	.byte	$0F
	.byte	$00
	.byte	$10
	.byte	$30
	.byte	$0F
	.byte	$01
	.byte	$11
	.byte	$31
	.byte	$0F
	.byte	$06
	.byte	$16
	.byte	$26
	.byte	$0F
	.byte	$17
	.byte	$27
	.byte	$38
_palette_sp:
	.byte	$0F
	.byte	$16
	.byte	$27
	.byte	$37
	.byte	$0F
	.byte	$01
	.byte	$0F
	.byte	$32
	.byte	$0F
	.byte	$04
	.byte	$14
	.byte	$24
	.byte	$0F
	.byte	$30
	.byte	$16
	.byte	$00
_shuffle_array:
	.byte	$00
	.byte	$01
	.byte	$02
	.byte	$03
	.byte	$04
	.byte	$05
	.byte	$06
	.byte	$07
	.byte	$08
	.byte	$09
	.byte	$0A
	.byte	$0B
	.byte	$0C
	.byte	$0D
	.byte	$0E
	.byte	$0F
	.byte	$10
	.byte	$11
	.byte	$12
	.byte	$13
	.byte	$14
	.byte	$15
	.byte	$16
	.byte	$17
	.byte	$18
	.byte	$19
	.byte	$1A
	.byte	$1B
	.byte	$1C
	.byte	$1D
	.byte	$1E
	.byte	$1F
	.byte	$1F
	.byte	$1E
	.byte	$1D
	.byte	$1C
	.byte	$1B
	.byte	$1A
	.byte	$19
	.byte	$18
	.byte	$17
	.byte	$16
	.byte	$15
	.byte	$14
	.byte	$13
	.byte	$12
	.byte	$11
	.byte	$10
	.byte	$0F
	.byte	$0E
	.byte	$0D
	.byte	$0C
	.byte	$0B
	.byte	$0A
	.byte	$09
	.byte	$08
	.byte	$07
	.byte	$06
	.byte	$05
	.byte	$04
	.byte	$03
	.byte	$02
	.byte	$01
	.byte	$00
	.byte	$00
	.byte	$02
	.byte	$04
	.byte	$06
	.byte	$08
	.byte	$0A
	.byte	$0C
	.byte	$0E
	.byte	$10
	.byte	$12
	.byte	$14
	.byte	$16
	.byte	$18
	.byte	$1A
	.byte	$1C
	.byte	$1E
	.byte	$01
	.byte	$03
	.byte	$05
	.byte	$07
	.byte	$09
	.byte	$0B
	.byte	$0D
	.byte	$0F
	.byte	$11
	.byte	$13
	.byte	$15
	.byte	$17
	.byte	$19
	.byte	$1B
	.byte	$1D
	.byte	$1F
	.byte	$1F
	.byte	$1D
	.byte	$1B
	.byte	$19
	.byte	$17
	.byte	$15
	.byte	$13
	.byte	$11
	.byte	$0F
	.byte	$0D
	.byte	$0B
	.byte	$09
	.byte	$07
	.byte	$05
	.byte	$03
	.byte	$01
	.byte	$1E
	.byte	$1C
	.byte	$1A
	.byte	$18
	.byte	$16
	.byte	$14
	.byte	$12
	.byte	$10
	.byte	$0E
	.byte	$0C
	.byte	$0A
	.byte	$08
	.byte	$06
	.byte	$04
	.byte	$02
	.byte	$00
_cmaps:
	.addr	_cmap0
	.addr	_cmap1
	.addr	_cmap2
	.addr	_cmap3
	.addr	_cmap4
	.addr	_cmap5
_draw_screen_sub_lookup_addr_0:
	.byte	$00
	.byte	$40
	.byte	$80
	.byte	$C0
_draw_screen_sub_lookup_index_offset_0:
	.byte	$00
	.byte	$04
	.byte	$08
	.byte	$0C
_draw_screen_sub_lookup_addr_1:
	.byte	$20
	.byte	$60
	.byte	$A0
	.byte	$E0
_draw_screen_sub_lookup_index_offset_1:
	.byte	$02
	.byte	$06
	.byte	$0A
	.byte	$0E
_leftright_movement_offset_lookup_table:
	.byte	$FF
	.byte	$0F
_leftright_movement_moving_lookup_table:
	.byte	$FF
	.byte	$01
_updown_movement_offset_lookup_table:
	.byte	$FF
	.byte	$0F
_korbat_sprite_lookup_table:
	.addr	_korbat_left
	.addr	_korbat_right
_grarrl_sprite_lookup_table:
	.addr	_grarrl_left
	.addr	_grarrl_right
_cannon_sprite_lookup_table:
	.addr	_cannon_up
	.addr	_cannon_up_left
	.addr	_cannon_left
	.addr	_cannon_down_left
	.addr	_cannon_down
	.addr	_cannon_down_right
	.addr	_cannon_right
	.addr	_cannon_up_right
_cannon_ul_sprite_lookup_table:
	.byte	$06
	.byte	$07
	.byte	$00
_cannon_ur_sprite_lookup_table:
	.byte	$02
	.byte	$01
	.byte	$00
_cannon_dr_sprite_lookup_table:
	.byte	$02
	.byte	$03
	.byte	$04
_cannon_dl_sprite_lookup_table:
	.byte	$06
	.byte	$05
	.byte	$04
_cannon_sprite_quadrant_lookup_table:
	.addr	_cannon_ul_sprite_lookup_table
	.addr	_cannon_ur_sprite_lookup_table
	.addr	_cannon_dl_sprite_lookup_table
	.addr	_cannon_dr_sprite_lookup_table
_title_string:
	.byte	$43,$61,$73,$74,$6C,$65,$20,$45,$73,$63,$61,$70,$65,$20,$41,$6C
	.byte	$70,$68,$61,$00
_author_string:
	.byte	$42,$79,$20,$6D,$61,$63,$6F,$73,$74,$65,$6E,$00
_instruction_string:
	.byte	$50,$72,$65,$73,$73,$20,$55,$70,$20,$74,$6F,$20,$73,$74,$61,$72
	.byte	$74,$00
_game_over_string:
	.byte	$44,$65,$6D,$6F,$20,$4F,$76,$65,$72,$21,$20,$44,$6F,$77,$6E,$20
	.byte	$74,$6F,$20,$72,$65,$73,$74,$61,$72,$74,$2E,$00
L0529:
	.byte	$4D,$6F,$63,$6B,$75,$70,$20,$4C,$65,$76,$65,$6C,$20,$31,$30,$00
L052B:
	.byte	$4E,$75,$6C,$6C,$00

.segment	"BSS"

_bankLevel:
	.res	1,$00
_bankBuffer:
	.res	10,$00
.segment	"ZEROPAGE"
_pad1:
	.res	1,$00
_pad1_new:
	.res	1,$00
_collision:
	.res	1,$00
_collision_L:
	.res	1,$00
_collision_R:
	.res	1,$00
_collision_U:
	.res	1,$00
_collision_D:
	.res	1,$00
_coordinates:
	.res	1,$00
_temp0:
	.res	1,$00
_temp1:
	.res	1,$00
_temp2:
	.res	1,$00
_temp3:
	.res	1,$00
_temp4:
	.res	1,$00
_temp5:
	.res	2,$00
_temp6:
	.res	2,$00
_temppointer:
	.res	2,$00
_temp_mutablepointer:
	.res	2,$00
_temp_funcpointer:
	.res	2,$00
_eject_L:
	.res	1,$00
_eject_R:
	.res	1,$00
_eject_D:
	.res	1,$00
_eject_U:
	.res	1,$00
_player_flags:
	.res	1,$00
_game_mode:
	.res	1,$00
_address:
	.res	2,$00
_x:
	.res	1,$00
_y:
	.res	1,$00
_index:
	.res	1,$00
_nt:
	.res	1,$00
_scroll_x:
	.res	2,$00
_pseudo_scroll_y:
	.res	2,$00
_scroll_y:
	.res	2,$00
_min_scroll_y:
	.res	2,$00
_max_scroll_y:
	.res	2,$00
_initial_scroll:
	.res	2,$00
_scroll_count:
	.res	1,$00
_L_R_switch:
	.res	1,$00
_old_x:
	.res	2,$00
_old_y:
	.res	2,$00
_temp_x:
	.res	1,$00
_temp_y:
	.res	1,$00
_level_index:
	.res	1,$00
_energy:
	.res	1,$00
_stars:
	.res	1,$00
_timer:
	.res	1,$00
_song:
	.res	1,$00
_nt_min:
	.res	1,$00
_nt_max:
	.res	1,$00
_nt_current:
	.res	1,$00
_valrigard:
	.res	8,$00
_hitbox:
	.res	4,$00
_hitbox2:
	.res	4,$00
_debug_tile_x:
	.res	1,$00
_debug_tile_y:
	.res	1,$00
.segment	"BSS"
_enemies:
	.res	257,$00
.segment	"XRAM"
_cmap0:
	.res	240,$00
_cmap1:
	.res	240,$00
_cmap2:
	.res	240,$00
_cmap3:
	.res	240,$00
_cmap4:
	.res	240,$00
_cmap5:
	.res	240,$00

; ---------------------------------------------------------------
; void __near__ draw_sprites (void)
; ---------------------------------------------------------------

.segment	"CODE"

.proc	_draw_sprites: near

.segment	"CODE"

;
; oam_clear();
;
	jsr     _oam_clear
;
; temp1 = valrigard.x >> 8;
;
	lda     _valrigard+1
	sta     _temp1
;
; temp2 = valrigard.y >> 8;
;
	lda     _valrigard+3
	sta     _temp2
;
; if (DIRECTION == LEFT) {
;
	lda     _player_flags
	and     #$01
	bne     L07FB
;
; oam_meta_spr(temp1, temp2, valrigardIdleLeft);
;
	jsr     decsp2
	lda     _temp1
	ldy     #$01
	sta     (sp),y
	lda     _temp2
	dey
	sta     (sp),y
	lda     #<(_valrigardIdleLeft)
	ldx     #>(_valrigardIdleLeft)
;
; } else {
;
	jmp     L0D33
;
; oam_meta_spr(temp1, temp2, valrigardIdleRight);
;
L07FB:	jsr     decsp2
	lda     _temp1
	ldy     #$01
	sta     (sp),y
	lda     _temp2
	dey
	sta     (sp),y
	lda     #<(_valrigardIdleRight)
	ldx     #>(_valrigardIdleRight)
L0D33:	jsr     _oam_meta_spr
;
; temp1 = get_frame_count() & 3;
;
	jsr     _get_frame_count
	and     #$03
	sta     _temp1
;
; temp1 = temp1 << 8; // * 32, since that's the size of our shuffle array.
;
	lda     #$00
	sta     _temp1
;
; for (x = 0; x < enemies.count; ++x) {
;
	sta     _x
	tax
L0D39:	lda     _x
	cmp     _enemies+256
	txa
	sbc     #$00
	jcs     L0D3C
;
; y = shuffle_array[temp1];
;
	ldy     _temp1
	lda     _shuffle_array,y
	sta     _y
;
; ++temp1;
;
	inc     _temp1
;
; temp2 = enemies.flags_type[y];
;
	ldy     _y
	lda     _enemies+128,y
	sta     _temp2
;
; if (temp2 == 0) continue;
;
	lda     _temp2
	jeq     L0D3B
;
; if (!IS_ENEMY_ACTIVE(y)) continue;
;
	ldy     _y
	lda     _enemies+128,y
	and     #$80
	jeq     L0D3B
;
; temp_x = enemies.x[y];
;
	ldy     _y
	lda     _enemies,y
	sta     _temp_x
;
; if (temp_x == 0) ++temp_x; // Basing this off NESDoug's report of problems with temp_x = 0.
;
	lda     _temp_x
	bne     L0D3A
	inc     _temp_x
;
; if (temp_x > 0xf0) continue;
;
L0D3A:	lda     _temp_x
	cmp     #$F1
	jcs     L0D3B
;
; temp_y = enemies.y[y];
;
	ldy     _y
	lda     _enemies+32,y
	sta     _temp_y
;
; if (temp_y < 0xf0) {
;
	cmp     #$F0
	jcs     L0D3B
;
; switch (GET_ENEMY_TYPE(y)) {
;
	ldy     _x
	lda     _enemies+128,y
	and     #$0F
;
; }
;
	cmp     #$01
	beq     L083A
	cmp     #$02
	beq     L0846
	cmp     #$04
	jeq     L0852
	cmp     #$06
	jeq     L0876
	cmp     #$07
	jeq     L0863
	cmp     #$09
	jeq     L0869
	cmp     #$0A
	jeq     L0870
	jmp     L0876
;
; temp3 = ENEMY_DIRECTION(y) >> 6;
;
L083A:	ldy     _y
	lda     _enemies+128,y
	and     #$40
	lsr     a
	lsr     a
	lsr     a
	lsr     a
	jsr     shrax2
	sta     _temp3
;
; oam_meta_spr(temp_x, temp_y, korbat_sprite_lookup_table[temp3]);
;
	jsr     decsp2
	lda     _temp_x
	ldy     #$01
	sta     (sp),y
	lda     _temp_y
	dey
	sta     (sp),y
	ldx     #$00
	lda     _temp3
	asl     a
	bcc     L0D36
	inx
	clc
L0D36:	adc     #<(_korbat_sprite_lookup_table)
	sta     ptr1
	txa
	adc     #>(_korbat_sprite_lookup_table)
	sta     ptr1+1
	iny
	lda     (ptr1),y
	tax
	dey
	lda     (ptr1),y
;
; break;
;
	jmp     L0D34
;
; temp3 = ENEMY_DIRECTION(y) >> 6;
;
L0846:	ldy     _y
	lda     _enemies+128,y
	and     #$40
	lsr     a
	lsr     a
	lsr     a
	lsr     a
	jsr     shrax2
	sta     _temp3
;
; oam_meta_spr(temp_x, temp_y, grarrl_sprite_lookup_table[temp3]);
;
	jsr     decsp2
	lda     _temp_x
	ldy     #$01
	sta     (sp),y
	lda     _temp_y
	dey
	sta     (sp),y
	ldx     #$00
	lda     _temp3
	asl     a
	bcc     L0D37
	inx
	clc
L0D37:	adc     #<(_grarrl_sprite_lookup_table)
	sta     ptr1
	txa
	adc     #>(_grarrl_sprite_lookup_table)
	sta     ptr1+1
	iny
	lda     (ptr1),y
	tax
	dey
	lda     (ptr1),y
;
; break;
;
	jmp     L0D34
;
; temp3 = enemies.extra2[y];
;
L0852:	ldy     _y
	lda     _enemies+192,y
	sta     _temp3
;
; oam_meta_spr(temp_x, temp_y, cannon_sprite_lookup_table[temp3]);
;
	jsr     decsp2
	lda     _temp_x
	ldy     #$01
	sta     (sp),y
	lda     _temp_y
	dey
	sta     (sp),y
	lda     _temp3
	asl     a
	bcc     L0D38
	ldx     #$01
	clc
L0D38:	adc     #<(_cannon_sprite_lookup_table)
	sta     ptr1
	txa
	adc     #>(_cannon_sprite_lookup_table)
	sta     ptr1+1
	iny
	lda     (ptr1),y
	tax
	dey
	lda     (ptr1),y
;
; break;
;
	jmp     L0D34
;
; oam_meta_spr(temp_x, temp_y, sun0);
;
L0863:	jsr     decsp2
	lda     _temp_x
	ldy     #$01
	sta     (sp),y
	lda     _temp_y
	dey
	sta     (sp),y
	lda     #<(_sun0)
	ldx     #>(_sun0)
;
; break;
;
	jmp     L0D34
;
; oam_spr(temp_x, temp_y, CANNONBALL_SPRITE_OFFSET, 1);
;
L0869:	jsr     decsp3
	lda     _temp_x
	ldy     #$02
	sta     (sp),y
	lda     _temp_y
	dey
	sta     (sp),y
	lda     #$18
	dey
	sta     (sp),y
	lda     #$01
	jsr     _oam_spr
;
; break;
;
	jmp     L080E
;
; oam_spr(temp_x, temp_y, ACIDDROP_SPRITE_OFFSET, 3);
;
L0870:	jsr     decsp3
	lda     _temp_x
	ldy     #$02
	sta     (sp),y
	lda     _temp_y
	dey
	sta     (sp),y
	lda     #$17
	dey
	sta     (sp),y
	lda     #$03
	jsr     _oam_spr
;
; break;
;
	jmp     L080E
;
; oam_meta_spr(temp_x, temp_y, spikeball);
;
L0876:	jsr     decsp2
	lda     _temp_x
	ldy     #$01
	sta     (sp),y
	lda     _temp_y
	dey
	sta     (sp),y
	lda     #<(_spikeball)
	ldx     #>(_spikeball)
L0D34:	jsr     _oam_meta_spr
;
; for (x = 0; x < enemies.count; ++x) {
;
L080E:	ldx     #$00
L0D3B:	inc     _x
	jmp     L0D39
;
; temp1 = energy >> 4; 
;
L0D3C:	lda     _energy
	lsr     a
	lsr     a
	lsr     a
	lsr     a
	sta     _temp1
;
; oam_spr(200, 28, temp1, 1);
;
	jsr     decsp3
	lda     #$C8
	ldy     #$02
	sta     (sp),y
	lda     #$1C
	dey
	sta     (sp),y
	lda     _temp1
	dey
	sta     (sp),y
	lda     #$01
	jsr     _oam_spr
;
; temp1 = energy & 0x0f;
;
	lda     _energy
	and     #$0F
	sta     _temp1
;
; oam_spr(208, 28, temp1, 1);
;
	jsr     decsp3
	lda     #$D0
	ldy     #$02
	sta     (sp),y
	lda     #$1C
	dey
	sta     (sp),y
	lda     _temp1
	dey
	sta     (sp),y
	lda     #$01
	jsr     _oam_spr
;
; y = 4;
;
	lda     #$04
	sta     _y
;
; for (x = 200; x <= 232; x+=8) {
;
	lda     #$C8
L0D35:	sta     _x
	cmp     #$E9
	bcs     L088C
;
; oam_spr(x, 20, score_string[y], 3);
;
	jsr     decsp3
	lda     _x
	ldy     #$02
	sta     (sp),y
	lda     #$14
	dey
	sta     (sp),y
	ldy     _y
	lda     _score_string,y
	ldy     #$00
	sta     (sp),y
	lda     #$03
	jsr     _oam_spr
;
; --y;
;
	dec     _y
;
; for (x = 200; x <= 232; x+=8) {
;
	lda     #$08
	clc
	adc     _x
	jmp     L0D35
;
; oam_spr(232, 42, STATUS_DEAD, 2);
;
L088C:	jsr     decsp3
	lda     #$E8
	ldy     #$02
	sta     (sp),y
	lda     #$2A
	dey
	sta     (sp),y
	lda     _player_flags
	and     #$02
	dey
	sta     (sp),y
	lda     #$02
	jsr     _oam_spr
;
; oam_spr(200, 50, debug_tile_x >> 4, 1);
;
	jsr     decsp3
	lda     #$C8
	ldy     #$02
	sta     (sp),y
	lda     #$32
	dey
	sta     (sp),y
	lda     _debug_tile_x
	lsr     a
	lsr     a
	lsr     a
	lsr     a
	dey
	sta     (sp),y
	lda     #$01
	jsr     _oam_spr
;
; oam_spr(208, 50, debug_tile_x & 0x0f, 1);
;
	jsr     decsp3
	lda     #$D0
	ldy     #$02
	sta     (sp),y
	lda     #$32
	dey
	sta     (sp),y
	lda     _debug_tile_x
	and     #$0F
	dey
	sta     (sp),y
	lda     #$01
	jsr     _oam_spr
;
; oam_spr(224, 50, debug_tile_y >> 4, 1);
;
	jsr     decsp3
	lda     #$E0
	ldy     #$02
	sta     (sp),y
	lda     #$32
	dey
	sta     (sp),y
	lda     _debug_tile_y
	lsr     a
	lsr     a
	lsr     a
	lsr     a
	dey
	sta     (sp),y
	lda     #$01
	jsr     _oam_spr
;
; oam_spr(232, 50, debug_tile_y & 0x0f, 1);
;
	jsr     decsp3
	lda     #$E8
	ldy     #$02
	sta     (sp),y
	lda     #$32
	dey
	sta     (sp),y
	lda     _debug_tile_y
	and     #$0F
	dey
	sta     (sp),y
	lda     #$01
	jmp     _oam_spr

.endproc

; ---------------------------------------------------------------
; void __near__ movement (void)
; ---------------------------------------------------------------

.segment	"CODE"

.proc	_movement: near

.segment	"CODE"

;
; old_x = valrigard.x;
;
	lda     _valrigard+1
	sta     _old_x+1
	lda     _valrigard
	sta     _old_x
;
; if (pad1 & PAD_LEFT) {
;
	lda     _pad1
	and     #$02
	beq     L0D47
;
; SET_DIRECTION_LEFT();
;
	lda     _player_flags
	and     #$FE
	sta     _player_flags
;
; if (valrigard.x <= 0x0200) { // Changed by 1 from nesdoug's example because Valrigard's hitbox is narrower by 1 pixel on both sides
;
	lda     _valrigard+1
	cmp     #$02
	bne     L08C0
	lda     _valrigard
	cmp     #$01
L08C0:	bcs     L08BE
;
; valrigard.velocity_x = 0;
;
	lda     #$00
	sta     _valrigard+4
	sta     _valrigard+4+1
;
; valrigard.x = 0x200;
;
	ldx     #$02
	sta     _valrigard
	stx     _valrigard+1
;
; } else if (valrigard.x < 0x0600) { // Don't allow us to wrap to the other side
;
	jmp     L08E1
L08BE:	ldx     _valrigard+1
	cpx     #$06
	bcs     L08C6
;
; valrigard.velocity_x = -0x100;
;
	ldx     #$FF
	lda     #$00
;
; } else {
;
	jmp     L0D49
;
; valrigard.velocity_x = -SPEED;
;
L08C6:	ldx     #$FE
	lda     #$B0
;
; else if (pad1 & PAD_RIGHT){
;
	jmp     L0D49
L0D47:	lda     _pad1
	ldx     #$00
	and     #$01
	beq     L0D49
;
; SET_DIRECTION_RIGHT();
;
	lda     _player_flags
	ora     #$01
	sta     _player_flags
;
; if (valrigard.x >= 0xf000) {  // Also changed by 1 from nesdoug's example because Valrigard's hitbox is narrower by 1 pixel on both sides
;
	lda     _valrigard
	cmp     #$00
	lda     _valrigard+1
	sbc     #$F0
	bcc     L08D3
;
; valrigard.velocity_x = 0;
;
	txa
	sta     _valrigard+4
	sta     _valrigard+4+1
;
; valrigard.x = 0xf000; // ...and we'd add 0x100 to this constant here (and the 0x200 in the PAD_LEFT block would be a 0x100)
;
	ldx     #$F0
	sta     _valrigard
	stx     _valrigard+1
;
; } else if (valrigard.x > 0xec00) { // Don't allow us to wrap to the other side
;
	jmp     L08E1
L08D3:	lda     _valrigard
	cmp     #$01
	lda     _valrigard+1
	sbc     #$EC
	bcc     L08DA
;
; valrigard.velocity_x = 0x100;
;
	inx
	lda     #$00
;
; } else {
;
	jmp     L0D49
;
; valrigard.velocity_x = SPEED;
;
L08DA:	inx
	lda     #$50
;
; valrigard.velocity_x = 0;
;
L0D49:	sta     _valrigard+4
	stx     _valrigard+4+1
;
; valrigard.x += valrigard.velocity_x;
;
L08E1:	lda     _valrigard+4
	clc
	adc     _valrigard
	sta     _valrigard
	lda     _valrigard+4+1
	adc     _valrigard+1
	sta     _valrigard+1
;
; if((valrigard.x < 0x100)||(valrigard.x > 0xf800)) { // make sure no wrap around to the other side
;
	ldx     _valrigard+1
	cpx     #$01
	bcc     L0D4A
	lda     _valrigard
	cmp     #$01
	lda     _valrigard+1
	sbc     #$F8
	bcc     L0D4B
;
; valrigard.x = 0x100;
;
L0D4A:	ldx     #$01
	lda     #$00
	sta     _valrigard
	stx     _valrigard+1
;
; L_R_switch = 1; // Shrinks the Y values in bg_coll. This makes head/foot collisions less problematic (examine this)
;
L0D4B:	lda     #$01
	sta     _L_R_switch
;
; hitbox.x = high_byte(valrigard.x);
;
	lda     _valrigard+1
	sta     _hitbox
;
; hitbox.y = high_byte(valrigard.y);
;
	lda     _valrigard+3
	sta     _hitbox+1
;
; hitbox.width = VALRIGARD_WIDTH;
;
	lda     #$0B
	sta     _hitbox+2
;
; hitbox.height = VALRIGARD_HEIGHT;
;
	lda     #$0D
	sta     _hitbox+3
;
; bg_collision();
;
	jsr     _bg_collision
;
; if (collision_L && collision_R) { // Half-stuck in a wall, I'm guessing?
;
	lda     _collision_L
	beq     L08FA
	lda     _collision_R
	beq     L08FA
;
; valrigard.x = old_x;
;
	lda     _old_x+1
	sta     _valrigard+1
	lda     _old_x
	sta     _valrigard
;
; else if (collision_L) {
;
	jmp     L0907
L08FA:	lda     _collision_L
	beq     L0901
;
; valrigard.x -= (eject_L << 8);
;
	lda     #$FF
	sec
	adc     _valrigard
	sta     _valrigard
	lda     _eject_L
;
; else if (collision_R) {
;
	jmp     L0D56
L0901:	lda     _collision_R
	beq     L0907
;
; valrigard.x -= (eject_R << 8);
;
	lda     #$FF
	sec
	adc     _valrigard
	sta     _valrigard
	lda     _eject_R
L0D56:	eor     #$FF
	adc     _valrigard+1
	sta     _valrigard+1
;
; old_y = valrigard.y;
;
L0907:	lda     _valrigard+2+1
	sta     _old_y+1
	lda     _valrigard+2
	sta     _old_y
;
; if (pad1 & PAD_UP && energy > 0) { // If we're holding up on the DPad...
;
	lda     _pad1
	and     #$08
	beq     L090E
	lda     _energy
	beq     L090E
;
; valrigard.velocity_y -= GRAVITY;
;
	lda     _valrigard+6
	sec
	sbc     #$30
	sta     _valrigard+6
	bcs     L0914
	dec     _valrigard+6+1
;
; if (valrigard.velocity_y < -SPEED) valrigard.velocity_y = -SPEED;
;
L0914:	lda     _valrigard+6
	cmp     #$B0
	lda     _valrigard+6+1
	sbc     #$FE
	bvc     L0917
	eor     #$80
L0917:	bpl     L0D4F
	ldx     #$FE
	lda     #$B0
	sta     _valrigard+6
	stx     _valrigard+6+1
;
; energy -= 1;
;
L0D4F:	dec     _energy
;
; } else {
;
	jmp     L0920
;
; valrigard.velocity_y += GRAVITY;
;
L090E:	lda     #$30
	clc
	adc     _valrigard+6
	sta     _valrigard+6
	bcc     L091F
	inc     _valrigard+6+1
;
; if (valrigard.velocity_y > MAX_FALL) valrigard.velocity_y = MAX_FALL;
;
L091F:	lda     _valrigard+6
	cmp     #$51
	lda     _valrigard+6+1
	sbc     #$01
	bvs     L0922
	eor     #$80
L0922:	bpl     L0920
	ldx     #$01
	lda     #$50
	sta     _valrigard+6
	stx     _valrigard+6+1
;
; valrigard.y += valrigard.velocity_y;
;
L0920:	lda     _valrigard+6
	clc
	adc     _valrigard+2
	sta     _valrigard+2
	lda     _valrigard+6+1
	adc     _valrigard+2+1
	sta     _valrigard+2+1
;
; if (valrigard.y < 0x100)  valrigard.y = 0x100;
;
	ldx     _valrigard+2+1
	cpx     #$01
	bcs     L0927
	ldx     #$01
	lda     #$00
	sta     _valrigard+2
	stx     _valrigard+2+1
;
; if (valrigard.y > 0xf000) valrigard.y = 0xf000;
;
L0927:	lda     _valrigard+2
	cmp     #$01
	lda     _valrigard+2+1
	sbc     #$F0
	lda     #$00
	bcc     L0D51
	ldx     #$F0
	sta     _valrigard+2
	stx     _valrigard+2+1
;
; L_R_switch = 0;
;
L0D51:	sta     _L_R_switch
;
; hitbox.x = high_byte(valrigard.x);
;
	lda     _valrigard+1
	sta     _hitbox
;
; hitbox.y = high_byte(valrigard.y);
;
	lda     _valrigard+3
	sta     _hitbox+1
;
; bg_collision();
;
	jsr     _bg_collision
;
; if(collision_U) {
;
	lda     _collision_U
	beq     L0938
;
; high_byte(valrigard.y) -= eject_U;
;
	lda     _eject_U
	eor     #$FF
	sec
	adc     _valrigard+3
	sta     _valrigard+3
;
; else if (collision_D) {
;
	jmp     L0945
L0938:	lda     _collision_D
	beq     L0945
;
; high_byte(valrigard.y) -= eject_D;
;
	lda     _eject_D
	eor     #$FF
	sec
	adc     _valrigard+3
	sta     _valrigard+3
;
; energy += 4;
;
	lda     #$04
	clc
	adc     _energy
	sta     _energy
;
; if (energy > MAX_ENERGY) energy = MAX_ENERGY;
;
	cmp     #$71
	bcc     L0945
	lda     #$70
	sta     _energy
;
; temp5 = valrigard.y;
;
L0945:	lda     _valrigard+2+1
	sta     _temp5+1
	lda     _valrigard+2
	sta     _temp5
;
; if (valrigard.y < MAX_UP && scroll_y > min_scroll_y) {
;
	ldx     _valrigard+2+1
	cpx     #$40
	bcs     L094B
	lda     _scroll_y
	sec
	sbc     _min_scroll_y
	sta     tmp1
	lda     _scroll_y+1
	sbc     _min_scroll_y+1
	ora     tmp1
	beq     L094B
	bcc     L094B
;
; temp1 = (MAX_UP - valrigard.y + 0x80) >> 8; // "the numbers work better with +80 (like 0.5)". I'll take his word for it.
;
	lda     #$00
	sec
	sbc     _valrigard+2
	pha
	lda     #$40
	sbc     _valrigard+2+1
	tax
	pla
	clc
	adc     #$80
	bcc     L0952
	inx
L0952:	txa
	sta     _temp1
;
; scroll_y = sub_scroll_y(temp1, scroll_y);
;
	jsr     pusha
	lda     _scroll_y
	ldx     _scroll_y+1
	jsr     _sub_scroll_y
	sta     _scroll_y
	stx     _scroll_y+1
;
; valrigard.y += (temp1 << 8);
;
	lda     #$00
	clc
	adc     _valrigard+2
	sta     _valrigard+2
	lda     _temp1
	adc     _valrigard+2+1
	sta     _valrigard+2+1
;
; if (valrigard.y > MIN_DOWN && scroll_y < max_scroll_y) {
;
L094B:	lda     _valrigard+2
	cmp     #$01
	lda     _valrigard+2+1
	sbc     #$80
	bcc     L0D53
	lda     _scroll_y
	cmp     _max_scroll_y
	lda     _scroll_y+1
	sbc     _max_scroll_y+1
	bcc     L095B
L0D53:	rts
;
; temp1 = (MIN_DOWN + valrigard.y + 0x80) >> 8;
;
L095B:	lda     _valrigard+2
	pha
	lda     _valrigard+2+1
	clc
	adc     #$80
	tax
	pla
	clc
	adc     #$80
	bcc     L0961
	inx
L0961:	txa
	sta     _temp1
;
; scroll_y = add_scroll_y(temp1, scroll_y);
;
	jsr     pusha
	lda     _scroll_y
	ldx     _scroll_y+1
	jsr     _add_scroll_y
	sta     _scroll_y
	stx     _scroll_y+1
;
; valrigard.y -= (temp1 << 8);
;
	lda     #$FF
	sec
	adc     _valrigard+2
	sta     _valrigard+2
	lda     _temp1
	eor     #$FF
	adc     _valrigard+2+1
	sta     _valrigard+2+1
;
; }
;
	rts

.endproc

; ---------------------------------------------------------------
; void __near__ begin_level (void)
; ---------------------------------------------------------------

.segment	"CODE"

.proc	_begin_level: near

.segment	"CODE"

;
; ppu_off(); // We're going to make big changes to VRAM so we need to turn it off.
;
	jsr     _ppu_off
;
; game_mode = MODE_GAME;
;
	lda     #$01
	sta     _game_mode
;
; SET_STATUS_ALIVE();
;
	lda     _player_flags
	and     #$FD
	sta     _player_flags
;
; load_level_new();
;
	jsr     _load_level_new
;
; seed_rng();
;
	jsr     _seed_rng
;
; energy = MAX_ENERGY;
;
	lda     #$70
	sta     _energy
;
; ppu_on_all();
;
	jmp     _ppu_on_all

.endproc

; ---------------------------------------------------------------
; void __near__ load_level_new (void)
; ---------------------------------------------------------------

.segment	"CODE"

.proc	_load_level_new: near

.segment	"CODE"

;
; player_flags = 0; 
;
	lda     #$00
	sta     _player_flags
;
; scroll_count = 0; 
;
	sta     _scroll_count
;
; nt_max = level_starting_nt[level_index+1];
;
	tax
	lda     _level_index
	clc
	adc     #$01
	bcc     L06F8
	inx
L06F8:	sta     ptr1
	txa
	clc
	adc     #>(_level_starting_nt)
	sta     ptr1+1
	ldy     #<(_level_starting_nt)
	lda     (ptr1),y
	sta     _nt_max
;
; nt_current = valrigard_starting_nt[level_index];
;
	ldy     _level_index
	lda     _valrigard_starting_nt,y
	sta     _nt_current
;
; high_byte(scroll_y) = nt_current; // The high byte of scroll_y is the nametable we're currently in (0-255).
;
	sta     _scroll_y+1
;
; low_byte(scroll_y) = 2;
;
	lda     #$02
	sta     _scroll_y
;
; high_byte(max_scroll_y) = nt_max - 1; // bottom of this level
;
	lda     _nt_max
	sec
	sbc     #$01
	sta     _max_scroll_y+1
;
; low_byte(max_scroll_y) = 0xef;
;
	lda     #$EF
	sta     _max_scroll_y
;
; high_byte(min_scroll_y) = 0; // Min Scroll
;
	lda     #$00
	sta     _min_scroll_y+1
;
; low_byte(min_scroll_y) = 0x02;
;
	lda     #$02
	sta     _min_scroll_y
;
; initial_scroll = ((nt_current * 0x100) - 0x11);
;
	ldx     _nt_current
	lda     #$00
	sec
	sbc     #$11
	bcs     L0714
	dex
L0714:	sta     _initial_scroll
	stx     _initial_scroll+1
;
; temp4 = valrigard_inital_coords[level_index];
;
	ldy     _level_index
	lda     _valrigard_inital_coords,y
	sta     _temp4
;
; valrigard.x = (temp4 & 0xf0) << 8;
;
	and     #$F0
	sta     _valrigard+1
	lda     #$00
	sta     _valrigard
;
; valrigard.y = ((temp4 & 0x0f) * 16) << 8;
;
	lda     _temp4
	and     #$0F
	asl     a
	asl     a
	asl     a
	asl     a
	sta     _valrigard+2+1
	lda     #$00
	sta     _valrigard+2
;
; for (x = 0; x < nt_max; ++x) {
;
	sta     _x
	tax
L0D65:	lda     _x
	cmp     _nt_max
	bcs     L0D66
;
; load_room_new();
;
	jsr     _load_room_new
;
; for (x = 0; x < nt_max; ++x) {
;
	ldx     #$00
	inc     _x
	jmp     L0D65
;
; set_data_pointer(cmaps[nt_current]);
;
L0D66:	lda     _nt_current
	asl     a
	bcc     L0D63
	inx
	clc
L0D63:	adc     #<(_cmaps)
	sta     ptr1
	txa
	adc     #>(_cmaps)
	sta     ptr1+1
	ldy     #$01
	lda     (ptr1),y
	tax
	dey
	lda     (ptr1),y
	jsr     _set_data_pointer
;
; set_mt_pointer(metatiles);
;
	lda     #<(_metatiles)
	ldx     #>(_metatiles)
	jsr     _set_mt_pointer
;
; temp1 = (initial_scroll >> 8) + 1;
;
	lda     _initial_scroll+1
	clc
	adc     #$01
	sta     _temp1
;
; temp1 = (temp1 & 1) << 1;
;
	and     #$01
	asl     a
	sta     _temp1
;
; for(y=0; ;y+=0x20){
;
	lda     #$00
L0D5F:	sta     _y
;
; for(x=0; ;x+=0x20){
;
	lda     #$00
L0D5E:	sta     _x
;
; clear_vram_buffer(); // do each frame, and before putting anything in the buffer
;
	jsr     _clear_vram_buffer
;
; address = get_ppu_addr(temp1, x, y);
;
	jsr     decsp2
	lda     _temp1
	ldy     #$01
	sta     (sp),y
	lda     _x
	dey
	sta     (sp),y
	lda     _y
	jsr     _get_ppu_addr
	sta     _address
	stx     _address+1
;
; index = (y & 0xf0) + (x >> 4);
;
	lda     _y
	and     #$F0
	sta     ptr1
	lda     _x
	lsr     a
	lsr     a
	lsr     a
	lsr     a
	clc
	adc     ptr1
	sta     _index
;
; buffer_4_mt(address, index); // ppu_address, index to the data
;
	lda     _address
	ldx     _address+1
	jsr     pushax
	lda     _index
	jsr     _buffer_4_mt
;
; flush_vram_update_nmi();
;
	jsr     _flush_vram_update_nmi
;
; if (x == 0xe0) break;
;
	lda     _x
	cmp     #$E0
	beq     L0D67
;
; for(x=0; ;x+=0x20){
;
	lda     #$20
	clc
	adc     _x
	jmp     L0D5E
;
; if (y == 0xe0) break;
;
L0D67:	lda     _y
	cmp     #$E0
	beq     L0D68
;
; for(y=0; ;y+=0x20){
;
	lda     #$20
	clc
	adc     _y
	jmp     L0D5F
;
; temp1 = temp1 ^ 2; // flip that 0000 0010 bit
;
L0D68:	lda     _temp1
	eor     #$02
	sta     _temp1
;
; set_data_pointer(cmaps[nt_current-1]); // NOTE: Don't call if nt_current = 0, or who really knows what will happen
;
	ldx     #$00
	lda     _nt_current
	sec
	sbc     #$01
	bcs     L075C
	dex
L075C:	stx     tmp1
	asl     a
	rol     tmp1
	clc
	adc     #<(_cmaps)
	sta     ptr1
	lda     tmp1
	adc     #>(_cmaps)
	sta     ptr1+1
	ldy     #$01
	lda     (ptr1),y
	tax
	dey
	lda     (ptr1),y
	jsr     _set_data_pointer
;
; for(x=0; ;x+=0x20){
;
	lda     #$00
L0D60:	sta     _x
;
; y = 0xe0;
;
	lda     #$E0
	sta     _y
;
; clear_vram_buffer(); // do each frame, and before putting anything in the buffer
;
	jsr     _clear_vram_buffer
;
; address = get_ppu_addr(temp1, x, y);
;
	jsr     decsp2
	lda     _temp1
	ldy     #$01
	sta     (sp),y
	lda     _x
	dey
	sta     (sp),y
	lda     _y
	jsr     _get_ppu_addr
	sta     _address
	stx     _address+1
;
; index = (y & 0xf0) + (x >> 4);
;
	lda     _y
	and     #$F0
	sta     ptr1
	lda     _x
	lsr     a
	lsr     a
	lsr     a
	lsr     a
	clc
	adc     ptr1
	sta     _index
;
; buffer_4_mt(address, index); // ppu_address, index to the data
;
	lda     _address
	ldx     _address+1
	jsr     pushax
	lda     _index
	jsr     _buffer_4_mt
;
; flush_vram_update_nmi();
;
	jsr     _flush_vram_update_nmi
;
; if (x == 0xe0) break;
;
	lda     _x
	cmp     #$E0
	beq     L075E
;
; for(x=0; ;x+=0x20){
;
	lda     #$20
	clc
	adc     _x
	jmp     L0D60
;
; clear_vram_buffer();
;
L075E:	jsr     _clear_vram_buffer
;
; max_scroll_y = scroll_y;
;
	lda     _scroll_y+1
	sta     _max_scroll_y+1
	lda     _scroll_y
	sta     _max_scroll_y
;
; memfill(&enemies, 0, sizeof(enemies));
;
	jsr     decsp3
	lda     #<(_enemies)
	ldy     #$01
	sta     (sp),y
	iny
	lda     #>(_enemies)
	sta     (sp),y
	lda     #$00
	tay
	sta     (sp),y
	ldx     #$01
	txa
	jsr     _memfill
;
; temppointer = level_enemy_data[level_index];
;
	ldx     #$00
	lda     _level_index
	asl     a
	bcc     L0D64
	inx
	clc
L0D64:	adc     #<(_level_enemy_data)
	sta     ptr1
	txa
	adc     #>(_level_enemy_data)
	sta     ptr1+1
	ldy     #$01
	lda     (ptr1),y
	sta     _temppointer+1
	dey
	lda     (ptr1),y
	sta     _temppointer
;
; for (x = 0, y = 0; x < MAX_ENEMIES; ++x){
;
	tya
	sta     _x
	sta     _y
L0D69:	lda     _x
	cmp     #$20
	jcs     L0D6C
;
; enemies.y[x] = 0;
;
	ldy     _x
	lda     #$00
	sta     _enemies+32,y
;
; temp1 = temppointer[y]; // Get a byte of data - the bitpacked coords.
;
	lda     _temppointer
	ldx     _temppointer+1
	ldy     _y
	sta     ptr1
	stx     ptr1+1
	lda     (ptr1),y
	sta     _temp1
;
; if (temp1 == 0xff) break; // 0xff terminates the enemy data.
;
	cmp     #$FF
	jeq     L0D6C
;
; enemies.x[x] = temp1 & 0xf0;
;
	lda     #<(_enemies)
	ldx     #>(_enemies)
	clc
	adc     _x
	bcc     L0797
	inx
L0797:	sta     ptr1
	stx     ptr1+1
	lda     _temp1
	and     #$F0
	ldy     #$00
	sta     (ptr1),y
;
; enemies.actual_y[x] = (temp1 & 0x0f) << 4;
;
	lda     #<(_enemies+64)
	ldx     #>(_enemies+64)
	clc
	adc     _x
	bcc     L079B
	inx
L079B:	sta     ptr1
	stx     ptr1+1
	lda     _temp1
	and     #$0F
	asl     a
	asl     a
	asl     a
	asl     a
	sta     (ptr1),y
;
; ++y; // Next byte:
;
	inc     _y
;
; temp1 = temppointer[y]; // the namtetable byte.
;
	lda     _temppointer
	ldx     _temppointer+1
	ldy     _y
	sta     ptr1
	stx     ptr1+1
	lda     (ptr1),y
	sta     _temp1
;
; enemies.nt[x] = temp1;
;
	ldy     _x
	lda     _temp1
	sta     _enemies+96,y
;
; ++y; // Next byte:
;
	inc     _y
;
; temp1 = temppointer[y]; // the direction+type byte.
;
	lda     _temppointer
	ldx     _temppointer+1
	ldy     _y
	sta     ptr1
	stx     ptr1+1
	lda     (ptr1),y
	sta     _temp1
;
; enemies.flags_type[x] = temp1; 
;
	ldy     _x
	lda     _temp1
	sta     _enemies+128,y
;
; temp1 = GET_ENEMY_TYPE(x);
;
	ldy     _x
	lda     _enemies+128,y
	and     #$0F
	sta     _temp1
;
; if (temp1 == 4) { // ENEMY_CANNON
;
	cmp     #$04
	bne     L0D6A
;
; ++x;
;
	inc     _x
;
; enemies.flags_type[x] = ENEMY_CANNONBALL;
;
	ldy     _x
	lda     #$09
;
; } else if (temp1 == 5) { // ENEMY_ACIDPOOL
;
	jmp     L0D61
L0D6A:	lda     _temp1
	cmp     #$05
	bne     L0D6B
;
; ++x;
;
	inc     _x
;
; enemies.flags_type[x] = ENEMY_ACIDDROP;
;
	ldy     _x
	lda     #$0A
L0D61:	sta     _enemies+128,y
;
; ++y; // Next byte.
;
L0D6B:	inc     _y
;
; for (x = 0, y = 0; x < MAX_ENEMIES; ++x){
;
	inc     _x
	jmp     L0D69
;
; enemies.count = x+1;
;
L0D6C:	lda     _x
	clc
	adc     #$01
	sta     _enemies+256
;
; for(++x; x < MAX_ENEMIES; ++x) {
;
L0D70:	inc     _x
	lda     _x
	cmp     #$20
	bcs     L0D6D
;
; enemies.flags_type[x] = ENEMY_NONE;
;
	ldy     _x
	lda     #$00
	sta     _enemies+128,y
;
; for(++x; x < MAX_ENEMIES; ++x) {
;
	jmp     L0D70
;
; for (x = 0; x < enemies.count; ++x) {
;
L0D6D:	lda     #$00
	sta     _x
	tax
L0D6E:	lda     _x
	cmp     _enemies+256
	txa
	sbc     #$00
	bcs     L07D2
;
; switch (GET_ENEMY_TYPE(x)) {
;
	ldy     _x
	lda     _enemies+128,y
	and     #$0F
;
; }
;
	cmp     #$04
	beq     L07E6
	cmp     #$05
	bne     L0D6F
;
; enemies.timer[x] = 0b10000000;
;
	ldy     _x
	lda     #$80
	sta     _enemies+224,y
;
; enemies.timer[x] += rand8() & 0b01111111;
;
L07E6:	lda     #<(_enemies+224)
	ldx     #>(_enemies+224)
	clc
	adc     _x
	bcc     L07E9
	inx
L07E9:	jsr     pushax
	sta     ptr1
	stx     ptr1+1
	ldx     #$00
	lda     (ptr1,x)
	jsr     pusha0
	jsr     _rand8
	and     #$7F
	jsr     tosadda0
	ldy     #$00
	jsr     staspidx
;
; for (x = 0; x < enemies.count; ++x) {
;
	ldx     #$00
L0D6F:	inc     _x
	jmp     L0D6E
;
; }
;
L07D2:	rts

.endproc

; ---------------------------------------------------------------
; void __near__ load_room_new (void)
; ---------------------------------------------------------------

.segment	"CODE"

.proc	_load_room_new: near

.segment	"CODE"

;
; temppointer = level_nametables[x];
;
	ldx     #$00
	lda     _x
	asl     a
	bcc     L0D73
	inx
	clc
L0D73:	adc     #<(_level_nametables)
	sta     ptr1
	txa
	adc     #>(_level_nametables)
	sta     ptr1+1
	ldy     #$01
	lda     (ptr1),y
	sta     _temppointer+1
	dey
	lda     (ptr1),y
	sta     _temppointer
;
; memcpy(cmaps[x], temppointer, 240);
;
	ldx     #$00
	lda     _x
	asl     a
	bcc     L0D74
	inx
	clc
L0D74:	adc     #<(_cmaps)
	sta     ptr1
	txa
	adc     #>(_cmaps)
	sta     ptr1+1
	iny
	lda     (ptr1),y
	tax
	dey
	lda     (ptr1),y
	jsr     pushax
	lda     _temppointer
	ldx     _temppointer+1
	jsr     pushax
	ldx     #$00
	lda     #$F0
	jmp     _memcpy

.endproc

; ---------------------------------------------------------------
; void __near__ bg_collision (void)
; ---------------------------------------------------------------

.segment	"CODE"

.proc	_bg_collision: near

.segment	"CODE"

;
; collision_L = 0;
;
	lda     #$00
	sta     _collision_L
;
; collision_R = 0;
;
	sta     _collision_R
;
; collision_U = 0;
;
	sta     _collision_U
;
; collision_D = 0;
;
	sta     _collision_D
;
; temp3 = hitbox.y;
;
	lda     _hitbox+1
	sta     _temp3
;
; if(L_R_switch) temp3 += 2; // fix bug, walking through walls
;
	lda     _L_R_switch
	beq     L0D76
	lda     #$02
	clc
	adc     _temp3
	sta     _temp3
;
; if(temp3 >= 0xf0) return;
;
L0D76:	lda     _temp3
	cmp     #$F0
	bcc     L0D77
;
; }
;
	rts
;
; temp5 = add_scroll_y(temp3, scroll_y); // upper left
;
L0D77:	jsr     pusha
	lda     _scroll_y
	ldx     _scroll_y+1
	jsr     _add_scroll_y
	sta     _temp5
	stx     _temp5+1
;
; temp3 = temp5 & 0xff; // low byte y
;
	sta     _temp3
;
; temp1 = hitbox.x; // x left
;
	lda     _hitbox
	sta     _temp1
;
; eject_L = temp1 | 0xf0;
;
	ora     #$F0
	sta     _eject_L
;
; eject_U = temp3 | 0xf0;
;
	lda     _temp3
	ora     #$F0
	sta     _eject_U
;
; bg_collision_sub();
;
	jsr     _bg_collision_sub
;
; if(collision){ // find a corner in the collision map
;
	lda     _collision
	beq     L0987
;
; ++collision_L;
;
	inc     _collision_L
;
; ++collision_U;
;
	inc     _collision_U
;
; temp1 += hitbox.width; // x right
;
L0987:	lda     _hitbox+2
	clc
	adc     _temp1
	sta     _temp1
;
; eject_R = (temp1 + 1) & 0x0f;
;
	clc
	adc     #$01
	and     #$0F
	sta     _eject_R
;
; bg_collision_sub();
;
	jsr     _bg_collision_sub
;
; if(collision){ // find a corner in the collision map
;
	lda     _collision
	beq     L0992
;
; ++collision_R;
;
	inc     _collision_R
;
; ++collision_U;
;
	inc     _collision_U
;
; temp3 = hitbox.y + hitbox.height; // y bottom
;
L0992:	lda     _hitbox+1
	clc
	adc     _hitbox+3
	sta     _temp3
;
; if(L_R_switch) temp3 -= 2; // fix bug, walking through walls
;
	lda     _L_R_switch
	beq     L0998
	lda     _temp3
	sec
	sbc     #$02
	sta     _temp3
;
; temp5 = add_scroll_y(temp3, scroll_y); // upper left
;
L0998:	lda     _temp3
	jsr     pusha
	lda     _scroll_y
	ldx     _scroll_y+1
	jsr     _add_scroll_y
	sta     _temp5
	stx     _temp5+1
;
; temp3 = temp5 & 0xff; // low byte y
;
	sta     _temp3
;
; eject_D = (temp3 + 1) & 0x0f;
;
	clc
	adc     #$01
	and     #$0F
	sta     _eject_D
;
; if(temp3 >= 0xf0) return;
;
	lda     _temp3
	cmp     #$F0
	bcs     L09B0
;
; bg_collision_sub();
;
	jsr     _bg_collision_sub
;
; if(collision){ // find a corner in the collision map
;
	lda     _collision
	beq     L09A9
;
; ++collision_R;
;
	inc     _collision_R
;
; ++collision_D;
;
	inc     _collision_D
;
; temp1 = hitbox.x; // x left
;
L09A9:	lda     _hitbox
	sta     _temp1
;
; bg_collision_sub();
;
	jsr     _bg_collision_sub
;
; if(collision){ // find a corner in the collision map
;
	lda     _collision
	beq     L09B0
;
; ++collision_L;
;
	inc     _collision_L
;
; ++collision_D;
;
	inc     _collision_D
;
; }
;
L09B0:	rts

.endproc

; ---------------------------------------------------------------
; void __near__ bg_collision_sub (void)
; ---------------------------------------------------------------

.segment	"CODE"

.proc	_bg_collision_sub: near

.segment	"CODE"

;
; coordinates = (temp1 >> 4) + (temp3 & 0xf0); 
;
	lda     _temp1
	lsr     a
	lsr     a
	lsr     a
	lsr     a
	sta     ptr1
	lda     _temp3
	and     #$F0
	clc
	adc     ptr1
	sta     _coordinates
;
; temppointer = cmaps[high_byte(temp5)];
;
	ldx     #$00
	lda     _temp5+1
	asl     a
	bcc     L0D7C
	inx
	clc
L0D7C:	adc     #<(_cmaps)
	sta     ptr1
	txa
	adc     #>(_cmaps)
	sta     ptr1+1
	ldy     #$01
	lda     (ptr1),y
	tax
	dey
	lda     (ptr1),y
	sta     _temppointer
	stx     _temppointer+1
;
; temp4 = temppointer[coordinates];
;
	ldy     _coordinates
	sta     ptr1
	stx     ptr1+1
	lda     (ptr1),y
	sta     _temp4
;
; temp_mutablepointer = (char *)&(temppointer[coordinates]);
;
	lda     _temppointer
	ldx     _temppointer+1
	clc
	adc     _coordinates
	bcc     L0D79
	inx
L0D79:	sta     _temp_mutablepointer
	stx     _temp_mutablepointer+1
;
; temp0 = metatile_property_lookup_table[temp4];
;
	ldy     _temp4
	lda     _metatile_property_lookup_table,y
	sta     _temp0
;
; collision = METATILE_IS_SOLID(temp4); // 0x17 is the first non-solid tile, so if the tile is less than that, it's a collision
;
	ldy     _temp4
	lda     _metatile_property_lookup_table,y
	and     #$01
	sta     _collision
;
; if (temp0 == METATILE_NO_EFFECT || temp0 == METATILE_SOLID) { return; }
;
	lda     _temp0
	beq     L0D7E
	cmp     #$01
	bne     L0D7F
L0D7E:	rts
;
; if (temp0 & METATILE_SPIKES) {
;
L0D7F:	lda     _temp0
	and     #$02
	beq     L0D80
;
; SET_STATUS_DEAD();
;
	lda     _player_flags
	ora     #$02
	sta     _player_flags
;
; } else if (temp0 & METATILE_POWERUP) {
;
	rts
L0D80:	lda     _temp0
	and     #$40
	beq     L0D82
;
; *temp_mutablepointer = EMPTY_TILE;
;
	lda     _temp_mutablepointer+1
	sta     ptr1+1
	lda     _temp_mutablepointer
	sta     ptr1
	lda     #$2C
	ldy     #$00
	sta     (ptr1),y
;
; if (temp4 == STAR_TILE) { score += 1; }
;
	lda     _temp4
	cmp     #$2A
	bne     L0D81
	inc     _score
	bne     L09E0
	inc     _score+1
;
; else if (temp4 == ENERGY_REFILL_TILE) { energy = MAX_ENERGY; }
;
	jmp     L09E0
L0D81:	lda     _temp4
	cmp     #$2B
	bne     L09E0
	lda     #$70
	sta     _energy
;
; address = get_ppu_addr(nt, temp1, temp3 & 0xf0);
;
L09E0:	jsr     decsp2
	lda     _nt
	iny
	sta     (sp),y
	lda     _temp1
	dey
	sta     (sp),y
	lda     _temp3
	and     #$F0
	jsr     _get_ppu_addr
	sta     _address
	stx     _address+1
;
; buffer_1_mt(address, EMPTY_TILE);
;
	jsr     pushax
	lda     #$2C
	jmp     _buffer_1_mt
;
; } else if (temp0 & METATILE_CONVEYOR_LEFT) {
;
L0D82:	lda     _temp0
	and     #$04
	beq     L0D83
;
; valrigard.x -= 0x0080;
;
	lda     _valrigard
	sec
	sbc     #$80
	sta     _valrigard
	bcs     L09F1
	dec     _valrigard+1
;
; } else if (temp0 & METATILE_CONVEYOR_RIGHT) {
;
L09F1:	rts
L0D83:	lda     _temp0
	and     #$08
	beq     L0D84
;
; valrigard.x += 0x0080;
;
	lda     #$80
	clc
	adc     _valrigard
	sta     _valrigard
	bcc     L09F7
	inc     _valrigard+1
;
; } else if (temp0 & METATILE_YELLOW_DOOR) {
;
L09F7:	rts
L0D84:	lda     _temp0
	and     #$10
	beq     L0D85
;
; if (pad1 & PAD_UP) {
;
	lda     _pad1
	and     #$08
;
; } else if (temp0 & METATILE_RED_DOOR) {
;
	jmp     L0D88
L0D85:	lda     _temp0
	and     #$20
L0D88:	beq     L0A00
;
; game_mode = MODE_GAME_OVER;
;
	lda     #$04
	sta     _game_mode
;
; }
;
L0A00:	rts

.endproc

; ---------------------------------------------------------------
; void __near__ draw_screen_U (void)
; ---------------------------------------------------------------

.segment	"CODE"

.proc	_draw_screen_U: near

.segment	"CODE"

;
; pseudo_scroll_y = sub_scroll_y(0x20, scroll_y);
;
	lda     #$20
	jsr     pusha
	lda     _scroll_y
	ldx     _scroll_y+1
	jsr     _sub_scroll_y
	sta     _pseudo_scroll_y
	stx     _pseudo_scroll_y+1
;
; draw_screen_sub();
;
	jmp     _draw_screen_sub

.endproc

; ---------------------------------------------------------------
; void __near__ draw_screen_D (void)
; ---------------------------------------------------------------

.segment	"CODE"

.proc	_draw_screen_D: near

.segment	"CODE"

;
; pseudo_scroll_y = add_scroll_y(0x20, scroll_y) + 0xef; 
;
	lda     #$20
	jsr     pusha
	lda     _scroll_y
	ldx     _scroll_y+1
	jsr     _add_scroll_y
	clc
	adc     #$EF
	bcc     L0A0F
	inx
L0A0F:	sta     _pseudo_scroll_y
	stx     _pseudo_scroll_y+1
;
; draw_screen_sub();
;
	jmp     _draw_screen_sub

.endproc

; ---------------------------------------------------------------
; void __near__ draw_screen_sub (void)
; ---------------------------------------------------------------

.segment	"CODE"

.proc	_draw_screen_sub: near

.segment	"CODE"

;
; temp1 = pseudo_scroll_y >> 8;
;
	lda     _pseudo_scroll_y+1
	sta     _temp1
;
; set_data_pointer(cmaps[temp1]); // TODO: clamp this value to 6.
;
	ldx     #$00
	lda     _temp1
	asl     a
	bcc     L0D8C
	inx
	clc
L0D8C:	adc     #<(_cmaps)
	sta     ptr1
	txa
	adc     #>(_cmaps)
	sta     ptr1+1
	ldy     #$01
	lda     (ptr1),y
	tax
	dey
	lda     (ptr1),y
	jsr     _set_data_pointer
;
; nt = (temp1 & 1) << 1; // 0 or 2
;
	lda     _temp1
	and     #$01
	asl     a
	sta     _nt
;
; y = pseudo_scroll_y & 0xff;
;
	lda     _pseudo_scroll_y
	sta     _y
;
; temp2 = draw_screen_sub_lookup_index_offset_0[scroll_count];
;
	ldy     _scroll_count
	lda     _draw_screen_sub_lookup_index_offset_0,y
	sta     _temp2
;
; temp4 = draw_screen_sub_lookup_index_offset_1[scroll_count];
;
	ldy     _scroll_count
	lda     _draw_screen_sub_lookup_index_offset_1,y
	sta     _temp4
;
; address = get_ppu_addr(nt, draw_screen_sub_lookup_addr_0[scroll_count], y);
;
	jsr     decsp2
	lda     _nt
	ldy     #$01
	sta     (sp),y
	ldy     _scroll_count
	lda     _draw_screen_sub_lookup_addr_0,y
	ldy     #$00
	sta     (sp),y
	lda     _y
	jsr     _get_ppu_addr
	sta     _address
	stx     _address+1
;
; index = (y & 0xf0) + temp2;
;
	lda     _y
	and     #$F0
	clc
	adc     _temp2
	sta     _index
;
; buffer_4_mt(address, index); // ppu_address, index to the data
;
	lda     _address
	ldx     _address+1
	jsr     pushax
	lda     _index
	jsr     _buffer_4_mt
;
; address = get_ppu_addr(nt, draw_screen_sub_lookup_addr_1[scroll_count], y);
;
	jsr     decsp2
	lda     _nt
	ldy     #$01
	sta     (sp),y
	ldy     _scroll_count
	lda     _draw_screen_sub_lookup_addr_1,y
	ldy     #$00
	sta     (sp),y
	lda     _y
	jsr     _get_ppu_addr
	sta     _address
	stx     _address+1
;
; index = (y & 0xf0) + temp4;
;
	lda     _y
	and     #$F0
	clc
	adc     _temp4
	sta     _index
;
; buffer_4_mt(address, index); // ppu_address, index to the data
;
	lda     _address
	ldx     _address+1
	jsr     pushax
	lda     _index
	jsr     _buffer_4_mt
;
; ++scroll_count;
;
	inc     _scroll_count
;
; scroll_count &= 3; //mask off top bits, keep it 0-3
;
	lda     _scroll_count
	and     #$03
	sta     _scroll_count
;
; }
;
	rts

.endproc

; ---------------------------------------------------------------
; void __near__ check_spr_objects (void)
; ---------------------------------------------------------------

.segment	"CODE"

.proc	_check_spr_objects: near

.segment	"CODE"

;
; nt_current = high_byte(scroll_y);
;
	lda     _scroll_y+1
	sta     _nt_current
;
; for (x = 0; x < enemies.count; ++x) {
;
	lda     #$00
	sta     _x
	tax
L0D90:	lda     _x
	cmp     _enemies+256
	txa
	sbc     #$00
	bcc     L0D92
;
; }
;
	rts
;
; if (GET_ENEMY_TYPE(x) == 0 /*ENEMY_NONE*/) continue; 
;
L0D92:	ldy     _x
	lda     _enemies+128,y
	and     #$0F
	jeq     L0D91
;
; temp5 = (enemies.nt[x] << 8) + enemies.actual_y[x];
;
	ldy     _x
	lda     _enemies+96,y
	sta     ptr1+1
	ldy     _x
	lda     _enemies+64,y
	clc
	adc     #$00
	ldx     ptr1+1
	bcc     L0D8D
	inx
L0D8D:	sta     _temp5
	stx     _temp5+1
;
; temp5 -= scroll_y;
;
	lda     _scroll_y
	eor     #$FF
	sec
	adc     _temp5
	sta     _temp5
	lda     _scroll_y+1
	eor     #$FF
	adc     _temp5+1
	sta     _temp5+1
;
; if (high_byte(temp5)) {
;
	lda     _temp5+1
	beq     L0A5C
;
; DEACTIVATE_ENEMY(x);
;
	lda     #<(_enemies+128)
	ldx     #>(_enemies+128)
	clc
	adc     _x
	bcc     L0A62
	inx
L0A62:	sta     ptr1
	stx     ptr1+1
	ldy     #$00
	lda     (ptr1),y
	and     #$7F
;
; continue;
;
	jmp     L0D8F
;
; ACTIVATE_ENEMY(x); // This enemy is active if it's on-screen.
;
L0A5C:	lda     #<(_enemies+128)
	ldx     #>(_enemies+128)
	clc
	adc     _x
	bcc     L0A67
	inx
L0A67:	sta     ptr1
	stx     ptr1+1
	ldy     #$00
	lda     (ptr1),y
	ora     #$80
	sta     (ptr1),y
;
; enemies.y[x] = temp5 & 0xff;
;
	lda     #<(_enemies+32)
	ldx     #>(_enemies+32)
	clc
	adc     _x
	bcc     L0A6B
	inx
L0A6B:	sta     ptr1
	stx     ptr1+1
	lda     _temp5
	sta     (ptr1),y
;
; if (nt_current != enemies.nt[x]) enemies.y[x] -= 16;
;
	ldy     _x
	ldx     #$00
	lda     _enemies+96,y
	cmp     _nt_current
	beq     L0D91
	lda     #<(_enemies+32)
	ldx     #>(_enemies+32)
	clc
	adc     _x
	bcc     L0A73
	inx
L0A73:	sta     ptr1
	stx     ptr1+1
	ldy     #$00
	lda     (ptr1),y
	sec
	sbc     #$10
L0D8F:	sta     (ptr1),y
;
; for (x = 0; x < enemies.count; ++x) {
;
	ldx     #$00
L0D91:	inc     _x
	jmp     L0D90

.endproc

; ---------------------------------------------------------------
; void __near__ sprite_collisions (void)
; ---------------------------------------------------------------

.segment	"CODE"

.proc	_sprite_collisions: near

.segment	"CODE"

;
; hitbox.x = high_byte(valrigard.x);
;
	lda     _valrigard+1
	sta     _hitbox
;
; hitbox.y = high_byte(valrigard.y);
;
	lda     _valrigard+3
	sta     _hitbox+1
;
; hitbox.width = VALRIGARD_WIDTH;
;
	lda     #$0B
	sta     _hitbox+2
;
; hitbox.height = VALRIGARD_HEIGHT;
;
	lda     #$0D
	sta     _hitbox+3
;
; for (x = 0; x < enemies.count; ++x) {
;
	lda     #$00
	sta     _x
	tax
L0D94:	lda     _x
	cmp     _enemies+256
	txa
	sbc     #$00
	bcs     L0A81
;
; if(IS_ENEMY_ACTIVE(x)) {
;
	ldy     _x
	lda     _enemies+128,y
	and     #$80
	beq     L0D96
;
; temp1 = GET_ENEMY_TYPE(x);
;
	ldy     _x
	lda     _enemies+128,y
	and     #$0F
	sta     _temp1
;
; if (temp1 <= 8 /*ENEMY_BOSS*/) { // It's an enemy
;
	cmp     #$09
	bcs     L0D95
;
; hitbox2.width = ENEMY_WIDTH;
;
	lda     #$0D
;
; } else { // It's a projectile
;
	jmp     L0D97
;
; hitbox2.width = PROJECTILE_WIDTH;
;
L0D95:	lda     #$06
L0D97:	sta     _hitbox2+2
;
; hitbox2.height = PROJECTILE_HEIGHT;
;
	sta     _hitbox2+3
;
; hitbox2.x = enemies.x[x];
;
	ldy     _x
	lda     _enemies,y
	sta     _hitbox2
;
; hitbox2.y = enemies.y[x];
;
	ldy     _x
	lda     _enemies+32,y
	sta     _hitbox2+1
;
; if (check_collision(&hitbox, &hitbox2)) {
;
	lda     #<(_hitbox)
	ldx     #>(_hitbox)
	jsr     pushax
	lda     #<(_hitbox2)
	ldx     #>(_hitbox2)
	jsr     _check_collision
	tax
	beq     L0D96
;
; SET_STATUS_DEAD();
;
	lda     _player_flags
	ora     #$02
	sta     _player_flags
;
; for (x = 0; x < enemies.count; ++x) {
;
	ldx     #$00
L0D96:	inc     _x
	jmp     L0D94
;
; }
;
L0A81:	rts

.endproc

; ---------------------------------------------------------------
; void __near__ enemy_movement (void)
; ---------------------------------------------------------------

.segment	"CODE"

.proc	_enemy_movement: near

.segment	"CODE"

;
; for (x = 0; x < enemies.count; ++x) {
;
	lda     #$00
	sta     _x
	tax
L0D98:	lda     _x
	cmp     _enemies+256
	txa
	sbc     #$00
	bcs     L0AAE
;
; if (IS_ENEMY_ACTIVE(x)) {
;
	ldy     _x
	lda     _enemies+128,y
	and     #$80
	beq     L0D99
;
; temp1 = GET_ENEMY_TYPE(x);
;
	ldy     _x
	lda     _enemies+128,y
	and     #$0F
	sta     _temp1
;
; }
;
	cmp     #$01
	beq     L0AC3
	cmp     #$02
	beq     L0AC6
	cmp     #$03
	beq     L0ACB
	cmp     #$04
	beq     L0ACE
	cmp     #$05
	beq     L0AD1
	cmp     #$06
	beq     L0AC6
	cmp     #$07
	beq     L0AD4
	cmp     #$08
	beq     L0AD7
	cmp     #$09
	beq     L0ADA
	cmp     #$0A
	beq     L0ADD
	jmp     L0D99
;
; korbat_ai();
;
L0AC3:	jsr     _korbat_ai
;
; break;
;
	jmp     L0AAF
;
; spikeball_ai();
;
L0AC6:	jsr     _spikeball_ai
;
; break;
;
	jmp     L0AAF
;
; splyke_ai();
;
L0ACB:	jsr     _splyke_ai
;
; break;
;
	jmp     L0AAF
;
; cannon_ai();
;
L0ACE:	jsr     _cannon_ai
;
; break;
;
	jmp     L0AAF
;
; acid_ai();
;
L0AD1:	jsr     _acid_ai
;
; break;
;
	jmp     L0AAF
;
; sun_ai();
;
L0AD4:	jsr     _sun_ai
;
; break;
;
	jmp     L0AAF
;
; boss_ai();
;
L0AD7:	jsr     _boss_ai
;
; break;
;
	jmp     L0AAF
;
; cannonball_ai();
;
L0ADA:	jsr     _cannonball_ai
;
; break;
;
	jmp     L0AAF
;
; acid_drop_ai();
;
L0ADD:	jsr     _acid_drop_ai
;
; for (x = 0; x < enemies.count; ++x) {
;
L0AAF:	ldx     #$00
L0D99:	inc     _x
	jmp     L0D98
;
; }
;
L0AAE:	rts

.endproc

; ---------------------------------------------------------------
; void __near__ korbat_ai (void)
; ---------------------------------------------------------------

.segment	"CODE"

.proc	_korbat_ai: near

.segment	"CODE"

;
; temp3 = ENEMY_DIRECTION(x) >> 6;
;
	ldy     _x
	lda     _enemies+128,y
	and     #$40
	lsr     a
	lsr     a
	lsr     a
	lsr     a
	lsr     a
	lsr     a
	sta     _temp3
;
; temp1 = enemies.x[x];
;
	ldy     _x
	lda     _enemies,y
	sta     _temp1
;
; temp1 += leftright_movement_offset_lookup_table[temp3];
;
	ldy     _temp3
	lda     _leftright_movement_offset_lookup_table,y
	clc
	adc     _temp1
	sta     _temp1
;
; temp2 = enemies.actual_y[x] + 6; // center y
;
	ldy     _x
	lda     _enemies+64,y
	clc
	adc     #$06
	sta     _temp2
;
; coordinates = (temp1 >> 4) + (temp2 & 0xf0); 
;
	lda     _temp1
	lsr     a
	lsr     a
	lsr     a
	lsr     a
	sta     ptr1
	lda     _temp2
	and     #$F0
	clc
	adc     ptr1
	sta     _coordinates
;
; temp0 = enemies.nt[x];
;
	ldy     _x
	lda     _enemies+96,y
	sta     _temp0
;
; temppointer = cmaps[temp0];
;
	ldx     #$00
	lda     _temp0
	asl     a
	bcc     L0D9D
	inx
	clc
L0D9D:	adc     #<(_cmaps)
	sta     ptr1
	txa
	adc     #>(_cmaps)
	sta     ptr1+1
	ldy     #$01
	lda     (ptr1),y
	tax
	dey
	lda     (ptr1),y
	sta     _temppointer
	stx     _temppointer+1
;
; collision = temppointer[coordinates];
;
	ldy     _coordinates
	sta     ptr1
	stx     ptr1+1
	lda     (ptr1),y
	sta     _collision
;
; if (METATILE_IS_SOLID(collision)) {
;
	ldy     _collision
	lda     _metatile_property_lookup_table,y
	and     #$01
	beq     L0B01
;
; ENEMY_FLIP_DIRECTION(x);
;
	lda     #<(_enemies+128)
	ldx     #>(_enemies+128)
	clc
	adc     _x
	bcc     L0B09
	inx
L0B09:	sta     ptr1
	stx     ptr1+1
	ldy     #$00
	lda     (ptr1),y
	eor     #$40
	sta     (ptr1),y
;
; temp3 ^= 1;
;
	lda     _temp3
	eor     #$01
	sta     _temp3
;
; temp1 = leftright_movement_moving_lookup_table[temp3];
;
L0B01:	ldy     _temp3
	lda     _leftright_movement_moving_lookup_table,y
	sta     _temp1
;
; enemies.x[x] += temp1;
;
	lda     #<(_enemies)
	ldx     #>(_enemies)
	clc
	adc     _x
	bcc     L0B13
	inx
L0B13:	jsr     pushax
	sta     ptr1
	stx     ptr1+1
	ldy     #$00
	lda     (ptr1),y
	clc
	adc     _temp1
	jmp     staspidx

.endproc

; ---------------------------------------------------------------
; void __near__ spikeball_ai (void)
; ---------------------------------------------------------------

.segment	"CODE"

.proc	_spikeball_ai: near

.segment	"CODE"

;
; temp3 = ENEMY_DIRECTION(x) >> 6;
;
	ldy     _x
	lda     _enemies+128,y
	and     #$40
	lsr     a
	lsr     a
	lsr     a
	lsr     a
	lsr     a
	lsr     a
	sta     _temp3
;
; temp1 = enemies.x[x];
;
	ldy     _x
	lda     _enemies,y
	sta     _temp1
;
; temp1 += leftright_movement_offset_lookup_table[temp3];
;
	ldy     _temp3
	lda     _leftright_movement_offset_lookup_table,y
	clc
	adc     _temp1
	sta     _temp1
;
; temp2 = enemies.actual_y[x] + 18; // Y beneath us
;
	ldy     _x
	lda     _enemies+64,y
	clc
	adc     #$12
	sta     _temp2
;
; coordinates = (temp1 >> 4) + (temp2 & 0xf0); 
;
	lda     _temp1
	lsr     a
	lsr     a
	lsr     a
	lsr     a
	sta     ptr1
	lda     _temp2
	and     #$F0
	clc
	adc     ptr1
	sta     _coordinates
;
; temp4 = temp2 >> 4;
;
	lda     _temp2
	lsr     a
	lsr     a
	lsr     a
	lsr     a
	sta     _temp4
;
; if (temp4 == 0xf) {
;
	cmp     #$0F
	bne     L0B2E
;
; temp4 = enemies.nt[x] + 1;
;
	ldy     _x
	lda     _enemies+96,y
	clc
	adc     #$01
;
; } else {
;
	jmp     L0DA4
;
; temp4 = enemies.nt[x];
;
L0B2E:	ldy     _x
	lda     _enemies+96,y
L0DA4:	sta     _temp4
;
; temppointer = cmaps[temp4];
;
	ldx     #$00
	lda     _temp4
	asl     a
	bcc     L0DA5
	inx
	clc
L0DA5:	adc     #<(_cmaps)
	sta     ptr1
	txa
	adc     #>(_cmaps)
	sta     ptr1+1
	ldy     #$01
	lda     (ptr1),y
	tax
	dey
	lda     (ptr1),y
	sta     _temppointer
	stx     _temppointer+1
;
; collision = temppointer[coordinates];
;
	ldy     _coordinates
	sta     ptr1
	stx     ptr1+1
	lda     (ptr1),y
	sta     _collision
;
; if (!METATILE_IS_SOLID(collision)) {
;
	ldy     _collision
	lda     _metatile_property_lookup_table,y
	and     #$01
	bne     L0B40
;
; ENEMY_FLIP_DIRECTION(x);
;
	lda     #<(_enemies+128)
	ldx     #>(_enemies+128)
	clc
	adc     _x
	bcc     L0B48
	inx
L0B48:	sta     ptr1
	stx     ptr1+1
	ldy     #$00
	lda     (ptr1),y
	eor     #$40
	sta     (ptr1),y
;
; temp3 ^= 1;
;
	lda     _temp3
	eor     #$01
	sta     _temp3
;
; temp2 = enemies.actual_y[x] + 6; // center y
;
L0B40:	ldy     _x
	lda     _enemies+64,y
	clc
	adc     #$06
	sta     _temp2
;
; coordinates = (temp1 >> 4) + (temp2 & 0xf0); 
;
	lda     _temp1
	lsr     a
	lsr     a
	lsr     a
	lsr     a
	sta     ptr1
	lda     _temp2
	and     #$F0
	clc
	adc     ptr1
	sta     _coordinates
;
; temp4 = enemies.nt[x];
;
	ldy     _x
	lda     _enemies+96,y
	sta     _temp4
;
; temppointer = cmaps[temp4];
;
	ldx     #$00
	lda     _temp4
	asl     a
	bcc     L0DA6
	inx
	clc
L0DA6:	adc     #<(_cmaps)
	sta     ptr1
	txa
	adc     #>(_cmaps)
	sta     ptr1+1
	ldy     #$01
	lda     (ptr1),y
	tax
	dey
	lda     (ptr1),y
	sta     _temppointer
	stx     _temppointer+1
;
; collision = temppointer[coordinates];
;
	ldy     _coordinates
	sta     ptr1
	stx     ptr1+1
	lda     (ptr1),y
	sta     _collision
;
; if (METATILE_IS_SOLID(collision)) {
;
	ldy     _collision
	lda     _metatile_property_lookup_table,y
	and     #$01
	beq     L0B5F
;
; ENEMY_FLIP_DIRECTION(x);
;
	lda     #<(_enemies+128)
	ldx     #>(_enemies+128)
	clc
	adc     _x
	bcc     L0B67
	inx
L0B67:	sta     ptr1
	stx     ptr1+1
	ldy     #$00
	lda     (ptr1),y
	eor     #$40
	sta     (ptr1),y
;
; temp3 ^= 1;
;
	lda     _temp3
	eor     #$01
	sta     _temp3
;
; temp1 = leftright_movement_moving_lookup_table[temp3];
;
L0B5F:	ldy     _temp3
	lda     _leftright_movement_moving_lookup_table,y
	sta     _temp1
;
; enemies.x[x] += temp1;
;
	lda     #<(_enemies)
	ldx     #>(_enemies)
	clc
	adc     _x
	bcc     L0B71
	inx
L0B71:	jsr     pushax
	sta     ptr1
	stx     ptr1+1
	ldy     #$00
	lda     (ptr1),y
	clc
	adc     _temp1
	jmp     staspidx

.endproc

; ---------------------------------------------------------------
; void __near__ cannon_ai (void)
; ---------------------------------------------------------------

.segment	"CODE"

.proc	_cannon_ai: near

.segment	"CODE"

;
; if (IS_ENEMY_ACTIVE(x+1)) { return; }
;
	ldx     #$00
	lda     _x
	clc
	adc     #$01
	bcc     L0BFE
	inx
L0BFE:	sta     ptr1
	txa
	clc
	adc     #>(_enemies+128)
	sta     ptr1+1
	ldy     #<(_enemies+128)
	lda     (ptr1),y
	and     #$80
	beq     L0DBA
;
; }
;
	rts
;
; if (--enemies.timer[x] == 20) { 
;
L0DBA:	lda     #<(_enemies+224)
	ldx     #>(_enemies+224)
	clc
	adc     _x
	bcc     L0C02
	inx
L0C02:	sta     ptr1
	stx     ptr1+1
	ldy     #$00
	lda     (ptr1),y
	sec
	sbc     #$01
	sta     (ptr1),y
	cmp     #$14
	jne     L0BFF
;
; if (!(enemies.extra2[x] & 0xf0)) {
;
	ldy     _x
	lda     _enemies+192,y
	and     #$F0
	jne     L0BFF
;
; temp0 = high_byte(valrigard.x) + (VALRIGARD_WIDTH/2);
;
	lda     _valrigard+1
	clc
	adc     #$05
	sta     _temp0
;
; temp1 = high_byte(valrigard.y) + 4; // Tweaked for maximum accuracy - may need to be tweaked more.
;
	lda     _valrigard+3
	clc
	adc     #$04
	sta     _temp1
;
; temp2 = enemies.x[x] + 6; // ENEMY_WIDTH/2
;
	ldy     _x
	lda     _enemies,y
	clc
	adc     #$06
	sta     _temp2
;
; temp3 = enemies.y[x] + 6; // ENEMY_HEIGHT/2
;
	ldy     _x
	lda     _enemies+32,y
	clc
	adc     #$06
	sta     _temp3
;
; temp4 = 0;
;
	lda     #$00
	sta     _temp4
;
; if (temp0 < temp2) {
;
	tax
	lda     _temp0
	cmp     _temp2
	bcs     L0DB5
;
; CANNONBALL_SET_NEG_X(x+1);
;
	lda     _x
	clc
	adc     #$01
	bcc     L0DAC
	inx
	clc
L0DAC:	adc     #<(_enemies+128)
	sta     ptr1
	txa
	adc     #>(_enemies+128)
	sta     ptr1+1
	ldy     #$00
	ldx     #$00
	lda     (ptr1),y
	and     #$BF
	sta     (ptr1),y
;
; } else {
;
	jmp     L0DB6
;
; CANNONBALL_SET_POS_X(x+1);
;
L0DB5:	lda     _x
	clc
	adc     #$01
	bcc     L0DAD
	inx
	clc
L0DAD:	adc     #<(_enemies+128)
	sta     ptr1
	txa
	adc     #>(_enemies+128)
	sta     ptr1+1
	ldy     #$00
	lda     (ptr1),y
	ora     #$40
	sta     (ptr1),y
;
; ++temp4;
;
	inc     _temp4
;
; if (temp1 < temp3) {
;
	ldx     #$00
L0DB6:	lda     _temp1
	cmp     _temp3
	bcs     L0DB7
;
; CANNONBALL_SET_NEG_Y(x+1);
;
	lda     _x
	clc
	adc     #$01
	bcc     L0DAE
	inx
	clc
L0DAE:	adc     #<(_enemies+128)
	sta     ptr1
	txa
	adc     #>(_enemies+128)
	sta     ptr1+1
	lda     (ptr1),y
	and     #$DF
	sta     (ptr1),y
;
; } else {
;
	jmp     L0C32
;
; CANNONBALL_SET_POS_Y(x+1);
;
L0DB7:	lda     _x
	clc
	adc     #$01
	bcc     L0DAF
	inx
	clc
L0DAF:	adc     #<(_enemies+128)
	sta     ptr1
	txa
	adc     #>(_enemies+128)
	sta     ptr1+1
	lda     (ptr1),y
	ora     #$20
	sta     (ptr1),y
;
; temp4 += 0b10;
;
	lda     #$02
	clc
	adc     _temp4
	sta     _temp4
;
; temp0 = abs_subtract(temp0, temp2);
;
L0C32:	lda     _temp0
	jsr     pusha
	lda     _temp2
	jsr     _abs_subtract
	sta     _temp0
;
; if ((temp0 & 0x0f) > 8) { temp0 += 0x10; } // Round metatile x up.
;
	and     #$0F
	cmp     #$09
	bcc     L0C3E
	lda     #$10
	clc
	adc     _temp0
	sta     _temp0
;
; temp1 = abs_subtract(temp1, temp3);
;
L0C3E:	lda     _temp1
	jsr     pusha
	lda     _temp3
	jsr     _abs_subtract
	sta     _temp1
;
; coordinates = (temp1 & 0xf0) + (temp0 >> 4);
;
	and     #$F0
	sta     ptr1
	lda     _temp0
	lsr     a
	lsr     a
	lsr     a
	lsr     a
	clc
	adc     ptr1
	sta     _coordinates
;
; temp2 = brads_lookup(coordinates);
;
	jsr     _brads_lookup
	sta     _temp2
;
; enemies.extra[x] = temp2;
;
	ldy     _x
	lda     _temp2
	sta     _enemies+160,y
;
; temppointer = cannon_sprite_quadrant_lookup_table[temp4];
;
	ldx     #$00
	lda     _temp4
	asl     a
	bcc     L0DB0
	inx
	clc
L0DB0:	adc     #<(_cannon_sprite_quadrant_lookup_table)
	sta     ptr1
	txa
	adc     #>(_cannon_sprite_quadrant_lookup_table)
	sta     ptr1+1
	ldy     #$01
	lda     (ptr1),y
	sta     _temppointer+1
	dey
	lda     (ptr1),y
	sta     _temppointer
;
; if (temp2 > 0x30) { // over 0x30 brads
;
	lda     _temp2
	cmp     #$31
	bcc     L0DB8
;
; temp3 = temppointer[2]; // y-axis aligned
;
	lda     _temppointer+1
	sta     ptr1+1
	lda     _temppointer
	sta     ptr1
	ldy     #$02
;
; } else if (temp2 > 0x10) { // over 0x10 brads
;
	jmp     L0DB9
L0DB8:	lda     _temp2
	cmp     #$11
	bcc     L0C5B
;
; temp3 = temppointer[1]; // diagonal
;
	lda     _temppointer+1
	sta     ptr1+1
	lda     _temppointer
	sta     ptr1
	iny
;
; } else { // 0x10 or fewer brads
;
	jmp     L0DB9
;
; temp3 = temppointer[0]; // x-axis aligned
;
L0C5B:	lda     _temppointer+1
	sta     ptr1+1
	lda     _temppointer
	sta     ptr1
L0DB9:	lda     (ptr1),y
	sta     _temp3
;
; enemies.extra2[x] = temp3;
;
	ldy     _x
	lda     _temp3
	sta     _enemies+192,y
;
; if (enemies.timer[x] == 0) {
;
L0BFF:	ldy     _x
	lda     _enemies+224,y
	beq     L0DBB
;
; }
;
	rts
;
; enemies.timer[x] = 120;
;
L0DBB:	ldy     _x
	lda     #$78
	sta     _enemies+224,y
;
; temp0 = enemies.x[x] + 3;
;
	ldy     _x
	lda     _enemies,y
	clc
	adc     #$03
	sta     _temp0
;
; temp1 = enemies.actual_y[x] + 3;
;
	ldy     _x
	lda     _enemies+64,y
	clc
	adc     #$03
	sta     _temp1
;
; temp2 = enemies.nt[x];
;
	ldy     _x
	lda     _enemies+96,y
	sta     _temp2
;
; enemies.x[x+1] = temp0;
;
	ldx     #$00
	lda     _x
	clc
	adc     #$01
	bcc     L0DB1
	inx
	clc
L0DB1:	adc     #<(_enemies)
	sta     ptr1
	txa
	adc     #>(_enemies)
	sta     ptr1+1
	lda     _temp0
	ldy     #$00
	sta     (ptr1),y
;
; enemies.actual_y[x+1] = temp1;
;
	ldx     #$00
	lda     _x
	clc
	adc     #$01
	bcc     L0DB2
	inx
	clc
L0DB2:	adc     #<(_enemies+64)
	sta     ptr1
	txa
	adc     #>(_enemies+64)
	sta     ptr1+1
	lda     _temp1
	sta     (ptr1),y
;
; enemies.nt[x+1] = temp2;
;
	ldx     #$00
	lda     _x
	clc
	adc     #$01
	bcc     L0DB3
	inx
	clc
L0DB3:	adc     #<(_enemies+96)
	sta     ptr1
	txa
	adc     #>(_enemies+96)
	sta     ptr1+1
	lda     _temp2
	sta     (ptr1),y
;
; enemies.flags_type[x+1] |= ENEMY_CANNONBALL;
;
	ldx     #$00
	lda     _x
	clc
	adc     #$01
	bcc     L0DB4
	inx
	clc
L0DB4:	adc     #<(_enemies+128)
	sta     ptr1
	txa
	adc     #>(_enemies+128)
	sta     ptr1+1
	lda     (ptr1),y
	ora     #$09
	sta     (ptr1),y
;
; }
;
	rts

.endproc

; ---------------------------------------------------------------
; void __near__ cannonball_ai (void)
; ---------------------------------------------------------------

.segment	"CODE"

.proc	_cannonball_ai: near

.segment	"CODE"

;
; temp1 = enemies.extra[x - 1];
;
	ldx     #$00
	lda     _x
	sec
	sbc     #$01
	bcs     L0C92
	dex
L0C92:	sta     ptr1
	txa
	clc
	adc     #>(_enemies+160)
	sta     ptr1+1
	ldy     #<(_enemies+160)
	lda     (ptr1),y
	sta     _temp1
;
; temp2 = cos_lookup(temp1);
;
	jsr     _cos_lookup
	sta     _temp2
;
; temp3 = sin_lookup(temp1);
;
	lda     _temp1
	jsr     _sin_lookup
	sta     _temp3
;
; high_byte(temp5) = enemies.x[x];
;
	ldy     _x
	lda     _enemies,y
	sta     _temp5+1
;
; low_byte(temp5) = enemies.extra[x];
;
	ldy     _x
	lda     _enemies+160,y
	sta     _temp5
;
; if (CANNONBALL_X_DIRECTION(x)) {
;
	ldy     _x
	lda     _enemies+128,y
	and     #$40
	beq     L0DC1
;
; temp5 += temp2;
;
	lda     _temp2
	clc
	adc     _temp5
	sta     _temp5
	lda     #$00
	adc     _temp5+1
	sta     _temp5+1
;
; temp1 = high_byte(temp5) + 7;
;
	clc
	adc     #$07
;
; } else {
;
	jmp     L0DBE
;
; temp5 -= temp2;
;
L0DC1:	lda     _temp2
	eor     #$FF
	sec
	adc     _temp5
	sta     _temp5
	lda     #$FF
	adc     _temp5+1
	sta     _temp5+1
;
; temp1 = high_byte(temp5) + 0xff;
;
	clc
	adc     #$FF
L0DBE:	sta     _temp1
;
; enemies.x[x] = high_byte(temp5);
;
	ldy     _x
	lda     _temp5+1
	sta     _enemies,y
;
; enemies.extra[x] = low_byte(temp5);
;
	ldy     _x
	lda     _temp5
	sta     _enemies+160,y
;
; high_byte(temp6) = enemies.actual_y[x];
;
	ldy     _x
	lda     _enemies+64,y
	sta     _temp6+1
;
; low_byte(temp6) = enemies.extra2[x];
;
	ldy     _x
	lda     _enemies+192,y
	sta     _temp6
;
; if (CANNONBALL_Y_DIRECTION(x)) {
;
	ldy     _x
	lda     _enemies+128,y
	and     #$20
	beq     L0DC2
;
; temp6 += temp3;
;
	lda     _temp3
	clc
	adc     _temp6
	sta     _temp6
	lda     #$00
	adc     _temp6+1
	sta     _temp6+1
;
; enemies.extra2[x] = low_byte(temp6);
;
	ldy     _x
	lda     _temp6
	sta     _enemies+192,y
;
; low_byte(temp6) = high_byte(temp6);
;
	lda     _temp6+1
	sta     _temp6
;
; high_byte(temp6) = enemies.nt[x];
;
	ldy     _x
	lda     _enemies+96,y
	sta     _temp6+1
;
; temp6 = add_scroll_y(0x00, temp6);
;
	lda     #$00
	jsr     pusha
	lda     _temp6
	ldx     _temp6+1
	jsr     _add_scroll_y
	sta     _temp6
	stx     _temp6+1
;
; enemies.nt[x] = high_byte(temp6);
;
	ldy     _x
	lda     _temp6+1
	sta     _enemies+96,y
;
; enemies.actual_y[x] = low_byte(temp6);
;
	ldy     _x
	lda     _temp6
	sta     _enemies+64,y
;
; temp5 = add_scroll_y(7, temp6);
;
	lda     #$07
	jsr     pusha
	lda     _temp6
	ldx     _temp6+1
	jsr     _add_scroll_y
;
; } else {
;
	jmp     L0DC4
;
; temp6 -= temp3;
;
L0DC2:	lda     _temp3
	eor     #$FF
	sec
	adc     _temp6
	sta     _temp6
	lda     #$FF
	adc     _temp6+1
	sta     _temp6+1
;
; enemies.extra2[x] = low_byte(temp6);
;
	ldy     _x
	lda     _temp6
	sta     _enemies+192,y
;
; low_byte(temp6) = high_byte(temp6);
;
	lda     _temp6+1
	sta     _temp6
;
; high_byte(temp6) = enemies.nt[x];
;
	ldy     _x
	lda     _enemies+96,y
	sta     _temp6+1
;
; temp6 = sub_scroll_y(0x00, temp6);
;
	lda     #$00
	jsr     pusha
	lda     _temp6
	ldx     _temp6+1
	jsr     _sub_scroll_y
	sta     _temp6
	stx     _temp6+1
;
; enemies.nt[x] = high_byte(temp6);
;
	ldy     _x
	lda     _temp6+1
	sta     _enemies+96,y
;
; enemies.actual_y[x] = low_byte(temp6);
;
	ldy     _x
	lda     _temp6
	sta     _enemies+64,y
;
; temp5 = sub_scroll_y(1, temp6);
;
	lda     #$01
	jsr     pusha
	lda     _temp6
	ldx     _temp6+1
	jsr     _sub_scroll_y
L0DC4:	sta     _temp5
	stx     _temp5+1
;
; coordinates = (temp1 >> 4) + (low_byte(temp5) & 0xf0);
;
	lda     _temp1
	lsr     a
	lsr     a
	lsr     a
	lsr     a
	sta     ptr1
	lda     _temp5
	and     #$F0
	clc
	adc     ptr1
	sta     _coordinates
;
; temppointer = cmaps[high_byte(temp5)];
;
	ldx     #$00
	lda     _temp5+1
	asl     a
	bcc     L0DC0
	inx
	clc
L0DC0:	adc     #<(_cmaps)
	sta     ptr1
	txa
	adc     #>(_cmaps)
	sta     ptr1+1
	ldy     #$01
	lda     (ptr1),y
	tax
	dey
	lda     (ptr1),y
	sta     _temppointer
	stx     _temppointer+1
;
; collision = temppointer[coordinates];
;
	ldy     _coordinates
	sta     ptr1
	stx     ptr1+1
	lda     (ptr1),y
	sta     _collision
;
; if (METATILE_IS_SOLID(collision)) {
;
	ldy     _collision
	lda     _metatile_property_lookup_table,y
	and     #$01
	beq     L0D1F
;
; enemies.flags_type[x] = ENEMY_NONE;
;
	ldy     _x
	lda     #$00
	sta     _enemies+128,y
;
; }
;
L0D1F:	rts

.endproc

; ---------------------------------------------------------------
; void __near__ acid_ai (void)
; ---------------------------------------------------------------

.segment	"CODE"

.proc	_acid_ai: near

.segment	"CODE"

;
; if (IS_ENEMY_ACTIVE(x+1)) { return; }
;
	ldx     #$00
	lda     _x
	clc
	adc     #$01
	bcc     L0D2D
	inx
L0D2D:	sta     ptr1
	txa
	clc
	adc     #>(_enemies+128)
	sta     ptr1+1
	ldy     #<(_enemies+128)
	lda     (ptr1),y
	and     #$80
	cmp     #$00
;
; }
;
	rts

.endproc

; ---------------------------------------------------------------
; void __near__ acid_drop_ai (void)
; ---------------------------------------------------------------

.segment	"CODE"

.proc	_acid_drop_ai: near

.segment	"CODE"

;
; high_byte(temp5) = enemies.nt[x];
;
	ldy     _x
	lda     _enemies+96,y
	sta     _temp5+1
;
; low_byte(temp5) = enemies.actual_y[x];
;
	ldy     _x
	lda     _enemies+64,y
	sta     _temp5
;
; temp1 = enemies.x[x];
;
	ldy     _x
	lda     _enemies,y
	sta     _temp1
;
; temp5 = add_scroll_y(1, temp5);
;
	lda     #$01
	jsr     pusha
	lda     _temp5
	ldx     _temp5+1
	jsr     _add_scroll_y
	sta     _temp5
	stx     _temp5+1
;
; temp6 = add_scroll_y(6, temp5); // 8 being the cosmetic projectile height
;
	lda     #$06
	jsr     pusha
	lda     _temp5
	ldx     _temp5+1
	jsr     _add_scroll_y
	sta     _temp6
	stx     _temp6+1
;
; coordinates = (temp1 >> 4) + (low_byte(temp6) & 0xf0);
;
	lda     _temp1
	lsr     a
	lsr     a
	lsr     a
	lsr     a
	sta     ptr1
	lda     _temp6
	and     #$F0
	clc
	adc     ptr1
	sta     _coordinates
;
; temppointer = cmaps[high_byte(temp6)];
;
	ldx     #$00
	lda     _temp6+1
	asl     a
	bcc     L0DC7
	inx
	clc
L0DC7:	adc     #<(_cmaps)
	sta     ptr1
	txa
	adc     #>(_cmaps)
	sta     ptr1+1
	ldy     #$01
	lda     (ptr1),y
	tax
	dey
	lda     (ptr1),y
	sta     _temppointer
	stx     _temppointer+1
;
; collision = temppointer[coordinates];
;
	ldy     _coordinates
	sta     ptr1
	stx     ptr1+1
	lda     (ptr1),y
	sta     _collision
;
; if (METATILE_IS_SOLID(collision)) {
;
	ldy     _collision
	lda     _metatile_property_lookup_table,y
	and     #$01
	beq     L0BE6
;
; enemies.flags_type[x] = ENEMY_NONE;
;
	ldy     _x
	lda     #$00
	sta     _enemies+128,y
;
; return;
;
	rts
;
; enemies.nt[x] = high_byte(temp5);
;
L0BE6:	ldy     _x
	lda     _temp5+1
	sta     _enemies+96,y
;
; enemies.actual_y[x] = low_byte(temp5);
;
	ldy     _x
	lda     _temp5
	sta     _enemies+64,y
;
; }
;
	rts

.endproc

; ---------------------------------------------------------------
; void __near__ splyke_ai (void)
; ---------------------------------------------------------------

.segment	"CODE"

.proc	_splyke_ai: near

.segment	"CODE"

;
; }
;
	rts

.endproc

; ---------------------------------------------------------------
; void __near__ sun_ai (void)
; ---------------------------------------------------------------

.segment	"CODE"

.proc	_sun_ai: near

.segment	"CODE"

;
; temp3 = ENEMY_DIRECTION(x) >> 6;
;
	ldy     _x
	lda     _enemies+128,y
	and     #$40
	lsr     a
	lsr     a
	lsr     a
	lsr     a
	lsr     a
	lsr     a
	sta     _temp3
;
; high_byte(temp5) = enemies.nt[x];
;
	ldy     _x
	lda     _enemies+96,y
	sta     _temp5+1
;
; low_byte(temp5) = enemies.actual_y[x];
;
	ldy     _x
	lda     _enemies+64,y
	sta     _temp5
;
; temp1 = enemies.x[x] + 6; 
;
	ldy     _x
	lda     _enemies,y
	clc
	adc     #$06
	sta     _temp1
;
; if (temp3 == UP) { // subtracting from y
;
	lda     _temp3
	bne     L0B88
;
; temp5 = sub_scroll_y(1, temp5);
;
	lda     #$01
	jsr     pusha
	lda     _temp5
	ldx     _temp5+1
	jsr     _sub_scroll_y
	sta     _temp5
	stx     _temp5+1
;
; temp2 = low_byte(temp5); // Y of tile of interest
;
	lda     _temp5
	sta     _temp2
;
; temp4 = high_byte(temp5); // NT of tile of interest
;
	lda     _temp5+1
;
; } else { // DOWN (adding to y)
;
	jmp     L0DCB
;
; temp5 = add_scroll_y(1, temp5);
;
L0B88:	lda     #$01
	jsr     pusha
	lda     _temp5
	ldx     _temp5+1
	jsr     _add_scroll_y
	sta     _temp5
	stx     _temp5+1
;
; temp6 = add_scroll_y(15, temp5); // 15 being the cosmetic size of an enemy
;
	lda     #$0F
	jsr     pusha
	lda     _temp5
	ldx     _temp5+1
	jsr     _add_scroll_y
	sta     _temp6
	stx     _temp6+1
;
; temp2 = low_byte(temp6); // Y of tile of interest
;
	lda     _temp6
	sta     _temp2
;
; temp4 = high_byte(temp6); // NT of tile of interest
;
	lda     _temp6+1
L0DCB:	sta     _temp4
;
; coordinates = (temp1 >> 4) + (temp2 & 0xf0);
;
	lda     _temp1
	lsr     a
	lsr     a
	lsr     a
	lsr     a
	sta     ptr1
	lda     _temp2
	and     #$F0
	clc
	adc     ptr1
	sta     _coordinates
;
; temppointer = cmaps[temp4];
;
	ldx     #$00
	lda     _temp4
	asl     a
	bcc     L0DCC
	inx
	clc
L0DCC:	adc     #<(_cmaps)
	sta     ptr1
	txa
	adc     #>(_cmaps)
	sta     ptr1+1
	ldy     #$01
	lda     (ptr1),y
	tax
	dey
	lda     (ptr1),y
	sta     _temppointer
	stx     _temppointer+1
;
; collision = temppointer[coordinates];
;
	ldy     _coordinates
	sta     ptr1
	stx     ptr1+1
	lda     (ptr1),y
	sta     _collision
;
; if (METATILE_IS_SOLID(collision)) {
;
	ldy     _collision
	lda     _metatile_property_lookup_table,y
	and     #$01
	beq     L0BAD
;
; ENEMY_FLIP_DIRECTION(x);
;
	lda     #<(_enemies+128)
	ldx     #>(_enemies+128)
	clc
	adc     _x
	bcc     L0BB5
	inx
L0BB5:	sta     ptr1
	stx     ptr1+1
	ldy     #$00
	lda     (ptr1),y
	eor     #$40
	sta     (ptr1),y
;
; temp3 ^= 1;
;
	lda     _temp3
	eor     #$01
	sta     _temp3
;
; enemies.nt[x] = high_byte(temp5);
;
L0BAD:	ldy     _x
	lda     _temp5+1
	sta     _enemies+96,y
;
; enemies.actual_y[x] = low_byte(temp5);
;
	ldy     _x
	lda     _temp5
	sta     _enemies+64,y
;
; }
;
	rts

.endproc

; ---------------------------------------------------------------
; void __near__ boss_ai (void)
; ---------------------------------------------------------------

.segment	"CODE"

.proc	_boss_ai: near

.segment	"CODE"

;
; }
;
	rts

.endproc

; ---------------------------------------------------------------
; void __near__ load_title_screen (void)
; ---------------------------------------------------------------

.segment	"CODE"

.proc	_load_title_screen: near

.segment	"CODE"

;
; vram_adr(NTADR_A(3, 2));
;
	ldx     #$20
	lda     #$43
	jsr     _vram_adr
;
; x = 0;
;
	lda     #$00
	sta     _x
;
; while(title_string[x]) {
;
	jmp     L0698
;
; vram_put(title_string[x]);
;
L0696:	ldy     _x
	lda     _title_string,y
	jsr     _vram_put
;
; ++x;
;
	inc     _x
;
; while(title_string[x]) {
;
L0698:	ldy     _x
	lda     _title_string,y
	bne     L0696
;
; vram_adr(NTADR_A(3, 4));
;
	ldx     #$20
	lda     #$83
	jsr     _vram_adr
;
; x = 0;
;
	lda     #$00
	sta     _x
;
; while(author_string[x]) {
;
	jmp     L06AC
;
; vram_put(author_string[x]);
;
L06AA:	ldy     _x
	lda     _author_string,y
	jsr     _vram_put
;
; ++x;
;
	inc     _x
;
; while(author_string[x]) {
;
L06AC:	ldy     _x
	lda     _author_string,y
	bne     L06AA
;
; vram_adr(NTADR_A(3, 6));
;
	ldx     #$20
	lda     #$C3
	jsr     _vram_adr
;
; x = 0;
;
	lda     #$00
	sta     _x
;
; while(instruction_string[x]) {
;
	jmp     L06C0
;
; vram_put(instruction_string[x]);
;
L06BE:	ldy     _x
	lda     _instruction_string,y
	jsr     _vram_put
;
; ++x;
;
	inc     _x
;
; while(instruction_string[x]) {
;
L06C0:	ldy     _x
	lda     _instruction_string,y
	bne     L06BE
;
; }
;
	rts

.endproc

; ---------------------------------------------------------------
; void __near__ load_game_over_screen (void)
; ---------------------------------------------------------------

.segment	"CODE"

.proc	_load_game_over_screen: near

.segment	"CODE"

;
; ppu_off();
;
	jsr     _ppu_off
;
; clear_screen();
;
	jsr     _clear_screen
;
; game_mode = MODE_GAME_OVER;
;
	lda     #$04
	sta     _game_mode
;
; vram_adr(NTADR_A(3, 6));
;
	ldx     #$20
	lda     #$C3
	jsr     _vram_adr
;
; x = 0;
;
	lda     #$00
	sta     _x
;
; while (game_over_string[x]) {
;
	jmp     L06DA
;
; vram_put(game_over_string[x]);
;
L06D8:	ldy     _x
	lda     _game_over_string,y
	jsr     _vram_put
;
; ++x;
;
	inc     _x
;
; while (game_over_string[x]) {
;
L06DA:	ldy     _x
	lda     _game_over_string,y
	bne     L06D8
;
; ppu_on_all();
;
	jmp     _ppu_on_all

.endproc

; ---------------------------------------------------------------
; void __near__ clear_screen (void)
; ---------------------------------------------------------------

.segment	"CODE"

.proc	_clear_screen: near

.segment	"CODE"

;
; oam_clear();
;
	jsr     _oam_clear
;
; clear_vram_buffer();
;
	jsr     _clear_vram_buffer
;
; set_scroll_y(0);
;
	ldx     #$00
	txa
	jsr     _set_scroll_y
;
; vram_adr(NAMETABLE_A);
;
	ldx     #$20
	lda     #$00
	jsr     _vram_adr
;
; vram_fill(0,1024);
;
	lda     #$00
	jsr     pusha
	ldx     #$04
	jmp     _vram_fill

.endproc

; ---------------------------------------------------------------
; void __near__ main (void)
; ---------------------------------------------------------------

.segment	"CODE"

.proc	_main: near

.segment	"CODE"

;
; ppu_off(); // screen off
;
	jsr     _ppu_off
;
; pal_bg(palette_bg);
;
	lda     #<(_palette_bg)
	ldx     #>(_palette_bg)
	jsr     _pal_bg
;
; pal_spr(palette_sp);
;
	lda     #<(_palette_sp)
	ldx     #>(_palette_sp)
	jsr     _pal_spr
;
; set_prg_bank(0);
;
	lda     #$00
	jsr     _set_prg_bank
;
; set_chr_bank_0(0);
;
	lda     #$00
	jsr     _set_chr_bank_0
;
; bank_spr(1);
;
	lda     #$01
	jsr     _bank_spr
;
; set_vram_buffer(); // do at least once, sets a pointer to a buffer
;
	jsr     _set_vram_buffer
;
; clear_vram_buffer();
;
	jsr     _clear_vram_buffer
;
; level_index = 0;
;
	lda     #$00
	sta     _level_index
;
; load_title_screen();
;
	jsr     _load_title_screen
;
; temp0 = 0x69;
;
	lda     #$69
	sta     _temp0
;
; temp1 = brads_lookup(0x31); // dydx
;
	lda     #$31
	jsr     _brads_lookup
	sta     _temp1
;
; temp2 = sin_lookup(temp1);
;
	jsr     _sin_lookup
	sta     _temp2
;
; temp3 = cos_lookup(temp1);
;
	lda     _temp1
	jsr     _cos_lookup
	sta     _temp3
;
; temp4 = abs_subtract(0x20, 0x20);
;
	lda     #$20
	jsr     pusha
	jsr     _abs_subtract
	sta     _temp4
;
; ppu_on_all(); // turn on screen
;
	jsr     _ppu_on_all
;
; while (game_mode == MODE_TITLE) { 
;
	jmp     L0DCE
;
; ppu_wait_nmi();
;
L063A:	jsr     _ppu_wait_nmi
;
; pad1 = pad_poll(0); // read the first controller
;
	lda     #$00
	jsr     _pad_poll
	sta     _pad1
;
; pad1_new = get_pad_new(0);
;
	lda     #$00
	jsr     _get_pad_new
	sta     _pad1_new
;
; if (pad1_new & PAD_UP) {
;
	and     #$08
	beq     L0DCE
;
; level_index = 0;
;
	lda     #$00
	sta     _level_index
;
; begin_level();
;
	jsr     _begin_level
;
; while (game_mode == MODE_TITLE) { 
;
L0DCE:	lda     _game_mode
	beq     L063A
;
; while (game_mode == MODE_GAME) {
;
	jmp     L0DD0
;
; ppu_wait_nmi(); // wait till beginning of the frame
;
L064A:	jsr     _ppu_wait_nmi
;
; set_chr_bank_0(0);
;
	lda     #$00
	jsr     _set_chr_bank_0
;
; pad1 = pad_poll(0); // read the first controller
;
	lda     #$00
	jsr     _pad_poll
	sta     _pad1
;
; pad1_new = get_pad_new(0);
;
	lda     #$00
	jsr     _get_pad_new
	sta     _pad1_new
;
; clear_vram_buffer();
;
	jsr     _clear_vram_buffer
;
; movement();
;
	jsr     _movement
;
; check_spr_objects();
;
	jsr     _check_spr_objects
;
; sprite_collisions();
;
	jsr     _sprite_collisions
;
; enemy_movement();
;
	jsr     _enemy_movement
;
; set_scroll_y(scroll_y);
;
	lda     _scroll_y
	ldx     _scroll_y+1
	jsr     _set_scroll_y
;
; convert_to_decimal(score);
;
	lda     _score
	ldx     _score+1
	jsr     _convert_to_decimal
;
; draw_sprites();
;
	jsr     _draw_sprites
;
; if (valrigard.velocity_y >= 0) { // If this is true, draw down. Otherwise, draw up.
;
	ldx     _valrigard+6+1
	bmi     L0661
;
; draw_screen_D();
;
	jsr     _draw_screen_D
;
; }  else {
;
	jmp     L0664
;
; draw_screen_U();
;
L0661:	jsr     _draw_screen_U
;
; if (game_mode == MODE_GAME_OVER) {
;
L0664:	lda     _game_mode
	cmp     #$04
	bne     L0DCF
;
; load_game_over_screen();
;
	jsr     _load_game_over_screen
;
; if (pad1 & PAD_DOWN) {
;
L0DCF:	lda     _pad1
	and     #$04
	beq     L0669
;
; SET_STATUS_ALIVE();
;
	lda     _player_flags
	and     #$FD
	sta     _player_flags
;
; gray_line(); // The further down this renders, the fewer clock cycles were free this frame.
;
L0669:	jsr     _gray_line
;
; while (game_mode == MODE_GAME) {
;
L0DD0:	lda     _game_mode
	cmp     #$01
	beq     L064A
;
; while (game_mode == MODE_GAME_OVER) {
;
	jmp     L0DD1
;
; ppu_wait_nmi();
;
L066F:	jsr     _ppu_wait_nmi
;
; pad1 = pad_poll(0);
;
	lda     #$00
	jsr     _pad_poll
	sta     _pad1
;
; pad1_new = get_pad_new(0);
;
	lda     #$00
	jsr     _get_pad_new
	sta     _pad1_new
;
; if (pad1_new & PAD_DOWN) {
;
	and     #$04
	beq     L0DD1
;
; level_index = 0;
;
	lda     #$00
	sta     _level_index
;
; begin_level();
;
	jsr     _begin_level
;
; while (game_mode == MODE_GAME_OVER) {
;
L0DD1:	lda     _game_mode
	cmp     #$04
	beq     L066F
;
; while (1){
;
	jmp     L0DCE

.endproc

