;
; File generated by cc65 v 2.18 - N/A
;
	.fopt		compiler,"cc65 v 2.18 - N/A"
	.setcpu		"6502"
	.smart		on
	.autoimport	on
	.case		on
	.debuginfo	off
	.importzp	sp, sreg, regsave, regbank
	.importzp	tmp1, tmp2, tmp3, tmp4, ptr1, ptr2, ptr3, ptr4
	.macpack	longbranch
	.forceimport	__STARTUP__
	.import		_pal_bg
	.import		_pal_spr
	.import		_pal_bright
	.import		_ppu_wait_nmi
	.import		_ppu_off
	.import		_ppu_on_all
	.import		_oam_clear
	.importzp	_TEMP
	.import		_oam_meta_spr_fast_sub
	.import		_oam_spr_fast_sub
	.import		_sfx_play
	.import		_pad_poll
	.import		_bank_spr
	.import		_rand8
	.import		_vram_adr
	.import		_vram_put
	.import		_vram_fill
	.import		_vram_write
	.import		_memfill
	.import		_set_vram_buffer
	.import		_multi_vram_buffer_horz
	.import		_clear_vram_buffer
	.import		_get_pad_new
	.import		_get_frame_count
	.import		_check_collision_fast
	.import		_set_scroll_y
	.import		_add_scroll_y_fast_sub
	.import		_sub_scroll_y
	.import		_get_ppu_addr_fast
	.import		_set_data_pointer
	.import		_set_mt_pointer
	.import		_buffer_1_mt_fast_sub
	.import		_buffer_4_mt_fast_sub
	.import		_flush_vram_update_nmi
	.import		_seed_rng
	.export		_bankLevel
	.export		_bankBuffer
	.import		_set_prg_bank
	.import		_set_chr_bank_0
	.export		_valrigard_idle_left
	.export		_valrigard_idle_right
	.export		_valrigard_swing_left_high
	.export		_valrigard_swing_right_high
	.export		_valrigard_swing_left_mid
	.export		_valrigard_swing_right_mid
	.export		_valrigard_swing_left_low
	.export		_valrigard_swing_right_low
	.export		_valrigard_swing_left_followthrough
	.export		_valrigard_swing_right_followthrough
	.export		_valrigard_dead_left
	.export		_valrigard_dead_right
	.export		_valrigard_flying_left0
	.export		_valrigard_flying_right0
	.export		_valrigard_flying_left1
	.export		_valrigard_flying_right1
	.export		_valrigard_flying_left2
	.export		_valrigard_flying_right2
	.export		_spikeball
	.export		_korbat_left
	.export		_korbat_flap1_left
	.export		_korbat_flap2_left
	.export		_korbat_flap3_left
	.export		_korbat_flap4_left
	.export		_korbat_flap5_left
	.export		_korbat_flap6_left
	.export		_korbat_right
	.export		_korbat_flap1_right
	.export		_korbat_flap2_right
	.export		_korbat_flap3_right
	.export		_korbat_flap4_right
	.export		_korbat_flap5_right
	.export		_korbat_flap6_right
	.export		_sun0
	.export		_sun1
	.export		_cannon_up
	.export		_cannon_up_left
	.export		_cannon_left
	.export		_cannon_down_left
	.export		_cannon_down
	.export		_cannon_down_right
	.export		_cannon_right
	.export		_cannon_up_right
	.export		_grarrl_left
	.export		_grarrl_backfoot_step0_left
	.export		_grarrl_backfoot_step1_left
	.export		_grarrl_frontfoot_step0_left
	.export		_grarrl_frontfoot_step1_left
	.export		_grarrl_right
	.export		_grarrl_backfoot_step0_right
	.export		_grarrl_backfoot_step1_right
	.export		_grarrl_frontfoot_step0_right
	.export		_grarrl_frontfoot_step1_right
	.export		_acidblob0
	.export		_acidblob1
	.export		_acidblob2
	.export		_acidblob3
	.export		_splyke_tornado0
	.export		_splyke_tornado1
	.export		_splyke_tornado2
	.export		_splyke_idle_left0
	.export		_splyke_idle_left1
	.export		_splyke_idle_right0
	.export		_splyke_idle_right1
	.export		_boss_head_eye_open_mouth_closed_left
	.export		_boss_head_eye_open_mouth_closed_right
	.export		_boss_head_eye_closed_mouth_closed_left
	.export		_boss_head_eye_closed_mouth_closed_right
	.export		_boss_body_idle_left0
	.export		_boss_body_idle_right0
	.export		_boss_body_flying_left0
	.export		_boss_body_flying_right0
	.export		_boss_body_flying_left1
	.export		_boss_body_flying_right1
	.export		_boss_body_flying_left2
	.export		_boss_body_flying_right2
	.export		_boss_body_flying_left3
	.export		_boss_body_flying_right3
	.export		_purple_death_effect0
	.export		_purple_death_effect1
	.export		_splyke_death_effect0
	.export		_splyke_death_effect1
	.export		_energy_bar_0
	.export		_energy_bar_1
	.export		_energy_bar_2
	.export		_energy_bar_3
	.export		_energy_bar_4
	.export		_energy_bar_5
	.export		_energy_bar_6
	.export		_energy_bar_7
	.export		_energy_bar_8
	.export		_energy_bar_9
	.export		_energy_bar_a
	.export		_energy_bar_b
	.export		_energy_bar_c
	.export		_energy_bar_d
	.export		_energy_bar_e
	.export		_energy_bar_f
	.import		_metatiles
	.import		_metatile_property_lookup_table
	.export		_level01_enemy
	.export		_level01
	.export		_level02_enemy
	.export		_level02
	.export		_level03_enemy
	.export		_level03
	.export		_level04_enemy
	.export		_level04
	.export		_level05_enemy
	.export		_level05
	.export		_level06_enemy
	.export		_level06
	.export		_level07_enemy
	.export		_level07
	.export		_level08_enemy
	.export		_level08
	.export		_level09_enemy
	.export		_level09
	.export		_level10_enemy
	.export		_level10
	.export		_level11_enemy
	.export		_level11
	.export		_level12_enemy
	.export		_level12
	.export		_level13_enemy
	.export		_level13
	.export		_level14_enemy
	.export		_level14
	.export		_level15_enemy
	.export		_level15
	.export		_level16_enemy
	.export		_level16
	.export		_level17_enemy
	.export		_level17
	.export		_level18_enemy
	.export		_level18
	.export		_level19
	.export		_level20_enemy
	.export		_level20
	.export		_boss_dialog_strings
	.export		_defeat_dialog_strings
	.export		_boss_dialog_portrait_sprites
	.export		_boss_dialog
	.export		_defeat_dialog
	.export		_level_debug_tiledump_enemy
	.export		_level_debug_tiledump
	.export		_level_star_test
	.export		_level_enemies_test_enemy
	.export		_level_enemies_test
	.export		_level_question_block_test
	.export		_level_macosten_enemy
	.export		_level_macosten
	.export		_level_nt_length
	.export		_valrigard_starting_nt
	.export		_valrigard_inital_coords
	.export		_level_compressed_nametable_pointers
	.export		_level_nametable_banks
	.export		_level_names
	.export		_empty_enemy
	.export		_level_enemy_data
	.export		_pad1
	.export		_pad1_new
	.export		_collision
	.export		_collision_L
	.export		_collision_R
	.export		_collision_U
	.export		_collision_D
	.export		_coordinates
	.export		_temp0
	.export		_temp1
	.export		_temp2
	.export		_temp3
	.export		_temp4
	.export		_temp5
	.export		_temp6
	.export		_temppointer
	.export		_temppointer1
	.export		_temp_mutablepointer
	.export		_eject_L
	.export		_eject_R
	.export		_eject_D
	.export		_eject_U
	.export		_player_frame_timer
	.export		_player_sword_timer
	.export		_player_flags
	.export		_game_mode
	.export		_address
	.export		_x
	.export		_y
	.export		_index
	.export		_nt
	.export		_pseudo_scroll_y
	.export		_scroll_y
	.export		_min_scroll_y
	.export		_max_scroll_y
	.export		_initial_scroll
	.export		_scroll_count
	.export		_L_R_switch
	.export		_old_x
	.export		_old_y
	.export		_temp_x
	.export		_temp_y
	.export		_level_index
	.export		_energy
	.export		_score
	.export		_enemy_score
	.export		_stars
	.export		_timer
	.export		_song
	.export		_nt_min
	.export		_nt_max
	.export		_nt_current
	.export		_valrigard
	.export		_hitbox
	.export		_hitbox2
	.export		_shuffle_offset
	.export		_shuffle_maximum
	.export		_debug_tile_x
	.export		_debug_tile_y
	.export		_conveyor_delta
	.export		_menu_index
	.export		_tile_clear_queue
	.export		_tile_clear_to_type_queue
	.export		_tile_clear_front
	.export		_tile_clear_back
	.export		_did_headbonk
	.export		_enemy_is_using_bg_collision
	.export		_welcome_screen
	.import		_score_string
	.import		_convert_to_decimal
	.import		_sin_lookup
	.import		_cos_lookup
	.import		_brads_table
	.import		_abs_subtract
	.import		_strlen
	.import		_LZG_decode
	.import		_show_title_screen
	.export		_palette_bg
	.export		_palette_sp
	.export		_shuffle_array
	.export		_shuffle_leg_size
	.export		_enemies
	.export		_boss_state
	.export		_boss_memory
	.export		_cmap
	.export		_cmaps
	.export		_draw_sprites
	.export		_draw_player
	.export		_draw_korbat
	.export		_draw_grarrl
	.export		_draw_spikeball
	.export		_draw_cannon
	.export		_draw_cannonball
	.export		_draw_acid
	.export		_draw_acid_drop
	.export		_draw_splyke
	.export		_draw_sun
	.export		_draw_boss
	.export		_draw_purple_death_effect
	.export		_draw_splyke_death_effect
	.export		_draw_magic_bolt
	.export		_draw_score
	.export		_draw_energy
	.export		_draw_screen_sub
	.export		_handle_tile_clear_queue
	.export		_begin_level
	.export		_load_level_new
	.export		_calculate_shuffle_array
	.export		_load_level_selector
	.export		_load_game_over_screen
	.export		_load_level_welcome_screen
	.export		_clear_screen
	.export		_put_str_sub
	.export		_movement
	.export		_swing_sword
	.export		_bg_collision
	.export		_bg_collision_sub
	.export		_bg_collision_sub_collision_u
	.export		_check_spr_objects
	.export		_sprite_collisions
	.export		_collision_with_inert
	.export		_collision_with_killable_slashable
	.export		_collision_with_inert_slashable
	.export		_collision_with_unkillable_unslashable
	.export		_collision_with_splyke
	.export		_collision_with_boss
	.export		_enemy_movement
	.export		_korbat_ai
	.export		_spikeball_ai
	.export		_cannon_ai
	.export		_cannonball_ai
	.export		_cannonball_ai_sub
	.export		_acid_ai
	.export		_acid_drop_ai
	.export		_splyke_ai
	.export		_sun_ai
	.export		_boss_ai
	.export		_death_effect_timer_ai
	.export		_fire_at_target
	.import		_dialog_box_handler
	.import		_boss_ai_intro
	.import		_boss_ai_idle
	.import		_boss_ai_ascending
	.import		_boss_ai_descending
	.export		_draw_screen_sub_lookup_addr_0
	.export		_draw_screen_sub_lookup_index_offset_0
	.export		_draw_screen_sub_lookup_addr_1
	.export		_draw_screen_sub_lookup_index_offset_1
	.export		_leftright_movement_offset_lookup_table
	.export		_leftright_movement_moving_lookup_table
	.export		_updown_movement_offset_lookup_table
	.export		_cannon_ul_sprite_lookup_table
	.export		_cannon_ur_sprite_lookup_table
	.export		_cannon_dr_sprite_lookup_table
	.export		_cannon_dl_sprite_lookup_table
	.export		_cannon_sprite_quadrant_lookup_table
	.export		_valrigard_idle_sprite_lookup_table
	.export		_valrigard_sword_swing_sprite_lookup_table
	.export		_valrigard_dead_sprite_lookup_table
	.export		_valrigard_flying_sprite_lookup_table
	.export		_korbat_sprite_lookup_table
	.export		_grarrl_sprite_lookup_table
	.export		_cannon_sprite_lookup_table
	.export		_acidblob_sprite_lookup_table
	.export		_sun_sprite_lookup_table
	.export		_splyke_sprite_lookup_table
	.export		_purple_death_effect_sprite_lookup_table
	.export		_splyke_death_effect_sprite_lookup_table
	.export		_energy_bar_lookup_table
	.export		_boss_body_sprite_idle_lookup_table
	.export		_boss_head_sprite_lookup_table
	.export		_boss_body_sprite_flying_lookup_table
	.export		_boss_magic_offset_table
	.export		_main
	.export		_title_string
	.export		_author_string
	.export		_instruction_string
	.export		_level_complete_string
	.export		_down_to_restart_string
	.export		_draw_func_pointers
	.export		_enemy_hitbox_width_lookup_table
	.export		_enemy_hitbox_height_lookup_table
	.export		_enemy_hitbox_x_offset_lookup_table
	.export		_collision_functions
	.export		_ai_pointers
	.export		_boss_ai_functions

.segment	"DATA"

_palette_bg:
	.byte	$0F
	.byte	$00
	.byte	$10
	.byte	$30
	.byte	$0F
	.byte	$17
	.byte	$27
	.byte	$38
	.byte	$0F
	.byte	$06
	.byte	$16
	.byte	$26
	.byte	$0F
	.byte	$17
	.byte	$27
	.byte	$38

.segment	"RODATA"

.segment	"BANK5"
_valrigard_idle_left:
	.byte	$FE
	.byte	$FD
	.byte	$E0
	.byte	$01
	.byte	$06
	.byte	$FD
	.byte	$E1
	.byte	$01
	.byte	$FE
	.byte	$05
	.byte	$F0
	.byte	$01
	.byte	$06
	.byte	$05
	.byte	$F1
	.byte	$01
	.byte	$80
_valrigard_idle_right:
	.byte	$06
	.byte	$FD
	.byte	$E0
	.byte	$41
	.byte	$FE
	.byte	$FD
	.byte	$E1
	.byte	$41
	.byte	$06
	.byte	$05
	.byte	$F0
	.byte	$41
	.byte	$FE
	.byte	$05
	.byte	$F1
	.byte	$41
	.byte	$80
_valrigard_swing_left_high:
	.byte	$FE
	.byte	$FD
	.byte	$E2
	.byte	$01
	.byte	$06
	.byte	$FD
	.byte	$E1
	.byte	$01
	.byte	$FE
	.byte	$05
	.byte	$F2
	.byte	$01
	.byte	$06
	.byte	$05
	.byte	$F3
	.byte	$01
	.byte	$80
_valrigard_swing_right_high:
	.byte	$06
	.byte	$FD
	.byte	$E2
	.byte	$41
	.byte	$FE
	.byte	$FD
	.byte	$E1
	.byte	$41
	.byte	$06
	.byte	$05
	.byte	$F2
	.byte	$41
	.byte	$FE
	.byte	$05
	.byte	$F3
	.byte	$41
	.byte	$80
_valrigard_swing_left_mid:
	.byte	$FE
	.byte	$FD
	.byte	$E4
	.byte	$01
	.byte	$06
	.byte	$FD
	.byte	$E1
	.byte	$01
	.byte	$FE
	.byte	$05
	.byte	$F4
	.byte	$01
	.byte	$06
	.byte	$05
	.byte	$F3
	.byte	$01
	.byte	$80
_valrigard_swing_right_mid:
	.byte	$06
	.byte	$FD
	.byte	$E4
	.byte	$41
	.byte	$FE
	.byte	$FD
	.byte	$E1
	.byte	$41
	.byte	$06
	.byte	$05
	.byte	$F4
	.byte	$41
	.byte	$FE
	.byte	$05
	.byte	$F3
	.byte	$41
	.byte	$80
_valrigard_swing_left_low:
	.byte	$FE
	.byte	$FD
	.byte	$E5
	.byte	$01
	.byte	$06
	.byte	$FD
	.byte	$E1
	.byte	$01
	.byte	$FE
	.byte	$05
	.byte	$F5
	.byte	$01
	.byte	$06
	.byte	$05
	.byte	$F6
	.byte	$01
	.byte	$80
_valrigard_swing_right_low:
	.byte	$06
	.byte	$FD
	.byte	$E5
	.byte	$41
	.byte	$FE
	.byte	$FD
	.byte	$E1
	.byte	$41
	.byte	$06
	.byte	$05
	.byte	$F5
	.byte	$41
	.byte	$FE
	.byte	$05
	.byte	$F6
	.byte	$41
	.byte	$80
_valrigard_swing_left_followthrough:
	.byte	$FE
	.byte	$FD
	.byte	$E7
	.byte	$01
	.byte	$06
	.byte	$FD
	.byte	$E8
	.byte	$01
	.byte	$FE
	.byte	$05
	.byte	$F7
	.byte	$01
	.byte	$06
	.byte	$05
	.byte	$F8
	.byte	$01
	.byte	$80
_valrigard_swing_right_followthrough:
	.byte	$06
	.byte	$FD
	.byte	$E7
	.byte	$41
	.byte	$FE
	.byte	$FD
	.byte	$E8
	.byte	$41
	.byte	$06
	.byte	$05
	.byte	$F7
	.byte	$41
	.byte	$FE
	.byte	$05
	.byte	$F8
	.byte	$41
	.byte	$80
_valrigard_dead_left:
	.byte	$06
	.byte	$05
	.byte	$D1
	.byte	$01
	.byte	$FE
	.byte	$05
	.byte	$D0
	.byte	$01
	.byte	$80
_valrigard_dead_right:
	.byte	$FE
	.byte	$05
	.byte	$D1
	.byte	$41
	.byte	$06
	.byte	$05
	.byte	$D0
	.byte	$41
	.byte	$80
_valrigard_flying_left0:
	.byte	$FE
	.byte	$FD
	.byte	$E0
	.byte	$01
	.byte	$06
	.byte	$FD
	.byte	$90
	.byte	$01
	.byte	$FE
	.byte	$05
	.byte	$F0
	.byte	$01
	.byte	$06
	.byte	$05
	.byte	$F1
	.byte	$01
	.byte	$80
_valrigard_flying_right0:
	.byte	$FE
	.byte	$FD
	.byte	$90
	.byte	$41
	.byte	$06
	.byte	$FD
	.byte	$E0
	.byte	$41
	.byte	$FE
	.byte	$05
	.byte	$F1
	.byte	$41
	.byte	$06
	.byte	$05
	.byte	$F0
	.byte	$41
	.byte	$80
_valrigard_flying_left1:
	.byte	$FE
	.byte	$FD
	.byte	$E0
	.byte	$01
	.byte	$06
	.byte	$FD
	.byte	$91
	.byte	$01
	.byte	$FE
	.byte	$05
	.byte	$F0
	.byte	$01
	.byte	$06
	.byte	$05
	.byte	$A1
	.byte	$01
	.byte	$80
_valrigard_flying_right1:
	.byte	$FE
	.byte	$FD
	.byte	$91
	.byte	$41
	.byte	$06
	.byte	$FD
	.byte	$E0
	.byte	$41
	.byte	$FE
	.byte	$05
	.byte	$A1
	.byte	$41
	.byte	$06
	.byte	$05
	.byte	$F0
	.byte	$41
	.byte	$80
_valrigard_flying_left2:
	.byte	$FE
	.byte	$FD
	.byte	$92
	.byte	$01
	.byte	$06
	.byte	$FD
	.byte	$93
	.byte	$01
	.byte	$FE
	.byte	$05
	.byte	$A2
	.byte	$01
	.byte	$06
	.byte	$05
	.byte	$A3
	.byte	$01
	.byte	$80
_valrigard_flying_right2:
	.byte	$FE
	.byte	$FD
	.byte	$93
	.byte	$41
	.byte	$06
	.byte	$FD
	.byte	$92
	.byte	$41
	.byte	$FE
	.byte	$05
	.byte	$A3
	.byte	$41
	.byte	$06
	.byte	$05
	.byte	$A2
	.byte	$41
	.byte	$80
_spikeball:
	.byte	$FF
	.byte	$FF
	.byte	$12
	.byte	$03
	.byte	$07
	.byte	$FF
	.byte	$12
	.byte	$43
	.byte	$FF
	.byte	$07
	.byte	$12
	.byte	$83
	.byte	$07
	.byte	$07
	.byte	$12
	.byte	$C3
	.byte	$80
_korbat_left:
	.byte	$FF
	.byte	$FF
	.byte	$20
	.byte	$02
	.byte	$07
	.byte	$FF
	.byte	$21
	.byte	$02
	.byte	$FF
	.byte	$07
	.byte	$30
	.byte	$02
	.byte	$07
	.byte	$07
	.byte	$31
	.byte	$02
	.byte	$80
_korbat_flap1_left:
	.byte	$FF
	.byte	$FF
	.byte	$20
	.byte	$02
	.byte	$07
	.byte	$FF
	.byte	$22
	.byte	$02
	.byte	$FF
	.byte	$07
	.byte	$30
	.byte	$02
	.byte	$07
	.byte	$07
	.byte	$31
	.byte	$02
	.byte	$80
_korbat_flap2_left:
	.byte	$FF
	.byte	$FF
	.byte	$20
	.byte	$02
	.byte	$07
	.byte	$FF
	.byte	$32
	.byte	$02
	.byte	$FF
	.byte	$07
	.byte	$30
	.byte	$02
	.byte	$07
	.byte	$07
	.byte	$31
	.byte	$02
	.byte	$80
_korbat_flap3_left:
	.byte	$FF
	.byte	$FF
	.byte	$20
	.byte	$02
	.byte	$07
	.byte	$FF
	.byte	$23
	.byte	$02
	.byte	$FF
	.byte	$07
	.byte	$30
	.byte	$02
	.byte	$07
	.byte	$07
	.byte	$33
	.byte	$02
	.byte	$80
_korbat_flap4_left:
	.byte	$FF
	.byte	$FF
	.byte	$20
	.byte	$02
	.byte	$FF
	.byte	$07
	.byte	$30
	.byte	$02
	.byte	$07
	.byte	$07
	.byte	$24
	.byte	$02
	.byte	$80
_korbat_flap5_left:
	.byte	$FF
	.byte	$FF
	.byte	$20
	.byte	$02
	.byte	$FF
	.byte	$07
	.byte	$30
	.byte	$02
	.byte	$07
	.byte	$07
	.byte	$34
	.byte	$02
	.byte	$80
_korbat_flap6_left:
	.byte	$FF
	.byte	$FF
	.byte	$20
	.byte	$02
	.byte	$FF
	.byte	$07
	.byte	$30
	.byte	$02
	.byte	$07
	.byte	$07
	.byte	$25
	.byte	$02
	.byte	$80
_korbat_right:
	.byte	$07
	.byte	$FF
	.byte	$20
	.byte	$42
	.byte	$FF
	.byte	$FF
	.byte	$21
	.byte	$42
	.byte	$07
	.byte	$07
	.byte	$30
	.byte	$42
	.byte	$FF
	.byte	$07
	.byte	$31
	.byte	$42
	.byte	$80
_korbat_flap1_right:
	.byte	$FF
	.byte	$FF
	.byte	$22
	.byte	$42
	.byte	$07
	.byte	$FF
	.byte	$20
	.byte	$42
	.byte	$FF
	.byte	$07
	.byte	$31
	.byte	$42
	.byte	$07
	.byte	$07
	.byte	$30
	.byte	$42
	.byte	$80
_korbat_flap2_right:
	.byte	$FF
	.byte	$FF
	.byte	$32
	.byte	$42
	.byte	$07
	.byte	$FF
	.byte	$20
	.byte	$42
	.byte	$FF
	.byte	$07
	.byte	$31
	.byte	$42
	.byte	$07
	.byte	$07
	.byte	$30
	.byte	$42
	.byte	$80
_korbat_flap3_right:
	.byte	$FF
	.byte	$FF
	.byte	$23
	.byte	$42
	.byte	$07
	.byte	$FF
	.byte	$20
	.byte	$42
	.byte	$FF
	.byte	$07
	.byte	$33
	.byte	$42
	.byte	$07
	.byte	$07
	.byte	$30
	.byte	$42
	.byte	$80
_korbat_flap4_right:
	.byte	$07
	.byte	$FF
	.byte	$20
	.byte	$42
	.byte	$07
	.byte	$07
	.byte	$30
	.byte	$42
	.byte	$FF
	.byte	$07
	.byte	$24
	.byte	$42
	.byte	$80
_korbat_flap5_right:
	.byte	$07
	.byte	$FF
	.byte	$20
	.byte	$42
	.byte	$07
	.byte	$07
	.byte	$30
	.byte	$42
	.byte	$FF
	.byte	$07
	.byte	$34
	.byte	$42
	.byte	$80
_korbat_flap6_right:
	.byte	$07
	.byte	$FF
	.byte	$20
	.byte	$42
	.byte	$07
	.byte	$07
	.byte	$30
	.byte	$42
	.byte	$FF
	.byte	$07
	.byte	$25
	.byte	$42
	.byte	$80
_sun0:
	.byte	$00
	.byte	$FF
	.byte	$13
	.byte	$00
	.byte	$08
	.byte	$FF
	.byte	$13
	.byte	$40
	.byte	$00
	.byte	$07
	.byte	$14
	.byte	$00
	.byte	$08
	.byte	$07
	.byte	$14
	.byte	$40
	.byte	$80
_sun1:
	.byte	$00
	.byte	$FF
	.byte	$15
	.byte	$00
	.byte	$08
	.byte	$FF
	.byte	$15
	.byte	$40
	.byte	$00
	.byte	$07
	.byte	$16
	.byte	$00
	.byte	$08
	.byte	$07
	.byte	$16
	.byte	$40
	.byte	$80
_cannon_up:
	.byte	$00
	.byte	$FF
	.byte	$1A
	.byte	$80
	.byte	$08
	.byte	$FF
	.byte	$1A
	.byte	$C0
	.byte	$00
	.byte	$07
	.byte	$19
	.byte	$80
	.byte	$08
	.byte	$07
	.byte	$19
	.byte	$C0
	.byte	$80
_cannon_up_left:
	.byte	$00
	.byte	$FF
	.byte	$1E
	.byte	$C0
	.byte	$00
	.byte	$07
	.byte	$1D
	.byte	$C0
	.byte	$08
	.byte	$FF
	.byte	$1C
	.byte	$C0
	.byte	$08
	.byte	$07
	.byte	$1B
	.byte	$C0
	.byte	$80
_cannon_left:
	.byte	$00
	.byte	$FF
	.byte	$2F
	.byte	$40
	.byte	$08
	.byte	$FF
	.byte	$1F
	.byte	$40
	.byte	$00
	.byte	$07
	.byte	$2F
	.byte	$C0
	.byte	$08
	.byte	$07
	.byte	$1F
	.byte	$C0
	.byte	$80
_cannon_down_left:
	.byte	$00
	.byte	$FF
	.byte	$1D
	.byte	$40
	.byte	$08
	.byte	$FF
	.byte	$1B
	.byte	$40
	.byte	$00
	.byte	$07
	.byte	$1E
	.byte	$40
	.byte	$08
	.byte	$07
	.byte	$1C
	.byte	$40
	.byte	$80
_cannon_down:
	.byte	$00
	.byte	$FF
	.byte	$19
	.byte	$00
	.byte	$08
	.byte	$FF
	.byte	$19
	.byte	$40
	.byte	$00
	.byte	$07
	.byte	$1A
	.byte	$00
	.byte	$08
	.byte	$07
	.byte	$1A
	.byte	$40
	.byte	$80
_cannon_down_right:
	.byte	$00
	.byte	$FF
	.byte	$1B
	.byte	$00
	.byte	$08
	.byte	$FF
	.byte	$1D
	.byte	$00
	.byte	$00
	.byte	$07
	.byte	$1C
	.byte	$00
	.byte	$08
	.byte	$07
	.byte	$1E
	.byte	$00
	.byte	$80
_cannon_right:
	.byte	$00
	.byte	$FF
	.byte	$1F
	.byte	$00
	.byte	$08
	.byte	$FF
	.byte	$2F
	.byte	$00
	.byte	$00
	.byte	$07
	.byte	$1F
	.byte	$80
	.byte	$08
	.byte	$07
	.byte	$2F
	.byte	$80
	.byte	$80
_cannon_up_right:
	.byte	$00
	.byte	$FF
	.byte	$1C
	.byte	$80
	.byte	$08
	.byte	$FF
	.byte	$1E
	.byte	$80
	.byte	$00
	.byte	$07
	.byte	$1B
	.byte	$80
	.byte	$08
	.byte	$07
	.byte	$1D
	.byte	$80
	.byte	$80
_grarrl_left:
	.byte	$FF
	.byte	$FF
	.byte	$40
	.byte	$02
	.byte	$07
	.byte	$FF
	.byte	$41
	.byte	$02
	.byte	$FF
	.byte	$07
	.byte	$50
	.byte	$02
	.byte	$07
	.byte	$07
	.byte	$51
	.byte	$02
	.byte	$80
_grarrl_backfoot_step0_left:
	.byte	$FF
	.byte	$FF
	.byte	$40
	.byte	$02
	.byte	$07
	.byte	$FF
	.byte	$41
	.byte	$02
	.byte	$FF
	.byte	$07
	.byte	$42
	.byte	$02
	.byte	$07
	.byte	$07
	.byte	$44
	.byte	$02
	.byte	$80
_grarrl_backfoot_step1_left:
	.byte	$FF
	.byte	$FF
	.byte	$40
	.byte	$02
	.byte	$07
	.byte	$FF
	.byte	$41
	.byte	$02
	.byte	$FF
	.byte	$07
	.byte	$43
	.byte	$02
	.byte	$07
	.byte	$07
	.byte	$44
	.byte	$02
	.byte	$80
_grarrl_frontfoot_step0_left:
	.byte	$FF
	.byte	$FF
	.byte	$40
	.byte	$02
	.byte	$07
	.byte	$FF
	.byte	$41
	.byte	$02
	.byte	$FF
	.byte	$07
	.byte	$52
	.byte	$02
	.byte	$07
	.byte	$07
	.byte	$54
	.byte	$02
	.byte	$80
_grarrl_frontfoot_step1_left:
	.byte	$FF
	.byte	$FF
	.byte	$40
	.byte	$02
	.byte	$07
	.byte	$FF
	.byte	$41
	.byte	$02
	.byte	$FF
	.byte	$07
	.byte	$53
	.byte	$02
	.byte	$07
	.byte	$07
	.byte	$54
	.byte	$02
	.byte	$80
_grarrl_right:
	.byte	$07
	.byte	$FF
	.byte	$40
	.byte	$42
	.byte	$FF
	.byte	$FF
	.byte	$41
	.byte	$42
	.byte	$07
	.byte	$07
	.byte	$50
	.byte	$42
	.byte	$FF
	.byte	$07
	.byte	$51
	.byte	$42
	.byte	$80
_grarrl_backfoot_step0_right:
	.byte	$FF
	.byte	$FF
	.byte	$41
	.byte	$42
	.byte	$07
	.byte	$FF
	.byte	$40
	.byte	$42
	.byte	$FF
	.byte	$07
	.byte	$44
	.byte	$42
	.byte	$07
	.byte	$07
	.byte	$42
	.byte	$42
	.byte	$80
_grarrl_backfoot_step1_right:
	.byte	$FF
	.byte	$FF
	.byte	$41
	.byte	$42
	.byte	$07
	.byte	$FF
	.byte	$40
	.byte	$42
	.byte	$FF
	.byte	$07
	.byte	$44
	.byte	$42
	.byte	$07
	.byte	$07
	.byte	$43
	.byte	$42
	.byte	$80
_grarrl_frontfoot_step0_right:
	.byte	$FF
	.byte	$FF
	.byte	$41
	.byte	$42
	.byte	$07
	.byte	$FF
	.byte	$40
	.byte	$42
	.byte	$FF
	.byte	$07
	.byte	$54
	.byte	$42
	.byte	$07
	.byte	$07
	.byte	$52
	.byte	$42
	.byte	$80
_grarrl_frontfoot_step1_right:
	.byte	$FF
	.byte	$FF
	.byte	$41
	.byte	$42
	.byte	$07
	.byte	$FF
	.byte	$40
	.byte	$42
	.byte	$FF
	.byte	$07
	.byte	$54
	.byte	$42
	.byte	$07
	.byte	$07
	.byte	$53
	.byte	$42
	.byte	$80
_acidblob0:
	.byte	$00
	.byte	$FF
	.byte	$28
	.byte	$03
	.byte	$08
	.byte	$FF
	.byte	$28
	.byte	$43
	.byte	$80
_acidblob1:
	.byte	$00
	.byte	$FF
	.byte	$29
	.byte	$03
	.byte	$08
	.byte	$FF
	.byte	$29
	.byte	$43
	.byte	$80
_acidblob2:
	.byte	$00
	.byte	$FF
	.byte	$2A
	.byte	$03
	.byte	$08
	.byte	$FF
	.byte	$2A
	.byte	$43
	.byte	$80
_acidblob3:
	.byte	$00
	.byte	$FF
	.byte	$2B
	.byte	$03
	.byte	$08
	.byte	$FF
	.byte	$2B
	.byte	$43
	.byte	$80
_splyke_tornado0:
	.byte	$FF
	.byte	$FF
	.byte	$60
	.byte	$00
	.byte	$07
	.byte	$FF
	.byte	$61
	.byte	$00
	.byte	$FF
	.byte	$07
	.byte	$70
	.byte	$00
	.byte	$07
	.byte	$07
	.byte	$71
	.byte	$00
	.byte	$80
_splyke_tornado1:
	.byte	$FF
	.byte	$FF
	.byte	$62
	.byte	$00
	.byte	$07
	.byte	$FF
	.byte	$63
	.byte	$00
	.byte	$FF
	.byte	$07
	.byte	$72
	.byte	$00
	.byte	$07
	.byte	$07
	.byte	$73
	.byte	$00
	.byte	$80
_splyke_tornado2:
	.byte	$FF
	.byte	$FF
	.byte	$61
	.byte	$40
	.byte	$07
	.byte	$FF
	.byte	$60
	.byte	$40
	.byte	$FF
	.byte	$07
	.byte	$71
	.byte	$40
	.byte	$07
	.byte	$07
	.byte	$70
	.byte	$40
	.byte	$80
_splyke_idle_left0:
	.byte	$FF
	.byte	$FF
	.byte	$64
	.byte	$00
	.byte	$07
	.byte	$FF
	.byte	$65
	.byte	$00
	.byte	$FF
	.byte	$07
	.byte	$74
	.byte	$00
	.byte	$07
	.byte	$07
	.byte	$75
	.byte	$00
	.byte	$80
_splyke_idle_left1:
	.byte	$FF
	.byte	$FF
	.byte	$64
	.byte	$00
	.byte	$07
	.byte	$FF
	.byte	$65
	.byte	$00
	.byte	$FF
	.byte	$07
	.byte	$76
	.byte	$00
	.byte	$07
	.byte	$07
	.byte	$75
	.byte	$00
	.byte	$80
_splyke_idle_right0:
	.byte	$FF
	.byte	$FF
	.byte	$65
	.byte	$40
	.byte	$07
	.byte	$FF
	.byte	$64
	.byte	$40
	.byte	$FF
	.byte	$07
	.byte	$75
	.byte	$40
	.byte	$07
	.byte	$07
	.byte	$74
	.byte	$40
	.byte	$80
_splyke_idle_right1:
	.byte	$FF
	.byte	$FF
	.byte	$65
	.byte	$40
	.byte	$07
	.byte	$FF
	.byte	$64
	.byte	$40
	.byte	$FF
	.byte	$07
	.byte	$75
	.byte	$40
	.byte	$07
	.byte	$07
	.byte	$76
	.byte	$40
	.byte	$80
_boss_head_eye_open_mouth_closed_left:
	.byte	$FC
	.byte	$FE
	.byte	$3B
	.byte	$00
	.byte	$04
	.byte	$FE
	.byte	$3C
	.byte	$00
	.byte	$FF
	.byte	$06
	.byte	$4D
	.byte	$00
	.byte	$80
_boss_head_eye_open_mouth_closed_right:
	.byte	$0C
	.byte	$FE
	.byte	$3B
	.byte	$40
	.byte	$04
	.byte	$FE
	.byte	$3C
	.byte	$40
	.byte	$09
	.byte	$06
	.byte	$4D
	.byte	$40
	.byte	$80
_boss_head_eye_closed_mouth_closed_left:
	.byte	$FC
	.byte	$FE
	.byte	$3B
	.byte	$00
	.byte	$04
	.byte	$FE
	.byte	$3D
	.byte	$00
	.byte	$FF
	.byte	$06
	.byte	$4D
	.byte	$00
	.byte	$80
_boss_head_eye_closed_mouth_closed_right:
	.byte	$0C
	.byte	$FE
	.byte	$3B
	.byte	$40
	.byte	$04
	.byte	$FE
	.byte	$3D
	.byte	$40
	.byte	$09
	.byte	$06
	.byte	$4D
	.byte	$40
	.byte	$80
_boss_body_idle_left0:
	.byte	$00
	.byte	$00
	.byte	$3E
	.byte	$02
	.byte	$08
	.byte	$00
	.byte	$3F
	.byte	$02
	.byte	$00
	.byte	$08
	.byte	$4E
	.byte	$02
	.byte	$08
	.byte	$08
	.byte	$4F
	.byte	$02
	.byte	$80
_boss_body_idle_right0:
	.byte	$08
	.byte	$00
	.byte	$3E
	.byte	$42
	.byte	$00
	.byte	$00
	.byte	$3F
	.byte	$42
	.byte	$08
	.byte	$08
	.byte	$4E
	.byte	$42
	.byte	$00
	.byte	$08
	.byte	$4F
	.byte	$42
	.byte	$80
_boss_body_flying_left0:
	.byte	$00
	.byte	$00
	.byte	$5E
	.byte	$02
	.byte	$08
	.byte	$00
	.byte	$5F
	.byte	$02
	.byte	$00
	.byte	$08
	.byte	$6E
	.byte	$02
	.byte	$08
	.byte	$08
	.byte	$6E
	.byte	$42
	.byte	$80
_boss_body_flying_right0:
	.byte	$08
	.byte	$00
	.byte	$5E
	.byte	$42
	.byte	$00
	.byte	$00
	.byte	$5F
	.byte	$42
	.byte	$08
	.byte	$08
	.byte	$6E
	.byte	$42
	.byte	$00
	.byte	$08
	.byte	$6E
	.byte	$02
	.byte	$80
_boss_body_flying_left1:
	.byte	$00
	.byte	$00
	.byte	$5E
	.byte	$02
	.byte	$08
	.byte	$00
	.byte	$5F
	.byte	$02
	.byte	$00
	.byte	$08
	.byte	$6D
	.byte	$02
	.byte	$08
	.byte	$08
	.byte	$6F
	.byte	$42
	.byte	$80
_boss_body_flying_right1:
	.byte	$08
	.byte	$00
	.byte	$5E
	.byte	$42
	.byte	$00
	.byte	$00
	.byte	$5F
	.byte	$42
	.byte	$08
	.byte	$08
	.byte	$6D
	.byte	$42
	.byte	$00
	.byte	$08
	.byte	$6F
	.byte	$02
	.byte	$80
_boss_body_flying_left2:
	.byte	$00
	.byte	$00
	.byte	$5E
	.byte	$02
	.byte	$08
	.byte	$00
	.byte	$5F
	.byte	$02
	.byte	$00
	.byte	$08
	.byte	$6F
	.byte	$02
	.byte	$08
	.byte	$08
	.byte	$6D
	.byte	$42
	.byte	$80
_boss_body_flying_right2:
	.byte	$08
	.byte	$00
	.byte	$5E
	.byte	$42
	.byte	$00
	.byte	$00
	.byte	$5F
	.byte	$42
	.byte	$08
	.byte	$08
	.byte	$6F
	.byte	$42
	.byte	$00
	.byte	$08
	.byte	$6D
	.byte	$02
	.byte	$80
_boss_body_flying_left3:
	.byte	$00
	.byte	$00
	.byte	$5E
	.byte	$02
	.byte	$08
	.byte	$00
	.byte	$5F
	.byte	$02
	.byte	$00
	.byte	$08
	.byte	$7F
	.byte	$02
	.byte	$08
	.byte	$08
	.byte	$7F
	.byte	$42
	.byte	$80
_boss_body_flying_right3:
	.byte	$08
	.byte	$00
	.byte	$5E
	.byte	$42
	.byte	$00
	.byte	$00
	.byte	$5F
	.byte	$42
	.byte	$08
	.byte	$08
	.byte	$7F
	.byte	$42
	.byte	$00
	.byte	$08
	.byte	$7F
	.byte	$02
	.byte	$80
_purple_death_effect0:
	.byte	$FF
	.byte	$FF
	.byte	$2C
	.byte	$02
	.byte	$07
	.byte	$FF
	.byte	$2C
	.byte	$42
	.byte	$FF
	.byte	$07
	.byte	$2C
	.byte	$82
	.byte	$07
	.byte	$07
	.byte	$2C
	.byte	$C2
	.byte	$80
_purple_death_effect1:
	.byte	$FF
	.byte	$FF
	.byte	$2D
	.byte	$02
	.byte	$07
	.byte	$FF
	.byte	$2D
	.byte	$42
	.byte	$FF
	.byte	$07
	.byte	$2D
	.byte	$82
	.byte	$07
	.byte	$07
	.byte	$2D
	.byte	$C2
	.byte	$80
_splyke_death_effect0:
	.byte	$FF
	.byte	$FF
	.byte	$2C
	.byte	$00
	.byte	$07
	.byte	$FF
	.byte	$2C
	.byte	$40
	.byte	$FF
	.byte	$07
	.byte	$2C
	.byte	$80
	.byte	$07
	.byte	$07
	.byte	$2C
	.byte	$C0
	.byte	$80
_splyke_death_effect1:
	.byte	$FF
	.byte	$FF
	.byte	$2E
	.byte	$00
	.byte	$07
	.byte	$FF
	.byte	$2E
	.byte	$40
	.byte	$FF
	.byte	$07
	.byte	$2E
	.byte	$80
	.byte	$07
	.byte	$07
	.byte	$2E
	.byte	$C0
	.byte	$80
_energy_bar_0:
	.byte	$00
	.byte	$03
	.byte	$0A
	.byte	$81
	.byte	$00
	.byte	$08
	.byte	$0A
	.byte	$01
	.byte	$00
	.byte	$10
	.byte	$0A
	.byte	$01
	.byte	$00
	.byte	$18
	.byte	$0A
	.byte	$01
	.byte	$80
_energy_bar_1:
	.byte	$00
	.byte	$03
	.byte	$0A
	.byte	$81
	.byte	$00
	.byte	$08
	.byte	$0A
	.byte	$01
	.byte	$00
	.byte	$10
	.byte	$0A
	.byte	$01
	.byte	$00
	.byte	$18
	.byte	$0B
	.byte	$01
	.byte	$80
_energy_bar_2:
	.byte	$00
	.byte	$03
	.byte	$0A
	.byte	$81
	.byte	$00
	.byte	$08
	.byte	$0A
	.byte	$01
	.byte	$00
	.byte	$10
	.byte	$0A
	.byte	$01
	.byte	$00
	.byte	$18
	.byte	$0C
	.byte	$01
	.byte	$80
_energy_bar_3:
	.byte	$00
	.byte	$03
	.byte	$0A
	.byte	$81
	.byte	$00
	.byte	$08
	.byte	$0A
	.byte	$01
	.byte	$00
	.byte	$10
	.byte	$0A
	.byte	$01
	.byte	$00
	.byte	$18
	.byte	$0D
	.byte	$01
	.byte	$80
_energy_bar_4:
	.byte	$00
	.byte	$03
	.byte	$0A
	.byte	$81
	.byte	$00
	.byte	$08
	.byte	$0A
	.byte	$01
	.byte	$00
	.byte	$10
	.byte	$0F
	.byte	$01
	.byte	$00
	.byte	$18
	.byte	$0E
	.byte	$01
	.byte	$80
_energy_bar_5:
	.byte	$00
	.byte	$03
	.byte	$0A
	.byte	$81
	.byte	$00
	.byte	$08
	.byte	$0A
	.byte	$01
	.byte	$00
	.byte	$10
	.byte	$0B
	.byte	$01
	.byte	$00
	.byte	$18
	.byte	$0E
	.byte	$01
	.byte	$80
_energy_bar_6:
	.byte	$00
	.byte	$03
	.byte	$0A
	.byte	$81
	.byte	$00
	.byte	$08
	.byte	$0A
	.byte	$01
	.byte	$00
	.byte	$10
	.byte	$0C
	.byte	$01
	.byte	$00
	.byte	$18
	.byte	$0E
	.byte	$01
	.byte	$80
_energy_bar_7:
	.byte	$00
	.byte	$03
	.byte	$0A
	.byte	$81
	.byte	$00
	.byte	$08
	.byte	$0A
	.byte	$01
	.byte	$00
	.byte	$10
	.byte	$0D
	.byte	$01
	.byte	$00
	.byte	$18
	.byte	$0E
	.byte	$01
	.byte	$80
_energy_bar_8:
	.byte	$00
	.byte	$03
	.byte	$0A
	.byte	$81
	.byte	$00
	.byte	$08
	.byte	$0F
	.byte	$01
	.byte	$00
	.byte	$10
	.byte	$0E
	.byte	$01
	.byte	$00
	.byte	$18
	.byte	$0E
	.byte	$01
	.byte	$80
_energy_bar_9:
	.byte	$00
	.byte	$03
	.byte	$0A
	.byte	$81
	.byte	$00
	.byte	$08
	.byte	$0B
	.byte	$01
	.byte	$00
	.byte	$10
	.byte	$0E
	.byte	$01
	.byte	$00
	.byte	$18
	.byte	$0E
	.byte	$01
	.byte	$80
_energy_bar_a:
	.byte	$00
	.byte	$03
	.byte	$0A
	.byte	$81
	.byte	$00
	.byte	$08
	.byte	$0C
	.byte	$01
	.byte	$00
	.byte	$10
	.byte	$0E
	.byte	$01
	.byte	$00
	.byte	$18
	.byte	$0E
	.byte	$01
	.byte	$80
_energy_bar_b:
	.byte	$00
	.byte	$03
	.byte	$FF
	.byte	$01
	.byte	$00
	.byte	$04
	.byte	$0B
	.byte	$01
	.byte	$00
	.byte	$08
	.byte	$0D
	.byte	$01
	.byte	$00
	.byte	$10
	.byte	$0E
	.byte	$01
	.byte	$00
	.byte	$18
	.byte	$0E
	.byte	$01
	.byte	$80
_energy_bar_c:
	.byte	$00
	.byte	$03
	.byte	$FF
	.byte	$01
	.byte	$00
	.byte	$04
	.byte	$0C
	.byte	$01
	.byte	$00
	.byte	$08
	.byte	$0E
	.byte	$01
	.byte	$00
	.byte	$10
	.byte	$0E
	.byte	$01
	.byte	$00
	.byte	$18
	.byte	$0E
	.byte	$01
	.byte	$80
_energy_bar_d:
	.byte	$00
	.byte	$03
	.byte	$FF
	.byte	$01
	.byte	$00
	.byte	$04
	.byte	$0D
	.byte	$01
	.byte	$00
	.byte	$08
	.byte	$0E
	.byte	$01
	.byte	$00
	.byte	$10
	.byte	$0E
	.byte	$01
	.byte	$00
	.byte	$18
	.byte	$0E
	.byte	$01
	.byte	$80
_energy_bar_e:
	.byte	$00
	.byte	$03
	.byte	$0E
	.byte	$81
	.byte	$00
	.byte	$08
	.byte	$0E
	.byte	$01
	.byte	$00
	.byte	$10
	.byte	$0E
	.byte	$01
	.byte	$00
	.byte	$18
	.byte	$0E
	.byte	$01
	.byte	$80
_energy_bar_f:
	.byte	$00
	.byte	$01
	.byte	$0E
	.byte	$81
	.byte	$00
	.byte	$08
	.byte	$0E
	.byte	$01
	.byte	$00
	.byte	$10
	.byte	$0E
	.byte	$01
	.byte	$00
	.byte	$18
	.byte	$0E
	.byte	$01
	.byte	$80
.segment	"RODATA"
.segment	"BANK0"
_level01_enemy:
	.byte	$61
	.byte	$02
	.byte	$02
	.byte	$75
	.byte	$01
	.byte	$02
	.byte	$60
	.byte	$01
	.byte	$02
	.byte	$FF
_level01:
	.byte	$4C
	.byte	$5A
	.byte	$47
	.byte	$00
	.byte	$00
	.byte	$02
	.byte	$D0
	.byte	$00
	.byte	$00
	.byte	$00
	.byte	$FF
	.byte	$BE
	.byte	$95
	.byte	$22
	.byte	$A4
	.byte	$01
	.byte	$00
	.byte	$02
	.byte	$0B
	.byte	$0F
	.byte	$04
	.byte	$07
	.byte	$0F
	.byte	$07
	.byte	$06
	.byte	$2C
	.byte	$0F
	.byte	$01
	.byte	$0F
	.byte	$83
	.byte	$0F
	.byte	$04
	.byte	$0E
	.byte	$02
	.byte	$1E
	.byte	$08
	.byte	$02
	.byte	$0B
	.byte	$08
	.byte	$2A
	.byte	$0F
	.byte	$02
	.byte	$02
	.byte	$09
	.byte	$08
	.byte	$17
	.byte	$19
	.byte	$02
	.byte	$0C
	.byte	$08
	.byte	$18
	.byte	$18
	.byte	$02
	.byte	$0B
	.byte	$08
	.byte	$04
	.byte	$0D
	.byte	$0F
	.byte	$01
	.byte	$15
	.byte	$02
	.byte	$09
	.byte	$18
	.byte	$01
	.byte	$0F
	.byte	$02
	.byte	$2C
	.byte	$2C
	.byte	$26
	.byte	$24
	.byte	$27
	.byte	$02
	.byte	$0A
	.byte	$58
	.byte	$03
	.byte	$14
	.byte	$0D
	.byte	$0D
	.byte	$0B
	.byte	$83
	.byte	$02
	.byte	$03
	.byte	$58
	.byte	$0F
	.byte	$E1
	.byte	$0B
	.byte	$1D
	.byte	$0B
	.byte	$D8
	.byte	$2A
	.byte	$1C
	.byte	$1D
	.byte	$0F
	.byte	$41
	.byte	$02
	.byte	$09
	.byte	$78
	.byte	$1E
	.byte	$1F
	.byte	$0F
	.byte	$41
	.byte	$02
	.byte	$0C
	.byte	$88
	.byte	$2C
	.byte	$0B
	.byte	$36
	.byte	$02
	.byte	$06
	.byte	$38
	.byte	$0B
	.byte	$24
	.byte	$0B
	.byte	$E7
	.byte	$02
	.byte	$05
	.byte	$18
	.byte	$0B
	.byte	$24
	.byte	$0B
	.byte	$E7
	.byte	$02
	.byte	$06
	.byte	$88
	.byte	$15
	.byte	$2C
	.byte	$14
	.byte	$02
	.byte	$0C
	.byte	$88
	.byte	$2C
	.byte	$0F
	.byte	$41
	.byte	$02
	.byte	$08
	.byte	$08
	.byte	$0B
	.byte	$83
	.byte	$0B
	.byte	$9B
	.byte	$02
	.byte	$07
	.byte	$08
	.byte	$26
	.byte	$27
	.byte	$02
	.byte	$0C
	.byte	$18
	.byte	$02
	.byte	$0B
	.byte	$38
	.byte	$0B
	.byte	$E8
	.byte	$02
	.byte	$17
	.byte	$08
	.byte	$04
	.byte	$02
	.byte	$06
	.byte	$F6
	.byte	$02
	.byte	$3D
	.byte	$68
	.byte	$02
	.byte	$0B
	.byte	$08
	.byte	$02
	.byte	$03
	.byte	$CD
	.byte	$02
	.byte	$09
	.byte	$08
	.byte	$02
	.byte	$03
	.byte	$CD
	.byte	$02
	.byte	$05
	.byte	$08
	.byte	$28
	.byte	$16
	.byte	$28
	.byte	$02
	.byte	$03
	.byte	$F8
	.byte	$05
	.byte	$02
	.byte	$25
	.byte	$F8
	.byte	$25
	.byte	$0B
	.byte	$F6
	.byte	$2C
	.byte	$08
	.byte	$0B
	.byte	$C8
	.byte	$26
	.byte	$24
	.byte	$02
	.byte	$04
	.byte	$B6
	.byte	$02
	.byte	$05
	.byte	$08
	.byte	$04
	.byte	$05
	.byte	$0F
	.byte	$02
	.byte	$09
	.byte	$02
	.byte	$08
	.byte	$08
	.byte	$0F
	.byte	$04
	.byte	$15
	.byte	$02
	.byte	$0C
	.byte	$08
	.byte	$0A
	.byte	$02
	.byte	$0C
	.byte	$18
	.byte	$0B
	.byte	$07
	.byte	$28
	.byte	$02
	.byte	$09
	.byte	$08
	.byte	$0B
	.byte	$56
	.byte	$02
	.byte	$07
	.byte	$18
	.byte	$07
	.byte	$07
	.byte	$0B
	.byte	$96
	.byte	$2C
	.byte	$0C
	.byte	$04
	.byte	$02
	.byte	$4B
	.byte	$78
	.byte	$0C
	.byte	$04
	.byte	$02
	.byte	$06
	.byte	$08
	.byte	$28
	.byte	$20
	.byte	$21
	.byte	$28
	.byte	$0B
	.byte	$47
	.byte	$02
	.byte	$05
	.byte	$08
	.byte	$26
	.byte	$27
	.byte	$22
	.byte	$23
	.byte	$0B
	.byte	$87
	.byte	$0B
	.byte	$C8
	.byte	$02
	.byte	$04
	.byte	$88
	.byte	$0B
	.byte	$47
	.byte	$0B
	.byte	$C8
.segment	"RODATA"
.segment	"BANK0"
_level02_enemy:
	.byte	$8D
	.byte	$02
	.byte	$02
	.byte	$87
	.byte	$02
	.byte	$02
	.byte	$41
	.byte	$02
	.byte	$02
	.byte	$71
	.byte	$02
	.byte	$02
	.byte	$66
	.byte	$01
	.byte	$02
	.byte	$41
	.byte	$01
	.byte	$02
	.byte	$5D
	.byte	$00
	.byte	$02
	.byte	$FF
_level02:
	.byte	$4C
	.byte	$5A
	.byte	$47
	.byte	$00
	.byte	$00
	.byte	$02
	.byte	$D0
	.byte	$00
	.byte	$00
	.byte	$01
	.byte	$31
	.byte	$7F
	.byte	$32
	.byte	$27
	.byte	$EA
	.byte	$01
	.byte	$09
	.byte	$10
	.byte	$11
	.byte	$12
	.byte	$04
	.byte	$07
	.byte	$12
	.byte	$07
	.byte	$06
	.byte	$2C
	.byte	$12
	.byte	$01
	.byte	$12
	.byte	$83
	.byte	$12
	.byte	$04
	.byte	$0E
	.byte	$10
	.byte	$1D
	.byte	$08
	.byte	$10
	.byte	$13
	.byte	$08
	.byte	$17
	.byte	$19
	.byte	$11
	.byte	$85
	.byte	$0C
	.byte	$0D
	.byte	$0D
	.byte	$11
	.byte	$93
	.byte	$06
	.byte	$18
	.byte	$18
	.byte	$2C
	.byte	$2C
	.byte	$1C
	.byte	$1D
	.byte	$11
	.byte	$55
	.byte	$11
	.byte	$98
	.byte	$04
	.byte	$0D
	.byte	$0D
	.byte	$15
	.byte	$2C
	.byte	$1E
	.byte	$1F
	.byte	$11
	.byte	$05
	.byte	$16
	.byte	$11
	.byte	$E8
	.byte	$2A
	.byte	$12
	.byte	$04
	.byte	$10
	.byte	$06
	.byte	$18
	.byte	$10
	.byte	$10
	.byte	$08
	.byte	$00
	.byte	$2A
	.byte	$2A
	.byte	$1C
	.byte	$1D
	.byte	$11
	.byte	$08
	.byte	$14
	.byte	$10
	.byte	$04
	.byte	$48
	.byte	$03
	.byte	$0F
	.byte	$02
	.byte	$11
	.byte	$F8
	.byte	$10
	.byte	$06
	.byte	$78
	.byte	$01
	.byte	$10
	.byte	$06
	.byte	$75
	.byte	$10
	.byte	$08
	.byte	$88
	.byte	$14
	.byte	$15
	.byte	$10
	.byte	$0C
	.byte	$08
	.byte	$11
	.byte	$98
	.byte	$10
	.byte	$05
	.byte	$38
	.byte	$10
	.byte	$08
	.byte	$A5
	.byte	$10
	.byte	$06
	.byte	$88
	.byte	$0D
	.byte	$15
	.byte	$00
	.byte	$10
	.byte	$09
	.byte	$38
	.byte	$01
	.byte	$01
	.byte	$2C
	.byte	$10
	.byte	$02
	.byte	$5B
	.byte	$10
	.byte	$09
	.byte	$88
	.byte	$2C
	.byte	$0F
	.byte	$01
	.byte	$0F
	.byte	$10
	.byte	$0B
	.byte	$08
	.byte	$10
	.byte	$0B
	.byte	$68
	.byte	$00
	.byte	$00
	.byte	$2C
	.byte	$26
	.byte	$27
	.byte	$10
	.byte	$0A
	.byte	$48
	.byte	$15
	.byte	$2C
	.byte	$14
	.byte	$12
	.byte	$61
	.byte	$08
	.byte	$10
	.byte	$03
	.byte	$7B
	.byte	$10
	.byte	$10
	.byte	$68
	.byte	$11
	.byte	$08
	.byte	$25
	.byte	$10
	.byte	$0D
	.byte	$08
	.byte	$2F
	.byte	$02
	.byte	$10
	.byte	$0A
	.byte	$08
	.byte	$2A
	.byte	$2A
	.byte	$0E
	.byte	$10
	.byte	$14
	.byte	$08
	.byte	$10
	.byte	$05
	.byte	$B8
	.byte	$00
	.byte	$00
	.byte	$11
	.byte	$48
	.byte	$26
	.byte	$10
	.byte	$09
	.byte	$B8
	.byte	$07
	.byte	$15
	.byte	$2C
	.byte	$2C
	.byte	$14
	.byte	$0A
	.byte	$10
	.byte	$08
	.byte	$48
	.byte	$1C
	.byte	$1D
	.byte	$12
	.byte	$64
	.byte	$10
	.byte	$06
	.byte	$08
	.byte	$1E
	.byte	$1F
	.byte	$12
	.byte	$64
	.byte	$10
	.byte	$08
	.byte	$E8
	.byte	$1C
	.byte	$1D
	.byte	$14
	.byte	$12
	.byte	$C1
	.byte	$10
	.byte	$27
	.byte	$08
	.byte	$28
	.byte	$1E
	.byte	$1F
	.byte	$28
	.byte	$10
	.byte	$04
	.byte	$6B
	.byte	$11
	.byte	$88
	.byte	$29
	.byte	$12
	.byte	$E2
	.byte	$12
	.byte	$81
	.byte	$10
	.byte	$05
	.byte	$08
	.byte	$0C
	.byte	$05
	.byte	$05
	.byte	$0D
	.byte	$05
	.byte	$12
	.byte	$62
	.byte	$10
	.byte	$05
	.byte	$28
	.byte	$0B
	.byte	$07
	.byte	$0A
	.byte	$01
	.byte	$12
	.byte	$63
	.byte	$10
	.byte	$28
	.byte	$48
	.byte	$11
	.byte	$AA
	.byte	$11
	.byte	$E8
	.byte	$04
	.byte	$11
	.byte	$23
	.byte	$11
	.byte	$25
	.byte	$0D
	.byte	$15
	.byte	$10
	.byte	$06
	.byte	$08
	.byte	$12
	.byte	$02
	.byte	$0A
	.byte	$10
	.byte	$09
	.byte	$18
	.byte	$10
	.byte	$07
	.byte	$07
	.byte	$10
	.byte	$07
	.byte	$08
	.byte	$11
	.byte	$87
	.byte	$16
	.byte	$10
	.byte	$07
	.byte	$08
	.byte	$0A
	.byte	$2C
	.byte	$28
	.byte	$20
	.byte	$21
	.byte	$28
	.byte	$2C
	.byte	$28
	.byte	$10
	.byte	$05
	.byte	$08
	.byte	$10
	.byte	$02
	.byte	$59
	.byte	$22
	.byte	$23
	.byte	$10
	.byte	$09
	.byte	$28
	.byte	$10
	.byte	$03
	.byte	$59
	.byte	$12
	.byte	$02
	.byte	$11
	.byte	$52
	.byte	$2C
.segment	"RODATA"
.segment	"BANK0"
_level03_enemy:
	.byte	$3A
	.byte	$02
	.byte	$01
	.byte	$7A
	.byte	$02
	.byte	$01
	.byte	$7D
	.byte	$02
	.byte	$02
	.byte	$91
	.byte	$01
	.byte	$01
	.byte	$FF
_level03:
	.byte	$4C
	.byte	$5A
	.byte	$47
	.byte	$00
	.byte	$00
	.byte	$02
	.byte	$D0
	.byte	$00
	.byte	$00
	.byte	$01
	.byte	$14
	.byte	$EC
	.byte	$F3
	.byte	$23
	.byte	$9B
	.byte	$01
	.byte	$0E
	.byte	$10
	.byte	$11
	.byte	$12
	.byte	$04
	.byte	$04
	.byte	$12
	.byte	$07
	.byte	$06
	.byte	$2C
	.byte	$12
	.byte	$01
	.byte	$10
	.byte	$08
	.byte	$07
	.byte	$10
	.byte	$1E
	.byte	$08
	.byte	$07
	.byte	$12
	.byte	$05
	.byte	$10
	.byte	$05
	.byte	$08
	.byte	$06
	.byte	$2A
	.byte	$12
	.byte	$05
	.byte	$08
	.byte	$10
	.byte	$0B
	.byte	$08
	.byte	$17
	.byte	$19
	.byte	$10
	.byte	$06
	.byte	$08
	.byte	$12
	.byte	$A2
	.byte	$2C
	.byte	$2C
	.byte	$18
	.byte	$18
	.byte	$10
	.byte	$0B
	.byte	$08
	.byte	$14
	.byte	$0D
	.byte	$0D
	.byte	$10
	.byte	$06
	.byte	$38
	.byte	$11
	.byte	$D8
	.byte	$2C
	.byte	$2C
	.byte	$10
	.byte	$0C
	.byte	$28
	.byte	$10
	.byte	$19
	.byte	$08
	.byte	$03
	.byte	$0F
	.byte	$02
	.byte	$10
	.byte	$0A
	.byte	$08
	.byte	$1C
	.byte	$1D
	.byte	$01
	.byte	$2C
	.byte	$1C
	.byte	$1D
	.byte	$10
	.byte	$08
	.byte	$08
	.byte	$1E
	.byte	$1F
	.byte	$2A
	.byte	$2C
	.byte	$1E
	.byte	$1F
	.byte	$10
	.byte	$09
	.byte	$28
	.byte	$2A
	.byte	$2A
	.byte	$2A
	.byte	$2C
	.byte	$0F
	.byte	$10
	.byte	$0A
	.byte	$48
	.byte	$2A
	.byte	$2C
	.byte	$2C
	.byte	$01
	.byte	$10
	.byte	$0A
	.byte	$08
	.byte	$00
	.byte	$10
	.byte	$1B
	.byte	$58
	.byte	$11
	.byte	$A5
	.byte	$10
	.byte	$0A
	.byte	$08
	.byte	$26
	.byte	$27
	.byte	$1C
	.byte	$1D
	.byte	$28
	.byte	$10
	.byte	$08
	.byte	$08
	.byte	$26
	.byte	$24
	.byte	$12
	.byte	$01
	.byte	$27
	.byte	$10
	.byte	$07
	.byte	$08
	.byte	$04
	.byte	$05
	.byte	$12
	.byte	$02
	.byte	$09
	.byte	$10
	.byte	$08
	.byte	$08
	.byte	$10
	.byte	$23
	.byte	$25
	.byte	$0A
	.byte	$10
	.byte	$08
	.byte	$28
	.byte	$16
	.byte	$10
	.byte	$1B
	.byte	$D8
	.byte	$04
	.byte	$06
	.byte	$00
	.byte	$00
	.byte	$10
	.byte	$02
	.byte	$88
	.byte	$00
	.byte	$00
	.byte	$10
	.byte	$08
	.byte	$48
	.byte	$09
	.byte	$1C
	.byte	$1D
	.byte	$0C
	.byte	$05
	.byte	$05
	.byte	$10
	.byte	$28
	.byte	$88
	.byte	$0A
	.byte	$1E
	.byte	$1F
	.byte	$0B
	.byte	$10
	.byte	$29
	.byte	$98
	.byte	$0A
	.byte	$12
	.byte	$E2
	.byte	$11
	.byte	$09
	.byte	$10
	.byte	$05
	.byte	$08
	.byte	$0A
	.byte	$2A
	.byte	$10
	.byte	$03
	.byte	$C9
	.byte	$0B
	.byte	$10
	.byte	$28
	.byte	$98
	.byte	$2C
	.byte	$0F
	.byte	$11
	.byte	$49
	.byte	$10
	.byte	$0A
	.byte	$68
	.byte	$11
	.byte	$49
	.byte	$10
	.byte	$06
	.byte	$58
	.byte	$0D
	.byte	$15
	.byte	$11
	.byte	$49
	.byte	$10
	.byte	$2A
	.byte	$48
	.byte	$28
	.byte	$2C
	.byte	$2C
	.byte	$28
	.byte	$1C
	.byte	$1D
	.byte	$10
	.byte	$28
	.byte	$48
	.byte	$12
	.byte	$E2
	.byte	$1E
	.byte	$1F
	.byte	$10
	.byte	$07
	.byte	$88
	.byte	$11
	.byte	$69
	.byte	$14
	.byte	$0D
	.byte	$10
	.byte	$07
	.byte	$88
	.byte	$0A
	.byte	$2A
	.byte	$2A
	.byte	$2C
	.byte	$2C
	.byte	$2A
	.byte	$2A
	.byte	$10
	.byte	$08
	.byte	$68
	.byte	$10
	.byte	$04
	.byte	$C7
	.byte	$10
	.byte	$47
	.byte	$08
	.byte	$10
	.byte	$0D
	.byte	$D8
	.byte	$04
	.byte	$05
	.byte	$09
	.byte	$20
	.byte	$21
	.byte	$28
	.byte	$2C
	.byte	$0C
	.byte	$10
	.byte	$08
	.byte	$C8
	.byte	$06
	.byte	$22
	.byte	$23
	.byte	$11
	.byte	$16
	.byte	$10
	.byte	$49
	.byte	$68
	.byte	$10
	.byte	$22
	.byte	$39
	.byte	$10
	.byte	$06
	.byte	$D8
.segment	"RODATA"
.segment	"BANK0"
_level04_enemy:
	.byte	$49
	.byte	$02
	.byte	$02
	.byte	$89
	.byte	$02
	.byte	$02
	.byte	$75
	.byte	$02
	.byte	$02
	.byte	$45
	.byte	$02
	.byte	$02
	.byte	$5D
	.byte	$01
	.byte	$02
	.byte	$88
	.byte	$01
	.byte	$01
	.byte	$37
	.byte	$01
	.byte	$01
	.byte	$FF
_level04:
	.byte	$4C
	.byte	$5A
	.byte	$47
	.byte	$00
	.byte	$00
	.byte	$02
	.byte	$D0
	.byte	$00
	.byte	$00
	.byte	$01
	.byte	$11
	.byte	$1A
	.byte	$F6
	.byte	$1F
	.byte	$B7
	.byte	$01
	.byte	$0F
	.byte	$10
	.byte	$11
	.byte	$15
	.byte	$04
	.byte	$04
	.byte	$15
	.byte	$07
	.byte	$06
	.byte	$2C
	.byte	$15
	.byte	$01
	.byte	$10
	.byte	$08
	.byte	$07
	.byte	$10
	.byte	$1D
	.byte	$08
	.byte	$10
	.byte	$05
	.byte	$08
	.byte	$07
	.byte	$15
	.byte	$01
	.byte	$10
	.byte	$09
	.byte	$08
	.byte	$15
	.byte	$83
	.byte	$08
	.byte	$04
	.byte	$11
	.byte	$4F
	.byte	$10
	.byte	$0A
	.byte	$08
	.byte	$15
	.byte	$C2
	.byte	$0E
	.byte	$10
	.byte	$0A
	.byte	$08
	.byte	$16
	.byte	$2C
	.byte	$16
	.byte	$10
	.byte	$06
	.byte	$08
	.byte	$17
	.byte	$19
	.byte	$10
	.byte	$0C
	.byte	$18
	.byte	$18
	.byte	$18
	.byte	$10
	.byte	$0B
	.byte	$08
	.byte	$0C
	.byte	$05
	.byte	$05
	.byte	$04
	.byte	$04
	.byte	$04
	.byte	$05
	.byte	$09
	.byte	$10
	.byte	$06
	.byte	$08
	.byte	$08
	.byte	$10
	.byte	$06
	.byte	$66
	.byte	$10
	.byte	$0C
	.byte	$08
	.byte	$0A
	.byte	$10
	.byte	$0C
	.byte	$08
	.byte	$11
	.byte	$39
	.byte	$10
	.byte	$05
	.byte	$08
	.byte	$0B
	.byte	$11
	.byte	$D8
	.byte	$10
	.byte	$07
	.byte	$38
	.byte	$2A
	.byte	$10
	.byte	$06
	.byte	$19
	.byte	$10
	.byte	$15
	.byte	$08
	.byte	$14
	.byte	$10
	.byte	$0D
	.byte	$58
	.byte	$01
	.byte	$11
	.byte	$F9
	.byte	$10
	.byte	$07
	.byte	$08
	.byte	$10
	.byte	$05
	.byte	$09
	.byte	$10
	.byte	$08
	.byte	$08
	.byte	$11
	.byte	$09
	.byte	$10
	.byte	$03
	.byte	$E6
	.byte	$10
	.byte	$08
	.byte	$D8
	.byte	$15
	.byte	$02
	.byte	$30
	.byte	$10
	.byte	$0D
	.byte	$08
	.byte	$10
	.byte	$07
	.byte	$88
	.byte	$12
	.byte	$2E
	.byte	$15
	.byte	$03
	.byte	$13
	.byte	$10
	.byte	$07
	.byte	$D8
	.byte	$09
	.byte	$15
	.byte	$C1
	.byte	$0C
	.byte	$05
	.byte	$09
	.byte	$00
	.byte	$10
	.byte	$06
	.byte	$A8
	.byte	$0A
	.byte	$2C
	.byte	$16
	.byte	$2C
	.byte	$0B
	.byte	$07
	.byte	$07
	.byte	$0D
	.byte	$10
	.byte	$25
	.byte	$38
	.byte	$01
	.byte	$01
	.byte	$10
	.byte	$0C
	.byte	$38
	.byte	$2C
	.byte	$2C
	.byte	$26
	.byte	$27
	.byte	$10
	.byte	$0C
	.byte	$08
	.byte	$11
	.byte	$35
	.byte	$10
	.byte	$0A
	.byte	$08
	.byte	$03
	.byte	$0B
	.byte	$07
	.byte	$0A
	.byte	$02
	.byte	$10
	.byte	$0A
	.byte	$18
	.byte	$01
	.byte	$11
	.byte	$FB
	.byte	$10
	.byte	$15
	.byte	$88
	.byte	$10
	.byte	$0F
	.byte	$08
	.byte	$28
	.byte	$1C
	.byte	$1D
	.byte	$28
	.byte	$10
	.byte	$0A
	.byte	$08
	.byte	$26
	.byte	$24
	.byte	$24
	.byte	$10
	.byte	$03
	.byte	$69
	.byte	$11
	.byte	$88
	.byte	$04
	.byte	$05
	.byte	$15
	.byte	$04
	.byte	$09
	.byte	$10
	.byte	$06
	.byte	$08
	.byte	$10
	.byte	$22
	.byte	$F8
	.byte	$15
	.byte	$01
	.byte	$0A
	.byte	$10
	.byte	$09
	.byte	$48
	.byte	$10
	.byte	$05
	.byte	$39
	.byte	$10
	.byte	$08
	.byte	$58
	.byte	$1E
	.byte	$1F
	.byte	$10
	.byte	$0A
	.byte	$48
	.byte	$0C
	.byte	$11
	.byte	$FA
	.byte	$05
	.byte	$10
	.byte	$46
	.byte	$18
	.byte	$10
	.byte	$22
	.byte	$36
	.byte	$15
	.byte	$02
	.byte	$10
	.byte	$05
	.byte	$08
	.byte	$28
	.byte	$20
	.byte	$21
	.byte	$11
	.byte	$76
	.byte	$10
	.byte	$08
	.byte	$28
	.byte	$22
	.byte	$23
	.byte	$2C
	.byte	$2C
	.byte	$29
	.byte	$15
	.byte	$41
	.byte	$10
	.byte	$0B
	.byte	$78
	.byte	$10
	.byte	$06
	.byte	$38
.segment	"RODATA"
.segment	"BANK0"
_level05_enemy:
	.byte	$88
	.byte	$02
	.byte	$01
	.byte	$59
	.byte	$02
	.byte	$05
	.byte	$81
	.byte	$02
	.byte	$01
	.byte	$4A
	.byte	$01
	.byte	$01
	.byte	$47
	.byte	$01
	.byte	$01
	.byte	$69
	.byte	$01
	.byte	$05
	.byte	$70
	.byte	$01
	.byte	$01
	.byte	$FF
_level05:
	.byte	$4C
	.byte	$5A
	.byte	$47
	.byte	$00
	.byte	$00
	.byte	$02
	.byte	$D0
	.byte	$00
	.byte	$00
	.byte	$00
	.byte	$DA
	.byte	$B1
	.byte	$0E
	.byte	$15
	.byte	$47
	.byte	$01
	.byte	$02
	.byte	$03
	.byte	$09
	.byte	$0C
	.byte	$04
	.byte	$04
	.byte	$0C
	.byte	$07
	.byte	$06
	.byte	$2C
	.byte	$0C
	.byte	$01
	.byte	$03
	.byte	$08
	.byte	$07
	.byte	$03
	.byte	$1E
	.byte	$08
	.byte	$04
	.byte	$04
	.byte	$07
	.byte	$0C
	.byte	$01
	.byte	$03
	.byte	$09
	.byte	$08
	.byte	$06
	.byte	$01
	.byte	$0C
	.byte	$01
	.byte	$08
	.byte	$03
	.byte	$09
	.byte	$08
	.byte	$2A
	.byte	$0C
	.byte	$01
	.byte	$0B
	.byte	$03
	.byte	$0C
	.byte	$08
	.byte	$17
	.byte	$19
	.byte	$08
	.byte	$03
	.byte	$08
	.byte	$08
	.byte	$00
	.byte	$2A
	.byte	$00
	.byte	$18
	.byte	$18
	.byte	$03
	.byte	$08
	.byte	$08
	.byte	$04
	.byte	$15
	.byte	$2A
	.byte	$14
	.byte	$0D
	.byte	$05
	.byte	$03
	.byte	$08
	.byte	$28
	.byte	$0A
	.byte	$0C
	.byte	$E2
	.byte	$03
	.byte	$08
	.byte	$38
	.byte	$09
	.byte	$87
	.byte	$09
	.byte	$49
	.byte	$09
	.byte	$C8
	.byte	$0C
	.byte	$A3
	.byte	$0C
	.byte	$02
	.byte	$08
	.byte	$03
	.byte	$07
	.byte	$08
	.byte	$0F
	.byte	$03
	.byte	$0D
	.byte	$08
	.byte	$01
	.byte	$03
	.byte	$0D
	.byte	$08
	.byte	$03
	.byte	$0E
	.byte	$28
	.byte	$09
	.byte	$EA
	.byte	$03
	.byte	$0A
	.byte	$08
	.byte	$09
	.byte	$6A
	.byte	$03
	.byte	$1A
	.byte	$28
	.byte	$03
	.byte	$0D
	.byte	$08
	.byte	$0F
	.byte	$00
	.byte	$03
	.byte	$0C
	.byte	$08
	.byte	$01
	.byte	$03
	.byte	$0E
	.byte	$48
	.byte	$03
	.byte	$1B
	.byte	$38
	.byte	$03
	.byte	$04
	.byte	$A7
	.byte	$03
	.byte	$08
	.byte	$08
	.byte	$03
	.byte	$03
	.byte	$A7
	.byte	$0F
	.byte	$03
	.byte	$09
	.byte	$28
	.byte	$03
	.byte	$22
	.byte	$38
	.byte	$01
	.byte	$03
	.byte	$0A
	.byte	$08
	.byte	$1C
	.byte	$1D
	.byte	$2A
	.byte	$03
	.byte	$0A
	.byte	$48
	.byte	$2A
	.byte	$1E
	.byte	$1F
	.byte	$03
	.byte	$0C
	.byte	$08
	.byte	$0C
	.byte	$01
	.byte	$03
	.byte	$3B
	.byte	$08
	.byte	$2C
	.byte	$28
	.byte	$1C
	.byte	$1D
	.byte	$28
	.byte	$03
	.byte	$0B
	.byte	$88
	.byte	$1E
	.byte	$1F
	.byte	$03
	.byte	$07
	.byte	$18
	.byte	$09
	.byte	$54
	.byte	$03
	.byte	$0B
	.byte	$28
	.byte	$09
	.byte	$14
	.byte	$09
	.byte	$7B
	.byte	$03
	.byte	$09
	.byte	$28
	.byte	$00
	.byte	$09
	.byte	$3B
	.byte	$03
	.byte	$0B
	.byte	$F8
	.byte	$03
	.byte	$1B
	.byte	$C8
	.byte	$03
	.byte	$24
	.byte	$77
	.byte	$03
	.byte	$39
	.byte	$08
	.byte	$20
	.byte	$21
	.byte	$03
	.byte	$0A
	.byte	$08
	.byte	$00
	.byte	$00
	.byte	$22
	.byte	$23
	.byte	$00
	.byte	$0C
	.byte	$01
	.byte	$03
	.byte	$05
	.byte	$08
	.byte	$04
	.byte	$05
	.byte	$0C
	.byte	$05
	.byte	$09
	.byte	$F2
.segment	"RODATA"
.segment	"BANK0"
_level06_enemy:
	.byte	$4A
	.byte	$02
	.byte	$01
	.byte	$37
	.byte	$02
	.byte	$01
	.byte	$75
	.byte	$02
	.byte	$06
	.byte	$44
	.byte	$02
	.byte	$01
	.byte	$70
	.byte	$02
	.byte	$02
	.byte	$34
	.byte	$01
	.byte	$01
	.byte	$52
	.byte	$01
	.byte	$01
	.byte	$61
	.byte	$01
	.byte	$01
	.byte	$70
	.byte	$01
	.byte	$01
	.byte	$FF
_level06:
	.byte	$4C
	.byte	$5A
	.byte	$47
	.byte	$00
	.byte	$00
	.byte	$02
	.byte	$D0
	.byte	$00
	.byte	$00
	.byte	$00
	.byte	$E8
	.byte	$E7
	.byte	$02
	.byte	$14
	.byte	$07
	.byte	$01
	.byte	$01
	.byte	$03
	.byte	$0B
	.byte	$0F
	.byte	$04
	.byte	$04
	.byte	$0F
	.byte	$07
	.byte	$06
	.byte	$2C
	.byte	$0F
	.byte	$01
	.byte	$03
	.byte	$08
	.byte	$07
	.byte	$03
	.byte	$1E
	.byte	$08
	.byte	$03
	.byte	$1D
	.byte	$08
	.byte	$0F
	.byte	$01
	.byte	$07
	.byte	$07
	.byte	$07
	.byte	$03
	.byte	$0A
	.byte	$08
	.byte	$06
	.byte	$2A
	.byte	$2A
	.byte	$2A
	.byte	$08
	.byte	$03
	.byte	$09
	.byte	$08
	.byte	$0A
	.byte	$03
	.byte	$0C
	.byte	$08
	.byte	$06
	.byte	$17
	.byte	$19
	.byte	$2A
	.byte	$2C
	.byte	$03
	.byte	$0A
	.byte	$08
	.byte	$18
	.byte	$18
	.byte	$03
	.byte	$09
	.byte	$18
	.byte	$07
	.byte	$07
	.byte	$07
	.byte	$0D
	.byte	$15
	.byte	$2C
	.byte	$14
	.byte	$0F
	.byte	$C1
	.byte	$0B
	.byte	$88
	.byte	$0F
	.byte	$83
	.byte	$0F
	.byte	$04
	.byte	$0E
	.byte	$03
	.byte	$1E
	.byte	$08
	.byte	$00
	.byte	$00
	.byte	$03
	.byte	$08
	.byte	$08
	.byte	$04
	.byte	$05
	.byte	$05
	.byte	$05
	.byte	$0D
	.byte	$15
	.byte	$02
	.byte	$03
	.byte	$08
	.byte	$08
	.byte	$04
	.byte	$04
	.byte	$06
	.byte	$02
	.byte	$2A
	.byte	$2A
	.byte	$2A
	.byte	$03
	.byte	$1B
	.byte	$08
	.byte	$0B
	.byte	$08
	.byte	$2F
	.byte	$03
	.byte	$08
	.byte	$08
	.byte	$04
	.byte	$05
	.byte	$09
	.byte	$00
	.byte	$00
	.byte	$0E
	.byte	$27
	.byte	$03
	.byte	$05
	.byte	$08
	.byte	$07
	.byte	$0F
	.byte	$02
	.byte	$0D
	.byte	$0D
	.byte	$07
	.byte	$15
	.byte	$03
	.byte	$16
	.byte	$78
	.byte	$28
	.byte	$16
	.byte	$28
	.byte	$03
	.byte	$0F
	.byte	$98
	.byte	$26
	.byte	$27
	.byte	$03
	.byte	$07
	.byte	$08
	.byte	$0B
	.byte	$42
	.byte	$26
	.byte	$24
	.byte	$24
	.byte	$0F
	.byte	$C1
	.byte	$03
	.byte	$07
	.byte	$98
	.byte	$0F
	.byte	$02
	.byte	$09
	.byte	$03
	.byte	$05
	.byte	$23
	.byte	$03
	.byte	$25
	.byte	$67
	.byte	$07
	.byte	$07
	.byte	$15
	.byte	$03
	.byte	$07
	.byte	$08
	.byte	$0A
	.byte	$03
	.byte	$05
	.byte	$58
	.byte	$03
	.byte	$05
	.byte	$08
	.byte	$03
	.byte	$07
	.byte	$6A
	.byte	$03
	.byte	$09
	.byte	$08
	.byte	$29
	.byte	$0F
	.byte	$42
	.byte	$03
	.byte	$08
	.byte	$08
	.byte	$0C
	.byte	$03
	.byte	$03
	.byte	$4B
	.byte	$03
	.byte	$08
	.byte	$08
	.byte	$08
	.byte	$03
	.byte	$2A
	.byte	$C8
	.byte	$03
	.byte	$1C
	.byte	$08
	.byte	$0B
	.byte	$08
	.byte	$07
	.byte	$07
	.byte	$07
	.byte	$03
	.byte	$03
	.byte	$70
	.byte	$03
	.byte	$05
	.byte	$08
	.byte	$03
	.byte	$07
	.byte	$6D
	.byte	$0B
	.byte	$08
	.byte	$20
	.byte	$21
	.byte	$03
	.byte	$0C
	.byte	$08
	.byte	$22
	.byte	$23
	.byte	$0B
	.byte	$48
	.byte	$1A
	.byte	$03
	.byte	$06
	.byte	$08
	.byte	$04
	.byte	$05
	.byte	$05
	.byte	$0F
	.byte	$83
	.byte	$03
	.byte	$02
	.byte	$CB
	.byte	$2C
	.byte	$2C
.segment	"RODATA"
.segment	"BANK0"
_level07_enemy:
	.byte	$AD
	.byte	$02
	.byte	$02
	.byte	$56
	.byte	$02
	.byte	$06
	.byte	$52
	.byte	$02
	.byte	$06
	.byte	$30
	.byte	$02
	.byte	$02
	.byte	$9D
	.byte	$01
	.byte	$06
	.byte	$2B
	.byte	$01
	.byte	$02
	.byte	$A6
	.byte	$01
	.byte	$05
	.byte	$86
	.byte	$01
	.byte	$01
	.byte	$67
	.byte	$01
	.byte	$02
	.byte	$27
	.byte	$01
	.byte	$02
	.byte	$24
	.byte	$01
	.byte	$01
	.byte	$42
	.byte	$01
	.byte	$02
	.byte	$4C
	.byte	$00
	.byte	$05
	.byte	$5C
	.byte	$00
	.byte	$05
	.byte	$6C
	.byte	$00
	.byte	$05
	.byte	$6A
	.byte	$00
	.byte	$06
	.byte	$4A
	.byte	$00
	.byte	$06
	.byte	$69
	.byte	$00
	.byte	$01
	.byte	$18
	.byte	$00
	.byte	$04
	.byte	$FF
_level07:
	.byte	$4C
	.byte	$5A
	.byte	$47
	.byte	$00
	.byte	$00
	.byte	$02
	.byte	$D0
	.byte	$00
	.byte	$00
	.byte	$01
	.byte	$1E
	.byte	$2F
	.byte	$2A
	.byte	$28
	.byte	$9A
	.byte	$01
	.byte	$00
	.byte	$01
	.byte	$02
	.byte	$03
	.byte	$04
	.byte	$04
	.byte	$03
	.byte	$07
	.byte	$06
	.byte	$2C
	.byte	$03
	.byte	$01
	.byte	$01
	.byte	$08
	.byte	$07
	.byte	$01
	.byte	$1E
	.byte	$08
	.byte	$01
	.byte	$0D
	.byte	$08
	.byte	$07
	.byte	$03
	.byte	$07
	.byte	$02
	.byte	$88
	.byte	$03
	.byte	$83
	.byte	$03
	.byte	$04
	.byte	$0E
	.byte	$02
	.byte	$88
	.byte	$1C
	.byte	$1D
	.byte	$2C
	.byte	$2C
	.byte	$03
	.byte	$62
	.byte	$17
	.byte	$19
	.byte	$02
	.byte	$C8
	.byte	$1E
	.byte	$1F
	.byte	$2C
	.byte	$2C
	.byte	$03
	.byte	$62
	.byte	$18
	.byte	$18
	.byte	$02
	.byte	$C8
	.byte	$2C
	.byte	$2C
	.byte	$0C
	.byte	$0D
	.byte	$0D
	.byte	$0D
	.byte	$05
	.byte	$03
	.byte	$01
	.byte	$01
	.byte	$06
	.byte	$38
	.byte	$30
	.byte	$03
	.byte	$C1
	.byte	$0B
	.byte	$01
	.byte	$16
	.byte	$48
	.byte	$04
	.byte	$02
	.byte	$62
	.byte	$03
	.byte	$02
	.byte	$09
	.byte	$01
	.byte	$05
	.byte	$08
	.byte	$04
	.byte	$01
	.byte	$05
	.byte	$7A
	.byte	$0A
	.byte	$01
	.byte	$06
	.byte	$08
	.byte	$0A
	.byte	$1C
	.byte	$1D
	.byte	$2A
	.byte	$2A
	.byte	$01
	.byte	$02
	.byte	$6A
	.byte	$02
	.byte	$C8
	.byte	$0A
	.byte	$2C
	.byte	$1E
	.byte	$1F
	.byte	$2A
	.byte	$2A
	.byte	$01
	.byte	$02
	.byte	$6A
	.byte	$01
	.byte	$06
	.byte	$68
	.byte	$2C
	.byte	$0C
	.byte	$02
	.byte	$FA
	.byte	$01
	.byte	$07
	.byte	$58
	.byte	$0B
	.byte	$07
	.byte	$07
	.byte	$01
	.byte	$07
	.byte	$C8
	.byte	$06
	.byte	$2C
	.byte	$02
	.byte	$77
	.byte	$2A
	.byte	$01
	.byte	$08
	.byte	$78
	.byte	$28
	.byte	$1E
	.byte	$1F
	.byte	$28
	.byte	$01
	.byte	$0A
	.byte	$C8
	.byte	$01
	.byte	$1B
	.byte	$88
	.byte	$01
	.byte	$29
	.byte	$08
	.byte	$01
	.byte	$05
	.byte	$88
	.byte	$01
	.byte	$2F
	.byte	$08
	.byte	$28
	.byte	$2C
	.byte	$01
	.byte	$05
	.byte	$47
	.byte	$02
	.byte	$C8
	.byte	$08
	.byte	$0D
	.byte	$0D
	.byte	$15
	.byte	$1C
	.byte	$1D
	.byte	$01
	.byte	$02
	.byte	$A7
	.byte	$02
	.byte	$C8
	.byte	$06
	.byte	$2A
	.byte	$01
	.byte	$02
	.byte	$A5
	.byte	$01
	.byte	$02
	.byte	$6C
	.byte	$28
	.byte	$01
	.byte	$0A
	.byte	$38
	.byte	$14
	.byte	$0D
	.byte	$0D
	.byte	$0D
	.byte	$01
	.byte	$05
	.byte	$98
	.byte	$02
	.byte	$B9
	.byte	$02
	.byte	$1E
	.byte	$2A
	.byte	$02
	.byte	$98
	.byte	$04
	.byte	$02
	.byte	$11
	.byte	$0D
	.byte	$15
	.byte	$01
	.byte	$09
	.byte	$58
	.byte	$02
	.byte	$52
	.byte	$01
	.byte	$0A
	.byte	$98
	.byte	$02
	.byte	$58
	.byte	$02
	.byte	$DC
	.byte	$01
	.byte	$08
	.byte	$48
	.byte	$02
	.byte	$7B
	.byte	$28
	.byte	$01
	.byte	$06
	.byte	$08
	.byte	$25
	.byte	$01
	.byte	$03
	.byte	$55
	.byte	$01
	.byte	$07
	.byte	$58
	.byte	$26
	.byte	$24
	.byte	$27
	.byte	$01
	.byte	$11
	.byte	$D8
	.byte	$01
	.byte	$07
	.byte	$38
	.byte	$01
	.byte	$22
	.byte	$21
	.byte	$01
	.byte	$02
	.byte	$D5
	.byte	$01
	.byte	$07
	.byte	$18
	.byte	$04
	.byte	$02
	.byte	$C5
	.byte	$01
	.byte	$07
	.byte	$08
	.byte	$02
	.byte	$BE
	.byte	$2C
	.byte	$29
	.byte	$01
	.byte	$0A
	.byte	$08
	.byte	$14
	.byte	$0D
	.byte	$16
	.byte	$02
	.byte	$37
	.byte	$01
	.byte	$07
	.byte	$08
	.byte	$28
	.byte	$20
	.byte	$21
	.byte	$01
	.byte	$03
	.byte	$FB
	.byte	$01
	.byte	$05
	.byte	$08
	.byte	$29
	.byte	$2C
	.byte	$22
	.byte	$23
	.byte	$01
	.byte	$0F
	.byte	$68
	.byte	$01
	.byte	$27
	.byte	$98
.segment	"RODATA"
.segment	"BANK0"
_level08_enemy:
	.byte	$4A
	.byte	$02
	.byte	$04
	.byte	$7A
	.byte	$02
	.byte	$04
	.byte	$45
	.byte	$02
	.byte	$04
	.byte	$75
	.byte	$02
	.byte	$04
	.byte	$34
	.byte	$02
	.byte	$02
	.byte	$94
	.byte	$02
	.byte	$02
	.byte	$3C
	.byte	$01
	.byte	$04
	.byte	$8C
	.byte	$01
	.byte	$04
	.byte	$66
	.byte	$01
	.byte	$04
	.byte	$19
	.byte	$01
	.byte	$01
	.byte	$A8
	.byte	$01
	.byte	$01
	.byte	$6E
	.byte	$00
	.byte	$04
	.byte	$5C
	.byte	$00
	.byte	$06
	.byte	$7C
	.byte	$00
	.byte	$06
	.byte	$FF
_level08:
	.byte	$4C
	.byte	$5A
	.byte	$47
	.byte	$00
	.byte	$00
	.byte	$02
	.byte	$D0
	.byte	$00
	.byte	$00
	.byte	$00
	.byte	$BF
	.byte	$C0
	.byte	$5B
	.byte	$11
	.byte	$6E
	.byte	$01
	.byte	$02
	.byte	$03
	.byte	$08
	.byte	$09
	.byte	$04
	.byte	$07
	.byte	$09
	.byte	$07
	.byte	$06
	.byte	$2C
	.byte	$09
	.byte	$01
	.byte	$09
	.byte	$83
	.byte	$09
	.byte	$04
	.byte	$0E
	.byte	$03
	.byte	$1E
	.byte	$08
	.byte	$03
	.byte	$1B
	.byte	$08
	.byte	$17
	.byte	$19
	.byte	$03
	.byte	$0C
	.byte	$08
	.byte	$18
	.byte	$18
	.byte	$03
	.byte	$0B
	.byte	$08
	.byte	$04
	.byte	$0D
	.byte	$0D
	.byte	$15
	.byte	$03
	.byte	$1C
	.byte	$48
	.byte	$03
	.byte	$0A
	.byte	$08
	.byte	$14
	.byte	$0D
	.byte	$09
	.byte	$01
	.byte	$08
	.byte	$2D
	.byte	$03
	.byte	$06
	.byte	$08
	.byte	$01
	.byte	$01
	.byte	$01
	.byte	$09
	.byte	$61
	.byte	$03
	.byte	$1A
	.byte	$38
	.byte	$2A
	.byte	$2A
	.byte	$2A
	.byte	$03
	.byte	$0C
	.byte	$08
	.byte	$16
	.byte	$03
	.byte	$0D
	.byte	$08
	.byte	$03
	.byte	$0D
	.byte	$18
	.byte	$03
	.byte	$0D
	.byte	$38
	.byte	$14
	.byte	$05
	.byte	$0D
	.byte	$05
	.byte	$03
	.byte	$09
	.byte	$68
	.byte	$2C
	.byte	$01
	.byte	$30
	.byte	$2C
	.byte	$30
	.byte	$03
	.byte	$1B
	.byte	$68
	.byte	$03
	.byte	$1C
	.byte	$08
	.byte	$03
	.byte	$07
	.byte	$08
	.byte	$00
	.byte	$00
	.byte	$0F
	.byte	$09
	.byte	$E2
	.byte	$0F
	.byte	$00
	.byte	$00
	.byte	$03
	.byte	$25
	.byte	$08
	.byte	$03
	.byte	$25
	.byte	$07
	.byte	$14
	.byte	$0D
	.byte	$03
	.byte	$1C
	.byte	$38
	.byte	$08
	.byte	$C8
	.byte	$2F
	.byte	$00
	.byte	$00
	.byte	$2F
	.byte	$03
	.byte	$0A
	.byte	$08
	.byte	$0B
	.byte	$0D
	.byte	$0D
	.byte	$0A
	.byte	$03
	.byte	$1D
	.byte	$88
	.byte	$03
	.byte	$08
	.byte	$08
	.byte	$14
	.byte	$03
	.byte	$03
	.byte	$79
	.byte	$09
	.byte	$A1
	.byte	$03
	.byte	$06
	.byte	$18
	.byte	$03
	.byte	$22
	.byte	$14
	.byte	$09
	.byte	$82
	.byte	$03
	.byte	$05
	.byte	$08
	.byte	$08
	.byte	$87
	.byte	$08
	.byte	$49
	.byte	$03
	.byte	$08
	.byte	$08
	.byte	$16
	.byte	$16
	.byte	$03
	.byte	$09
	.byte	$08
	.byte	$03
	.byte	$0E
	.byte	$28
	.byte	$03
	.byte	$0F
	.byte	$48
	.byte	$03
	.byte	$0D
	.byte	$68
	.byte	$28
	.byte	$20
	.byte	$21
	.byte	$28
	.byte	$03
	.byte	$0B
	.byte	$08
	.byte	$22
	.byte	$23
	.byte	$03
	.byte	$09
	.byte	$08
	.byte	$04
	.byte	$05
	.byte	$09
	.byte	$07
	.byte	$08
	.byte	$B3
.segment	"RODATA"
.segment	"BANK0"
_level09_enemy:
	.byte	$43
	.byte	$05
	.byte	$01
	.byte	$65
	.byte	$04
	.byte	$06
	.byte	$82
	.byte	$04
	.byte	$06
	.byte	$40
	.byte	$04
	.byte	$06
	.byte	$5B
	.byte	$03
	.byte	$01
	.byte	$6A
	.byte	$03
	.byte	$01
	.byte	$13
	.byte	$03
	.byte	$04
	.byte	$A3
	.byte	$03
	.byte	$04
	.byte	$6B
	.byte	$02
	.byte	$05
	.byte	$93
	.byte	$02
	.byte	$02
	.byte	$3E
	.byte	$01
	.byte	$05
	.byte	$4E
	.byte	$01
	.byte	$05
	.byte	$6E
	.byte	$01
	.byte	$05
	.byte	$7E
	.byte	$01
	.byte	$05
	.byte	$9A
	.byte	$01
	.byte	$02
	.byte	$45
	.byte	$01
	.byte	$06
	.byte	$FF
_level09:
	.byte	$4C
	.byte	$5A
	.byte	$47
	.byte	$00
	.byte	$00
	.byte	$05
	.byte	$A0
	.byte	$00
	.byte	$00
	.byte	$01
	.byte	$C1
	.byte	$76
	.byte	$AE
	.byte	$3B
	.byte	$E3
	.byte	$01
	.byte	$02
	.byte	$03
	.byte	$1A
	.byte	$1B
	.byte	$04
	.byte	$0D
	.byte	$1B
	.byte	$07
	.byte	$06
	.byte	$2C
	.byte	$1B
	.byte	$01
	.byte	$1B
	.byte	$83
	.byte	$1B
	.byte	$04
	.byte	$0E
	.byte	$03
	.byte	$1F
	.byte	$08
	.byte	$03
	.byte	$16
	.byte	$08
	.byte	$29
	.byte	$2C
	.byte	$2C
	.byte	$0C
	.byte	$15
	.byte	$2A
	.byte	$2A
	.byte	$03
	.byte	$06
	.byte	$08
	.byte	$14
	.byte	$09
	.byte	$1A
	.byte	$14
	.byte	$2A
	.byte	$03
	.byte	$08
	.byte	$08
	.byte	$2C
	.byte	$0E
	.byte	$17
	.byte	$19
	.byte	$03
	.byte	$07
	.byte	$08
	.byte	$04
	.byte	$15
	.byte	$1A
	.byte	$08
	.byte	$18
	.byte	$18
	.byte	$03
	.byte	$0B
	.byte	$18
	.byte	$0B
	.byte	$0D
	.byte	$05
	.byte	$06
	.byte	$03
	.byte	$07
	.byte	$08
	.byte	$1C
	.byte	$1D
	.byte	$2C
	.byte	$2C
	.byte	$28
	.byte	$0B
	.byte	$03
	.byte	$08
	.byte	$08
	.byte	$1E
	.byte	$1F
	.byte	$2C
	.byte	$28
	.byte	$26
	.byte	$27
	.byte	$03
	.byte	$0A
	.byte	$38
	.byte	$28
	.byte	$26
	.byte	$24
	.byte	$24
	.byte	$03
	.byte	$09
	.byte	$38
	.byte	$1A
	.byte	$47
	.byte	$14
	.byte	$03
	.byte	$08
	.byte	$28
	.byte	$2C
	.byte	$1A
	.byte	$07
	.byte	$03
	.byte	$09
	.byte	$18
	.byte	$04
	.byte	$03
	.byte	$22
	.byte	$42
	.byte	$15
	.byte	$24
	.byte	$0B
	.byte	$03
	.byte	$27
	.byte	$48
	.byte	$1A
	.byte	$97
	.byte	$24
	.byte	$27
	.byte	$03
	.byte	$07
	.byte	$B8
	.byte	$1A
	.byte	$87
	.byte	$1A
	.byte	$89
	.byte	$03
	.byte	$08
	.byte	$28
	.byte	$1A
	.byte	$6B
	.byte	$03
	.byte	$17
	.byte	$E8
	.byte	$2F
	.byte	$1B
	.byte	$23
	.byte	$0C
	.byte	$05
	.byte	$05
	.byte	$03
	.byte	$25
	.byte	$98
	.byte	$0E
	.byte	$00
	.byte	$1B
	.byte	$22
	.byte	$08
	.byte	$04
	.byte	$04
	.byte	$03
	.byte	$05
	.byte	$08
	.byte	$0B
	.byte	$0D
	.byte	$07
	.byte	$1B
	.byte	$22
	.byte	$07
	.byte	$07
	.byte	$03
	.byte	$3D
	.byte	$B8
	.byte	$03
	.byte	$0A
	.byte	$78
	.byte	$15
	.byte	$03
	.byte	$18
	.byte	$28
	.byte	$14
	.byte	$1A
	.byte	$58
	.byte	$05
	.byte	$03
	.byte	$4D
	.byte	$18
	.byte	$0E
	.byte	$01
	.byte	$01
	.byte	$01
	.byte	$03
	.byte	$0A
	.byte	$28
	.byte	$03
	.byte	$2B
	.byte	$58
	.byte	$1B
	.byte	$01
	.byte	$30
	.byte	$03
	.byte	$08
	.byte	$08
	.byte	$14
	.byte	$03
	.byte	$02
	.byte	$54
	.byte	$03
	.byte	$1B
	.byte	$88
	.byte	$2C
	.byte	$14
	.byte	$0D
	.byte	$09
	.byte	$03
	.byte	$0D
	.byte	$38
	.byte	$03
	.byte	$0E
	.byte	$48
	.byte	$0E
	.byte	$00
	.byte	$00
	.byte	$00
	.byte	$1A
	.byte	$88
	.byte	$04
	.byte	$05
	.byte	$05
	.byte	$05
	.byte	$0D
	.byte	$15
	.byte	$2C
	.byte	$08
	.byte	$1B
	.byte	$C1
	.byte	$1A
	.byte	$93
	.byte	$04
	.byte	$04
	.byte	$04
	.byte	$06
	.byte	$2A
	.byte	$2A
	.byte	$2C
	.byte	$08
	.byte	$1B
	.byte	$E2
	.byte	$03
	.byte	$05
	.byte	$08
	.byte	$04
	.byte	$05
	.byte	$09
	.byte	$2C
	.byte	$0B
	.byte	$03
	.byte	$0A
	.byte	$08
	.byte	$1A
	.byte	$42
	.byte	$03
	.byte	$26
	.byte	$28
	.byte	$04
	.byte	$07
	.byte	$1B
	.byte	$01
	.byte	$0A
	.byte	$2C
	.byte	$14
	.byte	$03
	.byte	$3D
	.byte	$28
	.byte	$2C
	.byte	$03
	.byte	$05
	.byte	$78
	.byte	$1A
	.byte	$08
	.byte	$12
	.byte	$13
	.byte	$03
	.byte	$04
	.byte	$AC
	.byte	$03
	.byte	$14
	.byte	$38
	.byte	$00
	.byte	$00
	.byte	$1B
	.byte	$C2
	.byte	$10
	.byte	$2D
	.byte	$11
	.byte	$03
	.byte	$26
	.byte	$58
	.byte	$03
	.byte	$06
	.byte	$F7
	.byte	$03
	.byte	$3C
	.byte	$88
	.byte	$1A
	.byte	$C8
	.byte	$12
	.byte	$2E
	.byte	$1B
	.byte	$01
	.byte	$13
	.byte	$03
	.byte	$7D
	.byte	$18
	.byte	$03
	.byte	$2A
	.byte	$A8
	.byte	$03
	.byte	$04
	.byte	$6B
	.byte	$03
	.byte	$1B
	.byte	$28
	.byte	$14
	.byte	$15
	.byte	$03
	.byte	$14
	.byte	$18
	.byte	$1B
	.byte	$83
	.byte	$03
	.byte	$0E
	.byte	$28
	.byte	$14
	.byte	$03
	.byte	$5A
	.byte	$18
	.byte	$03
	.byte	$0D
	.byte	$08
	.byte	$03
	.byte	$04
	.byte	$F8
	.byte	$03
	.byte	$07
	.byte	$08
	.byte	$04
	.byte	$05
	.byte	$09
	.byte	$03
	.byte	$06
	.byte	$09
	.byte	$1A
	.byte	$C8
	.byte	$04
	.byte	$04
	.byte	$03
	.byte	$06
	.byte	$09
	.byte	$1A
	.byte	$C8
	.byte	$07
	.byte	$07
	.byte	$07
	.byte	$15
	.byte	$2C
	.byte	$2C
	.byte	$1A
	.byte	$4B
	.byte	$03
	.byte	$0A
	.byte	$48
	.byte	$0F
	.byte	$03
	.byte	$37
	.byte	$58
	.byte	$2C
	.byte	$16
	.byte	$16
	.byte	$16
	.byte	$03
	.byte	$1A
	.byte	$78
	.byte	$1A
	.byte	$C4
	.byte	$2C
	.byte	$03
	.byte	$46
	.byte	$28
	.byte	$03
	.byte	$07
	.byte	$E8
	.byte	$03
	.byte	$9D
	.byte	$D8
	.byte	$2C
	.byte	$14
	.byte	$1A
	.byte	$E8
	.byte	$00
	.byte	$1B
	.byte	$04
	.byte	$03
	.byte	$06
	.byte	$18
	.byte	$03
	.byte	$43
	.byte	$78
	.byte	$03
	.byte	$63
	.byte	$29
	.byte	$25
	.byte	$03
	.byte	$06
	.byte	$C8
	.byte	$0A
	.byte	$1A
	.byte	$A7
	.byte	$26
	.byte	$24
	.byte	$03
	.byte	$05
	.byte	$08
	.byte	$03
	.byte	$06
	.byte	$07
	.byte	$03
	.byte	$05
	.byte	$08
	.byte	$03
	.byte	$06
	.byte	$07
	.byte	$16
	.byte	$1A
	.byte	$C8
	.byte	$06
	.byte	$2C
	.byte	$28
	.byte	$20
	.byte	$21
	.byte	$03
	.byte	$82
	.byte	$3B
	.byte	$03
	.byte	$05
	.byte	$18
	.byte	$06
	.byte	$2C
	.byte	$2C
	.byte	$22
	.byte	$23
	.byte	$1A
	.byte	$87
	.byte	$1A
	.byte	$C8
	.byte	$03
	.byte	$02
	.byte	$58
	.byte	$1B
	.byte	$05
	.byte	$03
	.byte	$03
	.byte	$78
.segment	"RODATA"
.segment	"BANK0"
_level10_enemy:
	.byte	$49
	.byte	$02
	.byte	$04
	.byte	$73
	.byte	$02
	.byte	$05
	.byte	$24
	.byte	$02
	.byte	$06
	.byte	$71
	.byte	$02
	.byte	$06
	.byte	$91
	.byte	$02
	.byte	$02
	.byte	$2A
	.byte	$01
	.byte	$06
	.byte	$9C
	.byte	$00
	.byte	$01
	.byte	$FF
_level10:
	.byte	$4C
	.byte	$5A
	.byte	$47
	.byte	$00
	.byte	$00
	.byte	$02
	.byte	$D0
	.byte	$00
	.byte	$00
	.byte	$00
	.byte	$DF
	.byte	$E7
	.byte	$EA
	.byte	$1C
	.byte	$25
	.byte	$01
	.byte	$02
	.byte	$03
	.byte	$08
	.byte	$10
	.byte	$04
	.byte	$07
	.byte	$10
	.byte	$07
	.byte	$06
	.byte	$2C
	.byte	$10
	.byte	$01
	.byte	$10
	.byte	$83
	.byte	$10
	.byte	$04
	.byte	$0E
	.byte	$03
	.byte	$1E
	.byte	$08
	.byte	$03
	.byte	$0B
	.byte	$08
	.byte	$2A
	.byte	$10
	.byte	$02
	.byte	$03
	.byte	$09
	.byte	$08
	.byte	$17
	.byte	$19
	.byte	$03
	.byte	$0C
	.byte	$08
	.byte	$18
	.byte	$18
	.byte	$03
	.byte	$0B
	.byte	$08
	.byte	$04
	.byte	$0D
	.byte	$10
	.byte	$04
	.byte	$15
	.byte	$03
	.byte	$0C
	.byte	$48
	.byte	$01
	.byte	$01
	.byte	$03
	.byte	$1B
	.byte	$68
	.byte	$0F
	.byte	$03
	.byte	$0A
	.byte	$08
	.byte	$00
	.byte	$10
	.byte	$05
	.byte	$03
	.byte	$06
	.byte	$08
	.byte	$0C
	.byte	$05
	.byte	$10
	.byte	$04
	.byte	$03
	.byte	$06
	.byte	$E8
	.byte	$0B
	.byte	$03
	.byte	$0C
	.byte	$F8
	.byte	$28
	.byte	$10
	.byte	$21
	.byte	$03
	.byte	$18
	.byte	$B8
	.byte	$04
	.byte	$0D
	.byte	$15
	.byte	$2C
	.byte	$14
	.byte	$15
	.byte	$03
	.byte	$18
	.byte	$18
	.byte	$03
	.byte	$10
	.byte	$08
	.byte	$16
	.byte	$2C
	.byte	$2C
	.byte	$28
	.byte	$1C
	.byte	$1D
	.byte	$28
	.byte	$03
	.byte	$0B
	.byte	$18
	.byte	$1E
	.byte	$1F
	.byte	$03
	.byte	$17
	.byte	$28
	.byte	$29
	.byte	$2C
	.byte	$29
	.byte	$03
	.byte	$0C
	.byte	$68
	.byte	$03
	.byte	$02
	.byte	$F3
	.byte	$03
	.byte	$0F
	.byte	$58
	.byte	$03
	.byte	$22
	.byte	$1C
	.byte	$03
	.byte	$0B
	.byte	$08
	.byte	$16
	.byte	$03
	.byte	$08
	.byte	$08
	.byte	$08
	.byte	$54
	.byte	$03
	.byte	$0A
	.byte	$18
	.byte	$08
	.byte	$54
	.byte	$03
	.byte	$0A
	.byte	$38
	.byte	$03
	.byte	$2C
	.byte	$68
	.byte	$10
	.byte	$82
	.byte	$14
	.byte	$03
	.byte	$23
	.byte	$5B
	.byte	$08
	.byte	$83
	.byte	$06
	.byte	$03
	.byte	$04
	.byte	$A4
	.byte	$03
	.byte	$09
	.byte	$18
	.byte	$03
	.byte	$03
	.byte	$A4
	.byte	$03
	.byte	$08
	.byte	$88
	.byte	$03
	.byte	$23
	.byte	$33
	.byte	$09
	.byte	$03
	.byte	$08
	.byte	$08
	.byte	$03
	.byte	$24
	.byte	$34
	.byte	$03
	.byte	$02
	.byte	$9C
	.byte	$03
	.byte	$3B
	.byte	$08
	.byte	$03
	.byte	$0C
	.byte	$F8
	.byte	$10
	.byte	$02
	.byte	$0C
	.byte	$03
	.byte	$49
	.byte	$68
	.byte	$08
	.byte	$16
	.byte	$0C
	.byte	$04
	.byte	$03
	.byte	$4B
	.byte	$78
	.byte	$0C
	.byte	$07
	.byte	$07
	.byte	$0A
	.byte	$08
	.byte	$C8
	.byte	$03
	.byte	$23
	.byte	$88
	.byte	$08
	.byte	$E5
	.byte	$03
	.byte	$07
	.byte	$18
	.byte	$08
	.byte	$65
	.byte	$1A
	.byte	$08
	.byte	$82
	.byte	$03
	.byte	$04
	.byte	$88
	.byte	$04
	.byte	$04
	.byte	$10
	.byte	$E1
	.byte	$03
	.byte	$03
	.byte	$8D
.segment	"RODATA"
.segment	"BANK0"
_level11_enemy:
	.byte	$69
	.byte	$05
	.byte	$04
	.byte	$A6
	.byte	$05
	.byte	$06
	.byte	$62
	.byte	$05
	.byte	$04
	.byte	$90
	.byte	$04
	.byte	$05
	.byte	$A0
	.byte	$04
	.byte	$05
	.byte	$5D
	.byte	$03
	.byte	$02
	.byte	$39
	.byte	$03
	.byte	$04
	.byte	$89
	.byte	$03
	.byte	$04
	.byte	$FF
_level11:
	.byte	$4C
	.byte	$5A
	.byte	$47
	.byte	$00
	.byte	$00
	.byte	$05
	.byte	$A0
	.byte	$00
	.byte	$00
	.byte	$01
	.byte	$48
	.byte	$E0
	.byte	$94
	.byte	$25
	.byte	$28
	.byte	$01
	.byte	$01
	.byte	$02
	.byte	$03
	.byte	$09
	.byte	$04
	.byte	$0D
	.byte	$09
	.byte	$07
	.byte	$06
	.byte	$2C
	.byte	$09
	.byte	$01
	.byte	$09
	.byte	$83
	.byte	$09
	.byte	$04
	.byte	$0E
	.byte	$02
	.byte	$1F
	.byte	$08
	.byte	$02
	.byte	$13
	.byte	$08
	.byte	$1A
	.byte	$02
	.byte	$0C
	.byte	$08
	.byte	$04
	.byte	$0D
	.byte	$15
	.byte	$02
	.byte	$1D
	.byte	$48
	.byte	$02
	.byte	$10
	.byte	$08
	.byte	$2B
	.byte	$02
	.byte	$1D
	.byte	$38
	.byte	$02
	.byte	$1E
	.byte	$08
	.byte	$02
	.byte	$1F
	.byte	$88
	.byte	$02
	.byte	$1C
	.byte	$08
	.byte	$03
	.byte	$C4
	.byte	$02
	.byte	$02
	.byte	$8B
	.byte	$02
	.byte	$1E
	.byte	$48
	.byte	$02
	.byte	$1D
	.byte	$08
	.byte	$02
	.byte	$13
	.byte	$08
	.byte	$02
	.byte	$1E
	.byte	$88
	.byte	$02
	.byte	$1C
	.byte	$08
	.byte	$2C
	.byte	$17
	.byte	$18
	.byte	$18
	.byte	$19
	.byte	$02
	.byte	$0A
	.byte	$08
	.byte	$18
	.byte	$09
	.byte	$01
	.byte	$02
	.byte	$18
	.byte	$08
	.byte	$14
	.byte	$02
	.byte	$64
	.byte	$46
	.byte	$15
	.byte	$02
	.byte	$1D
	.byte	$68
	.byte	$02
	.byte	$15
	.byte	$08
	.byte	$00
	.byte	$00
	.byte	$03
	.byte	$85
	.byte	$09
	.byte	$C1
	.byte	$03
	.byte	$88
	.byte	$04
	.byte	$05
	.byte	$05
	.byte	$02
	.byte	$03
	.byte	$55
	.byte	$0C
	.byte	$02
	.byte	$65
	.byte	$A8
	.byte	$04
	.byte	$04
	.byte	$06
	.byte	$1C
	.byte	$1D
	.byte	$03
	.byte	$E5
	.byte	$03
	.byte	$D8
	.byte	$04
	.byte	$06
	.byte	$1E
	.byte	$1F
	.byte	$2C
	.byte	$14
	.byte	$05
	.byte	$03
	.byte	$15
	.byte	$02
	.byte	$05
	.byte	$08
	.byte	$07
	.byte	$03
	.byte	$26
	.byte	$2C
	.byte	$08
	.byte	$0A
	.byte	$02
	.byte	$06
	.byte	$08
	.byte	$03
	.byte	$11
	.byte	$03
	.byte	$29
	.byte	$03
	.byte	$04
	.byte	$0C
	.byte	$03
	.byte	$F8
	.byte	$09
	.byte	$A1
	.byte	$1E
	.byte	$1F
	.byte	$03
	.byte	$44
	.byte	$08
	.byte	$02
	.byte	$06
	.byte	$08
	.byte	$0C
	.byte	$05
	.byte	$05
	.byte	$03
	.byte	$4E
	.byte	$02
	.byte	$07
	.byte	$08
	.byte	$08
	.byte	$03
	.byte	$3C
	.byte	$03
	.byte	$37
	.byte	$02
	.byte	$09
	.byte	$08
	.byte	$03
	.byte	$06
	.byte	$02
	.byte	$0A
	.byte	$08
	.byte	$03
	.byte	$07
	.byte	$0F
	.byte	$02
	.byte	$09
	.byte	$08
	.byte	$30
	.byte	$03
	.byte	$87
	.byte	$26
	.byte	$02
	.byte	$07
	.byte	$08
	.byte	$03
	.byte	$C7
	.byte	$24
	.byte	$02
	.byte	$05
	.byte	$08
	.byte	$04
	.byte	$05
	.byte	$05
	.byte	$15
	.byte	$03
	.byte	$47
	.byte	$02
	.byte	$07
	.byte	$08
	.byte	$02
	.byte	$02
	.byte	$46
	.byte	$03
	.byte	$07
	.byte	$02
	.byte	$07
	.byte	$08
	.byte	$03
	.byte	$07
	.byte	$02
	.byte	$02
	.byte	$6B
	.byte	$04
	.byte	$03
	.byte	$B2
	.byte	$2C
	.byte	$02
	.byte	$05
	.byte	$64
	.byte	$02
	.byte	$07
	.byte	$08
	.byte	$09
	.byte	$83
	.byte	$2C
	.byte	$0B
	.byte	$02
	.byte	$0B
	.byte	$08
	.byte	$1C
	.byte	$1D
	.byte	$03
	.byte	$99
	.byte	$02
	.byte	$07
	.byte	$08
	.byte	$1E
	.byte	$1F
	.byte	$2C
	.byte	$0B
	.byte	$07
	.byte	$07
	.byte	$07
	.byte	$02
	.byte	$09
	.byte	$28
	.byte	$2F
	.byte	$02
	.byte	$28
	.byte	$48
	.byte	$02
	.byte	$27
	.byte	$53
	.byte	$16
	.byte	$02
	.byte	$09
	.byte	$08
	.byte	$30
	.byte	$02
	.byte	$09
	.byte	$18
	.byte	$02
	.byte	$23
	.byte	$47
	.byte	$29
	.byte	$02
	.byte	$08
	.byte	$08
	.byte	$1E
	.byte	$1F
	.byte	$2C
	.byte	$02
	.byte	$22
	.byte	$0B
	.byte	$05
	.byte	$02
	.byte	$22
	.byte	$4B
	.byte	$02
	.byte	$14
	.byte	$78
	.byte	$02
	.byte	$05
	.byte	$99
	.byte	$02
	.byte	$09
	.byte	$08
	.byte	$0C
	.byte	$02
	.byte	$09
	.byte	$18
	.byte	$28
	.byte	$20
	.byte	$21
	.byte	$28
	.byte	$02
	.byte	$0B
	.byte	$B8
	.byte	$22
	.byte	$23
	.byte	$02
	.byte	$0C
	.byte	$C8
	.byte	$22
	.byte	$23
	.byte	$03
	.byte	$A7
	.byte	$03
	.byte	$C8
	.byte	$04
	.byte	$02
	.byte	$02
	.byte	$62
	.byte	$03
	.byte	$87
	.byte	$03
	.byte	$C8
.segment	"RODATA"
.segment	"BANK0"
_level12_enemy:
	.byte	$18
	.byte	$05
	.byte	$05
	.byte	$A8
	.byte	$05
	.byte	$05
	.byte	$80
	.byte	$05
	.byte	$04
	.byte	$3B
	.byte	$04
	.byte	$06
	.byte	$37
	.byte	$04
	.byte	$01
	.byte	$46
	.byte	$04
	.byte	$01
	.byte	$1E
	.byte	$03
	.byte	$04
	.byte	$39
	.byte	$03
	.byte	$02
	.byte	$A4
	.byte	$03
	.byte	$06
	.byte	$90
	.byte	$03
	.byte	$06
	.byte	$4C
	.byte	$02
	.byte	$06
	.byte	$59
	.byte	$02
	.byte	$04
	.byte	$7A
	.byte	$02
	.byte	$04
	.byte	$A9
	.byte	$02
	.byte	$04
	.byte	$67
	.byte	$02
	.byte	$06
	.byte	$85
	.byte	$02
	.byte	$06
	.byte	$93
	.byte	$02
	.byte	$06
	.byte	$2C
	.byte	$01
	.byte	$05
	.byte	$3A
	.byte	$01
	.byte	$02
	.byte	$8A
	.byte	$01
	.byte	$01
	.byte	$A8
	.byte	$01
	.byte	$01
	.byte	$96
	.byte	$01
	.byte	$01
	.byte	$2C
	.byte	$00
	.byte	$04
	.byte	$9C
	.byte	$00
	.byte	$04
	.byte	$FF
_level12:
	.byte	$4C
	.byte	$5A
	.byte	$47
	.byte	$00
	.byte	$00
	.byte	$05
	.byte	$A0
	.byte	$00
	.byte	$00
	.byte	$02
	.byte	$10
	.byte	$63
	.byte	$F7
	.byte	$49
	.byte	$E1
	.byte	$01
	.byte	$10
	.byte	$11
	.byte	$12
	.byte	$13
	.byte	$04
	.byte	$04
	.byte	$13
	.byte	$07
	.byte	$06
	.byte	$2C
	.byte	$13
	.byte	$01
	.byte	$11
	.byte	$08
	.byte	$07
	.byte	$11
	.byte	$1F
	.byte	$08
	.byte	$11
	.byte	$16
	.byte	$08
	.byte	$07
	.byte	$13
	.byte	$05
	.byte	$11
	.byte	$05
	.byte	$08
	.byte	$13
	.byte	$A2
	.byte	$17
	.byte	$18
	.byte	$19
	.byte	$2C
	.byte	$2C
	.byte	$0B
	.byte	$0E
	.byte	$11
	.byte	$06
	.byte	$08
	.byte	$28
	.byte	$18
	.byte	$18
	.byte	$18
	.byte	$28
	.byte	$2C
	.byte	$2C
	.byte	$11
	.byte	$05
	.byte	$08
	.byte	$27
	.byte	$2C
	.byte	$2C
	.byte	$12
	.byte	$08
	.byte	$12
	.byte	$03
	.byte	$11
	.byte	$05
	.byte	$08
	.byte	$24
	.byte	$27
	.byte	$2C
	.byte	$14
	.byte	$0D
	.byte	$15
	.byte	$11
	.byte	$09
	.byte	$08
	.byte	$12
	.byte	$09
	.byte	$13
	.byte	$02
	.byte	$0C
	.byte	$11
	.byte	$05
	.byte	$58
	.byte	$09
	.byte	$24
	.byte	$24
	.byte	$12
	.byte	$41
	.byte	$14
	.byte	$07
	.byte	$11
	.byte	$06
	.byte	$68
	.byte	$15
	.byte	$12
	.byte	$48
	.byte	$0F
	.byte	$11
	.byte	$07
	.byte	$28
	.byte	$1C
	.byte	$1D
	.byte	$12
	.byte	$04
	.byte	$13
	.byte	$41
	.byte	$2A
	.byte	$12
	.byte	$C8
	.byte	$0A
	.byte	$1E
	.byte	$1F
	.byte	$2C
	.byte	$2F
	.byte	$12
	.byte	$A9
	.byte	$12
	.byte	$A8
	.byte	$13
	.byte	$83
	.byte	$12
	.byte	$92
	.byte	$13
	.byte	$A4
	.byte	$11
	.byte	$13
	.byte	$08
	.byte	$30
	.byte	$11
	.byte	$0D
	.byte	$08
	.byte	$11
	.byte	$02
	.byte	$47
	.byte	$11
	.byte	$0B
	.byte	$08
	.byte	$12
	.byte	$89
	.byte	$12
	.byte	$88
	.byte	$04
	.byte	$0D
	.byte	$0D
	.byte	$11
	.byte	$03
	.byte	$A5
	.byte	$2F
	.byte	$2A
	.byte	$11
	.byte	$0B
	.byte	$18
	.byte	$2C
	.byte	$08
	.byte	$15
	.byte	$11
	.byte	$09
	.byte	$08
	.byte	$00
	.byte	$12
	.byte	$A5
	.byte	$11
	.byte	$06
	.byte	$08
	.byte	$2A
	.byte	$03
	.byte	$0F
	.byte	$02
	.byte	$2C
	.byte	$0E
	.byte	$11
	.byte	$07
	.byte	$28
	.byte	$2A
	.byte	$2A
	.byte	$2A
	.byte	$01
	.byte	$11
	.byte	$09
	.byte	$28
	.byte	$12
	.byte	$15
	.byte	$2A
	.byte	$11
	.byte	$04
	.byte	$7B
	.byte	$12
	.byte	$C8
	.byte	$2C
	.byte	$12
	.byte	$15
	.byte	$11
	.byte	$09
	.byte	$68
	.byte	$11
	.byte	$07
	.byte	$88
	.byte	$2A
	.byte	$11
	.byte	$04
	.byte	$D8
	.byte	$12
	.byte	$88
	.byte	$12
	.byte	$07
	.byte	$14
	.byte	$0D
	.byte	$0D
	.byte	$11
	.byte	$07
	.byte	$D8
	.byte	$12
	.byte	$65
	.byte	$2A
	.byte	$11
	.byte	$08
	.byte	$18
	.byte	$12
	.byte	$47
	.byte	$12
	.byte	$17
	.byte	$11
	.byte	$06
	.byte	$18
	.byte	$11
	.byte	$22
	.byte	$05
	.byte	$12
	.byte	$16
	.byte	$11
	.byte	$07
	.byte	$18
	.byte	$0B
	.byte	$09
	.byte	$12
	.byte	$96
	.byte	$11
	.byte	$08
	.byte	$38
	.byte	$12
	.byte	$90
	.byte	$11
	.byte	$09
	.byte	$68
	.byte	$11
	.byte	$0D
	.byte	$08
	.byte	$0C
	.byte	$0A
	.byte	$11
	.byte	$0C
	.byte	$08
	.byte	$11
	.byte	$06
	.byte	$17
	.byte	$11
	.byte	$06
	.byte	$08
	.byte	$0B
	.byte	$11
	.byte	$02
	.byte	$44
	.byte	$09
	.byte	$11
	.byte	$0C
	.byte	$A8
	.byte	$12
	.byte	$84
	.byte	$11
	.byte	$05
	.byte	$08
	.byte	$2F
	.byte	$13
	.byte	$21
	.byte	$11
	.byte	$09
	.byte	$08
	.byte	$00
	.byte	$0E
	.byte	$13
	.byte	$21
	.byte	$2C
	.byte	$08
	.byte	$0D
	.byte	$11
	.byte	$06
	.byte	$F8
	.byte	$0D
	.byte	$07
	.byte	$0D
	.byte	$07
	.byte	$12
	.byte	$C4
	.byte	$11
	.byte	$19
	.byte	$38
	.byte	$11
	.byte	$43
	.byte	$04
	.byte	$11
	.byte	$06
	.byte	$78
	.byte	$12
	.byte	$38
	.byte	$08
	.byte	$06
	.byte	$2C
	.byte	$14
	.byte	$11
	.byte	$06
	.byte	$B8
	.byte	$0B
	.byte	$12
	.byte	$7A
	.byte	$11
	.byte	$09
	.byte	$18
	.byte	$13
	.byte	$03
	.byte	$11
	.byte	$22
	.byte	$CA
	.byte	$11
	.byte	$2A
	.byte	$38
	.byte	$2A
	.byte	$11
	.byte	$05
	.byte	$7C
	.byte	$12
	.byte	$C8
	.byte	$2F
	.byte	$11
	.byte	$23
	.byte	$05
	.byte	$11
	.byte	$05
	.byte	$08
	.byte	$14
	.byte	$15
	.byte	$2C
	.byte	$0E
	.byte	$11
	.byte	$0A
	.byte	$08
	.byte	$12
	.byte	$F2
	.byte	$11
	.byte	$27
	.byte	$88
	.byte	$1C
	.byte	$1D
	.byte	$1C
	.byte	$1D
	.byte	$11
	.byte	$4A
	.byte	$28
	.byte	$1E
	.byte	$1F
	.byte	$1E
	.byte	$1F
	.byte	$12
	.byte	$02
	.byte	$11
	.byte	$0B
	.byte	$48
	.byte	$12
	.byte	$F5
	.byte	$12
	.byte	$88
	.byte	$04
	.byte	$05
	.byte	$09
	.byte	$12
	.byte	$35
	.byte	$00
	.byte	$11
	.byte	$08
	.byte	$08
	.byte	$04
	.byte	$04
	.byte	$12
	.byte	$09
	.byte	$0F
	.byte	$00
	.byte	$11
	.byte	$06
	.byte	$48
	.byte	$12
	.byte	$08
	.byte	$12
	.byte	$89
	.byte	$11
	.byte	$06
	.byte	$48
	.byte	$12
	.byte	$48
	.byte	$12
	.byte	$49
	.byte	$11
	.byte	$06
	.byte	$48
	.byte	$11
	.byte	$64
	.byte	$47
	.byte	$11
	.byte	$23
	.byte	$09
	.byte	$12
	.byte	$88
	.byte	$11
	.byte	$26
	.byte	$66
	.byte	$11
	.byte	$48
	.byte	$18
	.byte	$13
	.byte	$03
	.byte	$11
	.byte	$50
	.byte	$18
	.byte	$11
	.byte	$0B
	.byte	$D8
	.byte	$11
	.byte	$09
	.byte	$A8
	.byte	$11
	.byte	$08
	.byte	$3D
	.byte	$11
	.byte	$1C
	.byte	$08
	.byte	$11
	.byte	$43
	.byte	$D8
	.byte	$11
	.byte	$02
	.byte	$75
	.byte	$12
	.byte	$7A
	.byte	$11
	.byte	$0A
	.byte	$18
	.byte	$11
	.byte	$2C
	.byte	$98
	.byte	$11
	.byte	$1B
	.byte	$08
	.byte	$12
	.byte	$82
	.byte	$0B
	.byte	$09
	.byte	$11
	.byte	$35
	.byte	$18
	.byte	$11
	.byte	$66
	.byte	$68
	.byte	$11
	.byte	$0A
	.byte	$08
	.byte	$11
	.byte	$05
	.byte	$C5
	.byte	$11
	.byte	$06
	.byte	$08
	.byte	$11
	.byte	$03
	.byte	$B6
	.byte	$11
	.byte	$09
	.byte	$08
	.byte	$11
	.byte	$26
	.byte	$00
	.byte	$13
	.byte	$E3
	.byte	$04
	.byte	$11
	.byte	$02
	.byte	$96
	.byte	$16
	.byte	$16
	.byte	$13
	.byte	$81
	.byte	$11
	.byte	$67
	.byte	$D8
	.byte	$11
	.byte	$0B
	.byte	$18
	.byte	$12
	.byte	$48
	.byte	$29
	.byte	$13
	.byte	$01
	.byte	$11
	.byte	$09
	.byte	$08
	.byte	$11
	.byte	$43
	.byte	$99
	.byte	$0A
	.byte	$11
	.byte	$08
	.byte	$08
	.byte	$20
	.byte	$21
	.byte	$12
	.byte	$41
	.byte	$11
	.byte	$07
	.byte	$08
	.byte	$28
	.byte	$22
	.byte	$23
	.byte	$28
	.byte	$11
	.byte	$2B
	.byte	$08
	.byte	$22
	.byte	$23
	.byte	$11
	.byte	$09
	.byte	$18
	.byte	$04
	.byte	$05
	.byte	$13
	.byte	$07
	.byte	$11
	.byte	$03
	.byte	$68
.segment	"RODATA"
.segment	"BANK0"
_level13_enemy:
	.byte	$49
	.byte	$02
	.byte	$04
	.byte	$75
	.byte	$02
	.byte	$04
	.byte	$44
	.byte	$02
	.byte	$06
	.byte	$40
	.byte	$02
	.byte	$01
	.byte	$3E
	.byte	$01
	.byte	$01
	.byte	$2D
	.byte	$01
	.byte	$01
	.byte	$2A
	.byte	$01
	.byte	$06
	.byte	$65
	.byte	$01
	.byte	$04
	.byte	$55
	.byte	$01
	.byte	$0A
	.byte	$45
	.byte	$01
	.byte	$0A
	.byte	$19
	.byte	$00
	.byte	$06
	.byte	$39
	.byte	$00
	.byte	$06
	.byte	$79
	.byte	$00
	.byte	$06
	.byte	$FF
_level13:
	.byte	$4C
	.byte	$5A
	.byte	$47
	.byte	$00
	.byte	$00
	.byte	$02
	.byte	$D0
	.byte	$00
	.byte	$00
	.byte	$00
	.byte	$FC
	.byte	$47
	.byte	$14
	.byte	$1F
	.byte	$AB
	.byte	$01
	.byte	$01
	.byte	$02
	.byte	$03
	.byte	$08
	.byte	$04
	.byte	$07
	.byte	$08
	.byte	$07
	.byte	$06
	.byte	$2C
	.byte	$08
	.byte	$01
	.byte	$08
	.byte	$83
	.byte	$08
	.byte	$04
	.byte	$0E
	.byte	$02
	.byte	$1D
	.byte	$08
	.byte	$02
	.byte	$14
	.byte	$08
	.byte	$14
	.byte	$0D
	.byte	$08
	.byte	$03
	.byte	$09
	.byte	$02
	.byte	$0D
	.byte	$18
	.byte	$0E
	.byte	$02
	.byte	$06
	.byte	$08
	.byte	$28
	.byte	$2C
	.byte	$0F
	.byte	$28
	.byte	$02
	.byte	$0A
	.byte	$08
	.byte	$2C
	.byte	$20
	.byte	$21
	.byte	$02
	.byte	$09
	.byte	$18
	.byte	$04
	.byte	$03
	.byte	$F6
	.byte	$15
	.byte	$02
	.byte	$09
	.byte	$18
	.byte	$02
	.byte	$0D
	.byte	$38
	.byte	$02
	.byte	$1D
	.byte	$08
	.byte	$2C
	.byte	$0C
	.byte	$05
	.byte	$08
	.byte	$02
	.byte	$06
	.byte	$02
	.byte	$07
	.byte	$08
	.byte	$0B
	.byte	$07
	.byte	$04
	.byte	$07
	.byte	$07
	.byte	$07
	.byte	$0A
	.byte	$02
	.byte	$08
	.byte	$88
	.byte	$28
	.byte	$03
	.byte	$82
	.byte	$02
	.byte	$09
	.byte	$38
	.byte	$02
	.byte	$09
	.byte	$08
	.byte	$04
	.byte	$0D
	.byte	$15
	.byte	$2C
	.byte	$14
	.byte	$07
	.byte	$0D
	.byte	$09
	.byte	$2C
	.byte	$14
	.byte	$0D
	.byte	$02
	.byte	$2A
	.byte	$28
	.byte	$03
	.byte	$54
	.byte	$02
	.byte	$0A
	.byte	$68
	.byte	$0B
	.byte	$02
	.byte	$08
	.byte	$E8
	.byte	$16
	.byte	$2C
	.byte	$2C
	.byte	$28
	.byte	$1C
	.byte	$1D
	.byte	$28
	.byte	$02
	.byte	$0B
	.byte	$88
	.byte	$1E
	.byte	$1F
	.byte	$02
	.byte	$17
	.byte	$98
	.byte	$29
	.byte	$2C
	.byte	$29
	.byte	$02
	.byte	$0A
	.byte	$08
	.byte	$04
	.byte	$02
	.byte	$02
	.byte	$F4
	.byte	$2C
	.byte	$2C
	.byte	$2A
	.byte	$2A
	.byte	$02
	.byte	$0C
	.byte	$28
	.byte	$2A
	.byte	$16
	.byte	$02
	.byte	$1C
	.byte	$E8
	.byte	$02
	.byte	$0A
	.byte	$08
	.byte	$0C
	.byte	$02
	.byte	$07
	.byte	$D8
	.byte	$08
	.byte	$04
	.byte	$30
	.byte	$02
	.byte	$0B
	.byte	$A8
	.byte	$0C
	.byte	$02
	.byte	$02
	.byte	$5C
	.byte	$03
	.byte	$C8
	.byte	$02
	.byte	$02
	.byte	$A4
	.byte	$03
	.byte	$83
	.byte	$00
	.byte	$03
	.byte	$C8
	.byte	$02
	.byte	$02
	.byte	$A4
	.byte	$03
	.byte	$88
	.byte	$14
	.byte	$02
	.byte	$06
	.byte	$E8
	.byte	$0C
	.byte	$02
	.byte	$22
	.byte	$35
	.byte	$02
	.byte	$07
	.byte	$28
	.byte	$2C
	.byte	$14
	.byte	$02
	.byte	$42
	.byte	$34
	.byte	$0D
	.byte	$09
	.byte	$1C
	.byte	$1D
	.byte	$02
	.byte	$0B
	.byte	$58
	.byte	$0E
	.byte	$1E
	.byte	$1F
	.byte	$02
	.byte	$0C
	.byte	$08
	.byte	$02
	.byte	$19
	.byte	$18
	.byte	$0F
	.byte	$02
	.byte	$0B
	.byte	$18
	.byte	$02
	.byte	$25
	.byte	$F7
	.byte	$02
	.byte	$07
	.byte	$18
	.byte	$22
	.byte	$23
	.byte	$08
	.byte	$C1
	.byte	$0C
	.byte	$06
	.byte	$17
	.byte	$19
	.byte	$02
	.byte	$09
	.byte	$08
	.byte	$0C
	.byte	$04
	.byte	$06
	.byte	$18
	.byte	$18
	.byte	$03
	.byte	$88
	.byte	$04
	.byte	$02
	.byte	$23
	.byte	$C5
	.byte	$04
	.byte	$04
	.byte	$08
	.byte	$E1
	.byte	$02
	.byte	$03
	.byte	$53
.segment	"RODATA"
.segment	"BANK0"
_level14_enemy:
	.byte	$7D
	.byte	$01
	.byte	$03
	.byte	$28
	.byte	$01
	.byte	$03
	.byte	$74
	.byte	$01
	.byte	$03
	.byte	$54
	.byte	$01
	.byte	$03
	.byte	$20
	.byte	$01
	.byte	$06
	.byte	$FF
_level14:
	.byte	$4C
	.byte	$5A
	.byte	$47
	.byte	$00
	.byte	$00
	.byte	$01
	.byte	$E0
	.byte	$00
	.byte	$00
	.byte	$00
	.byte	$A4
	.byte	$6F
	.byte	$99
	.byte	$10
	.byte	$74
	.byte	$01
	.byte	$01
	.byte	$02
	.byte	$03
	.byte	$0F
	.byte	$04
	.byte	$07
	.byte	$0F
	.byte	$07
	.byte	$06
	.byte	$2C
	.byte	$0F
	.byte	$01
	.byte	$0F
	.byte	$83
	.byte	$0F
	.byte	$04
	.byte	$0E
	.byte	$02
	.byte	$1F
	.byte	$08
	.byte	$02
	.byte	$13
	.byte	$08
	.byte	$17
	.byte	$19
	.byte	$2C
	.byte	$2F
	.byte	$02
	.byte	$0A
	.byte	$08
	.byte	$18
	.byte	$18
	.byte	$03
	.byte	$C1
	.byte	$02
	.byte	$05
	.byte	$08
	.byte	$04
	.byte	$0D
	.byte	$15
	.byte	$03
	.byte	$01
	.byte	$0C
	.byte	$0D
	.byte	$05
	.byte	$09
	.byte	$02
	.byte	$08
	.byte	$38
	.byte	$30
	.byte	$2C
	.byte	$0E
	.byte	$2A
	.byte	$08
	.byte	$06
	.byte	$02
	.byte	$0A
	.byte	$48
	.byte	$03
	.byte	$08
	.byte	$0A
	.byte	$02
	.byte	$06
	.byte	$28
	.byte	$0F
	.byte	$01
	.byte	$05
	.byte	$06
	.byte	$2A
	.byte	$03
	.byte	$05
	.byte	$02
	.byte	$08
	.byte	$18
	.byte	$08
	.byte	$02
	.byte	$0D
	.byte	$08
	.byte	$0B
	.byte	$0A
	.byte	$2A
	.byte	$0B
	.byte	$02
	.byte	$02
	.byte	$4F
	.byte	$02
	.byte	$15
	.byte	$98
	.byte	$0C
	.byte	$03
	.byte	$3A
	.byte	$0F
	.byte	$01
	.byte	$02
	.byte	$27
	.byte	$38
	.byte	$0E
	.byte	$2A
	.byte	$2A
	.byte	$08
	.byte	$04
	.byte	$02
	.byte	$27
	.byte	$48
	.byte	$14
	.byte	$0D
	.byte	$0A
	.byte	$2A
	.byte	$2A
	.byte	$0B
	.byte	$0A
	.byte	$02
	.byte	$15
	.byte	$C8
	.byte	$02
	.byte	$03
	.byte	$78
	.byte	$0F
	.byte	$02
	.byte	$02
	.byte	$07
	.byte	$58
	.byte	$28
	.byte	$0F
	.byte	$01
	.byte	$02
	.byte	$0A
	.byte	$58
	.byte	$28
	.byte	$20
	.byte	$21
	.byte	$28
	.byte	$2C
	.byte	$14
	.byte	$09
	.byte	$2A
	.byte	$02
	.byte	$02
	.byte	$8B
	.byte	$03
	.byte	$88
	.byte	$22
	.byte	$23
	.byte	$03
	.byte	$18
	.byte	$0E
	.byte	$02
	.byte	$0E
	.byte	$08
	.byte	$00
	.byte	$00
	.byte	$03
	.byte	$88
	.byte	$04
	.byte	$02
	.byte	$02
	.byte	$82
	.byte	$0F
	.byte	$01
	.byte	$0F
	.byte	$E1
	.byte	$02
	.byte	$03
	.byte	$63
.segment	"RODATA"
.segment	"BANK0"
_level15_enemy:
	.byte	$78
	.byte	$05
	.byte	$06
	.byte	$44
	.byte	$05
	.byte	$03
	.byte	$60
	.byte	$05
	.byte	$01
	.byte	$9D
	.byte	$04
	.byte	$04
	.byte	$AA
	.byte	$04
	.byte	$05
	.byte	$44
	.byte	$04
	.byte	$04
	.byte	$8D
	.byte	$03
	.byte	$03
	.byte	$29
	.byte	$03
	.byte	$01
	.byte	$3E
	.byte	$02
	.byte	$03
	.byte	$8E
	.byte	$02
	.byte	$06
	.byte	$9B
	.byte	$02
	.byte	$05
	.byte	$13
	.byte	$01
	.byte	$03
	.byte	$FF
_level15:
	.byte	$4C
	.byte	$5A
	.byte	$47
	.byte	$00
	.byte	$00
	.byte	$05
	.byte	$A0
	.byte	$00
	.byte	$00
	.byte	$02
	.byte	$57
	.byte	$61
	.byte	$EC
	.byte	$5E
	.byte	$A9
	.byte	$01
	.byte	$1A
	.byte	$1B
	.byte	$24
	.byte	$25
	.byte	$04
	.byte	$0D
	.byte	$25
	.byte	$07
	.byte	$06
	.byte	$2C
	.byte	$25
	.byte	$01
	.byte	$25
	.byte	$83
	.byte	$25
	.byte	$04
	.byte	$0E
	.byte	$1B
	.byte	$1F
	.byte	$08
	.byte	$25
	.byte	$82
	.byte	$04
	.byte	$05
	.byte	$05
	.byte	$09
	.byte	$2C
	.byte	$2F
	.byte	$25
	.byte	$21
	.byte	$0C
	.byte	$05
	.byte	$24
	.byte	$93
	.byte	$04
	.byte	$04
	.byte	$04
	.byte	$06
	.byte	$24
	.byte	$12
	.byte	$0E
	.byte	$2C
	.byte	$0B
	.byte	$25
	.byte	$E1
	.byte	$24
	.byte	$C8
	.byte	$0A
	.byte	$24
	.byte	$88
	.byte	$2C
	.byte	$08
	.byte	$24
	.byte	$C8
	.byte	$07
	.byte	$0A
	.byte	$24
	.byte	$72
	.byte	$24
	.byte	$08
	.byte	$0B
	.byte	$1B
	.byte	$08
	.byte	$C8
	.byte	$24
	.byte	$88
	.byte	$1B
	.byte	$08
	.byte	$58
	.byte	$0C
	.byte	$0A
	.byte	$2C
	.byte	$0B
	.byte	$09
	.byte	$1B
	.byte	$09
	.byte	$08
	.byte	$1B
	.byte	$05
	.byte	$15
	.byte	$1B
	.byte	$09
	.byte	$08
	.byte	$2A
	.byte	$1B
	.byte	$09
	.byte	$08
	.byte	$29
	.byte	$1B
	.byte	$0B
	.byte	$08
	.byte	$04
	.byte	$0D
	.byte	$15
	.byte	$1B
	.byte	$0D
	.byte	$18
	.byte	$1B
	.byte	$10
	.byte	$38
	.byte	$30
	.byte	$00
	.byte	$25
	.byte	$61
	.byte	$1B
	.byte	$07
	.byte	$08
	.byte	$24
	.byte	$05
	.byte	$2F
	.byte	$24
	.byte	$29
	.byte	$2F
	.byte	$1B
	.byte	$05
	.byte	$08
	.byte	$03
	.byte	$0F
	.byte	$02
	.byte	$1B
	.byte	$05
	.byte	$39
	.byte	$24
	.byte	$C8
	.byte	$2C
	.byte	$01
	.byte	$24
	.byte	$65
	.byte	$2A
	.byte	$00
	.byte	$30
	.byte	$1B
	.byte	$08
	.byte	$38
	.byte	$2F
	.byte	$2C
	.byte	$2C
	.byte	$00
	.byte	$0F
	.byte	$1B
	.byte	$08
	.byte	$48
	.byte	$0C
	.byte	$0A
	.byte	$2C
	.byte	$2A
	.byte	$24
	.byte	$0B
	.byte	$1B
	.byte	$07
	.byte	$08
	.byte	$30
	.byte	$24
	.byte	$17
	.byte	$25
	.byte	$61
	.byte	$1B
	.byte	$06
	.byte	$08
	.byte	$2F
	.byte	$2A
	.byte	$24
	.byte	$AA
	.byte	$1B
	.byte	$07
	.byte	$08
	.byte	$0E
	.byte	$24
	.byte	$08
	.byte	$24
	.byte	$83
	.byte	$1B
	.byte	$05
	.byte	$08
	.byte	$1B
	.byte	$02
	.byte	$86
	.byte	$1B
	.byte	$02
	.byte	$E7
	.byte	$1B
	.byte	$07
	.byte	$38
	.byte	$2F
	.byte	$1B
	.byte	$04
	.byte	$97
	.byte	$1B
	.byte	$07
	.byte	$08
	.byte	$24
	.byte	$15
	.byte	$1B
	.byte	$02
	.byte	$97
	.byte	$1B
	.byte	$16
	.byte	$F8
	.byte	$1B
	.byte	$0F
	.byte	$08
	.byte	$14
	.byte	$0A
	.byte	$25
	.byte	$E1
	.byte	$1B
	.byte	$08
	.byte	$D8
	.byte	$1B
	.byte	$02
	.byte	$78
	.byte	$2C
	.byte	$1B
	.byte	$02
	.byte	$9A
	.byte	$1B
	.byte	$09
	.byte	$78
	.byte	$24
	.byte	$08
	.byte	$1B
	.byte	$07
	.byte	$D8
	.byte	$1B
	.byte	$0F
	.byte	$08
	.byte	$00
	.byte	$00
	.byte	$2C
	.byte	$2C
	.byte	$00
	.byte	$00
	.byte	$1B
	.byte	$07
	.byte	$08
	.byte	$0B
	.byte	$0D
	.byte	$09
	.byte	$2C
	.byte	$2C
	.byte	$0C
	.byte	$0D
	.byte	$1B
	.byte	$22
	.byte	$BE
	.byte	$1B
	.byte	$06
	.byte	$68
	.byte	$00
	.byte	$1B
	.byte	$2B
	.byte	$A8
	.byte	$14
	.byte	$04
	.byte	$15
	.byte	$2C
	.byte	$08
	.byte	$15
	.byte	$1B
	.byte	$0A
	.byte	$88
	.byte	$1B
	.byte	$03
	.byte	$87
	.byte	$1B
	.byte	$16
	.byte	$08
	.byte	$14
	.byte	$0D
	.byte	$06
	.byte	$2A
	.byte	$2A
	.byte	$08
	.byte	$1B
	.byte	$23
	.byte	$9F
	.byte	$1B
	.byte	$07
	.byte	$18
	.byte	$00
	.byte	$1B
	.byte	$0A
	.byte	$28
	.byte	$26
	.byte	$0E
	.byte	$2A
	.byte	$14
	.byte	$1B
	.byte	$26
	.byte	$AF
	.byte	$24
	.byte	$08
	.byte	$26
	.byte	$1B
	.byte	$02
	.byte	$C8
	.byte	$0B
	.byte	$1B
	.byte	$08
	.byte	$58
	.byte	$2F
	.byte	$1C
	.byte	$1D
	.byte	$2C
	.byte	$2C
	.byte	$1C
	.byte	$1D
	.byte	$1B
	.byte	$08
	.byte	$C8
	.byte	$1E
	.byte	$1F
	.byte	$2C
	.byte	$2C
	.byte	$1E
	.byte	$1F
	.byte	$1B
	.byte	$07
	.byte	$A8
	.byte	$08
	.byte	$09
	.byte	$1B
	.byte	$02
	.byte	$B8
	.byte	$0C
	.byte	$24
	.byte	$11
	.byte	$24
	.byte	$C8
	.byte	$0B
	.byte	$07
	.byte	$09
	.byte	$02
	.byte	$2C
	.byte	$0C
	.byte	$1B
	.byte	$43
	.byte	$7E
	.byte	$1B
	.byte	$27
	.byte	$28
	.byte	$1B
	.byte	$43
	.byte	$85
	.byte	$1B
	.byte	$0B
	.byte	$08
	.byte	$04
	.byte	$1B
	.byte	$07
	.byte	$88
	.byte	$0F
	.byte	$24
	.byte	$01
	.byte	$03
	.byte	$08
	.byte	$1B
	.byte	$43
	.byte	$9E
	.byte	$24
	.byte	$48
	.byte	$28
	.byte	$1C
	.byte	$1D
	.byte	$24
	.byte	$01
	.byte	$0E
	.byte	$1C
	.byte	$1D
	.byte	$28
	.byte	$24
	.byte	$C8
	.byte	$1B
	.byte	$03
	.byte	$63
	.byte	$1B
	.byte	$03
	.byte	$6D
	.byte	$1B
	.byte	$08
	.byte	$38
	.byte	$1B
	.byte	$42
	.byte	$2A
	.byte	$1B
	.byte	$0A
	.byte	$48
	.byte	$17
	.byte	$19
	.byte	$08
	.byte	$05
	.byte	$09
	.byte	$24
	.byte	$C8
	.byte	$04
	.byte	$1B
	.byte	$02
	.byte	$B1
	.byte	$18
	.byte	$18
	.byte	$08
	.byte	$1B
	.byte	$63
	.byte	$0E
	.byte	$1B
	.byte	$05
	.byte	$18
	.byte	$0B
	.byte	$0D
	.byte	$0D
	.byte	$07
	.byte	$1B
	.byte	$08
	.byte	$08
	.byte	$1C
	.byte	$1D
	.byte	$25
	.byte	$42
	.byte	$08
	.byte	$1B
	.byte	$07
	.byte	$98
	.byte	$1E
	.byte	$1F
	.byte	$25
	.byte	$41
	.byte	$26
	.byte	$1B
	.byte	$28
	.byte	$B8
	.byte	$25
	.byte	$03
	.byte	$0F
	.byte	$2C
	.byte	$2C
	.byte	$0C
	.byte	$1B
	.byte	$65
	.byte	$23
	.byte	$24
	.byte	$03
	.byte	$25
	.byte	$62
	.byte	$14
	.byte	$1B
	.byte	$64
	.byte	$58
	.byte	$25
	.byte	$83
	.byte	$24
	.byte	$07
	.byte	$0F
	.byte	$16
	.byte	$1B
	.byte	$64
	.byte	$58
	.byte	$25
	.byte	$81
	.byte	$26
	.byte	$0F
	.byte	$2C
	.byte	$26
	.byte	$2F
	.byte	$1B
	.byte	$66
	.byte	$68
	.byte	$06
	.byte	$24
	.byte	$47
	.byte	$24
	.byte	$B4
	.byte	$1B
	.byte	$06
	.byte	$08
	.byte	$1B
	.byte	$05
	.byte	$34
	.byte	$14
	.byte	$07
	.byte	$1B
	.byte	$06
	.byte	$28
	.byte	$24
	.byte	$24
	.byte	$1B
	.byte	$63
	.byte	$84
	.byte	$1B
	.byte	$49
	.byte	$68
	.byte	$1B
	.byte	$0B
	.byte	$C8
	.byte	$29
	.byte	$30
	.byte	$1B
	.byte	$4C
	.byte	$88
	.byte	$0F
	.byte	$28
	.byte	$1C
	.byte	$1D
	.byte	$28
	.byte	$1B
	.byte	$47
	.byte	$F8
	.byte	$24
	.byte	$05
	.byte	$2F
	.byte	$1E
	.byte	$1F
	.byte	$2F
	.byte	$1B
	.byte	$3B
	.byte	$18
	.byte	$1B
	.byte	$09
	.byte	$48
	.byte	$1B
	.byte	$22
	.byte	$08
	.byte	$1B
	.byte	$04
	.byte	$48
	.byte	$1B
	.byte	$23
	.byte	$DC
	.byte	$1B
	.byte	$9C
	.byte	$68
	.byte	$10
	.byte	$2D
	.byte	$2D
	.byte	$11
	.byte	$1B
	.byte	$0A
	.byte	$08
	.byte	$1B
	.byte	$24
	.byte	$28
	.byte	$25
	.byte	$41
	.byte	$1B
	.byte	$2A
	.byte	$28
	.byte	$25
	.byte	$42
	.byte	$1B
	.byte	$15
	.byte	$38
	.byte	$2C
	.byte	$2A
	.byte	$2A
	.byte	$2C
	.byte	$12
	.byte	$2E
	.byte	$13
	.byte	$1B
	.byte	$08
	.byte	$08
	.byte	$00
	.byte	$00
	.byte	$1B
	.byte	$0B
	.byte	$38
	.byte	$2C
	.byte	$14
	.byte	$15
	.byte	$1B
	.byte	$0C
	.byte	$38
	.byte	$20
	.byte	$21
	.byte	$28
	.byte	$1B
	.byte	$09
	.byte	$38
	.byte	$2A
	.byte	$2A
	.byte	$22
	.byte	$23
	.byte	$24
	.byte	$3B
	.byte	$25
	.byte	$01
	.byte	$24
	.byte	$88
	.byte	$04
	.byte	$00
	.byte	$00
	.byte	$0C
	.byte	$05
	.byte	$09
	.byte	$00
	.byte	$25
	.byte	$02
	.byte	$1B
	.byte	$03
	.byte	$63
.segment	"RODATA"
.segment	"BANK0"
_level16_enemy:
	.byte	$27
	.byte	$00
	.byte	$04
	.byte	$97
	.byte	$00
	.byte	$04
	.byte	$FF
_level16:
	.byte	$4C
	.byte	$5A
	.byte	$47
	.byte	$00
	.byte	$00
	.byte	$00
	.byte	$F0
	.byte	$00
	.byte	$00
	.byte	$00
	.byte	$6E
	.byte	$E4
	.byte	$54
	.byte	$08
	.byte	$B2
	.byte	$01
	.byte	$01
	.byte	$02
	.byte	$03
	.byte	$0A
	.byte	$04
	.byte	$07
	.byte	$0A
	.byte	$07
	.byte	$06
	.byte	$2C
	.byte	$0A
	.byte	$01
	.byte	$0A
	.byte	$83
	.byte	$0A
	.byte	$04
	.byte	$0E
	.byte	$02
	.byte	$05
	.byte	$08
	.byte	$1C
	.byte	$1D
	.byte	$02
	.byte	$0A
	.byte	$08
	.byte	$26
	.byte	$24
	.byte	$0A
	.byte	$01
	.byte	$27
	.byte	$03
	.byte	$02
	.byte	$29
	.byte	$03
	.byte	$88
	.byte	$04
	.byte	$05
	.byte	$0D
	.byte	$0A
	.byte	$01
	.byte	$09
	.byte	$17
	.byte	$19
	.byte	$2C
	.byte	$0C
	.byte	$03
	.byte	$B3
	.byte	$04
	.byte	$06
	.byte	$16
	.byte	$03
	.byte	$63
	.byte	$18
	.byte	$18
	.byte	$2C
	.byte	$08
	.byte	$02
	.byte	$05
	.byte	$08
	.byte	$0A
	.byte	$A2
	.byte	$0B
	.byte	$0D
	.byte	$15
	.byte	$02
	.byte	$0B
	.byte	$08
	.byte	$0A
	.byte	$02
	.byte	$02
	.byte	$0A
	.byte	$08
	.byte	$28
	.byte	$0A
	.byte	$21
	.byte	$02
	.byte	$17
	.byte	$18
	.byte	$20
	.byte	$21
	.byte	$28
	.byte	$03
	.byte	$5B
	.byte	$02
	.byte	$07
	.byte	$08
	.byte	$22
	.byte	$23
	.byte	$02
	.byte	$0C
	.byte	$28
	.byte	$03
	.byte	$08
	.byte	$03
	.byte	$07
	.byte	$02
	.byte	$07
	.byte	$08
	.byte	$00
	.byte	$0A
	.byte	$05
	.byte	$02
	.byte	$05
	.byte	$08
	.byte	$04
	.byte	$05
	.byte	$0A
	.byte	$06
	.byte	$03
	.byte	$88
.segment	"RODATA"
.segment	"BANK0"
_level17_enemy:
	.byte	$88
	.byte	$02
	.byte	$04
	.byte	$96
	.byte	$02
	.byte	$06
	.byte	$72
	.byte	$02
	.byte	$06
	.byte	$2C
	.byte	$01
	.byte	$07
	.byte	$6C
	.byte	$01
	.byte	$07
	.byte	$9C
	.byte	$01
	.byte	$07
	.byte	$59
	.byte	$01
	.byte	$03
	.byte	$66
	.byte	$01
	.byte	$07
	.byte	$44
	.byte	$01
	.byte	$07
	.byte	$94
	.byte	$01
	.byte	$07
	.byte	$52
	.byte	$01
	.byte	$03
	.byte	$49
	.byte	$00
	.byte	$07
	.byte	$59
	.byte	$00
	.byte	$07
	.byte	$79
	.byte	$00
	.byte	$07
	.byte	$FF
_level17:
	.byte	$4C
	.byte	$5A
	.byte	$47
	.byte	$00
	.byte	$00
	.byte	$02
	.byte	$D0
	.byte	$00
	.byte	$00
	.byte	$01
	.byte	$10
	.byte	$5D
	.byte	$92
	.byte	$1F
	.byte	$85
	.byte	$01
	.byte	$00
	.byte	$02
	.byte	$03
	.byte	$08
	.byte	$04
	.byte	$04
	.byte	$08
	.byte	$07
	.byte	$06
	.byte	$2C
	.byte	$08
	.byte	$01
	.byte	$02
	.byte	$08
	.byte	$07
	.byte	$02
	.byte	$1D
	.byte	$08
	.byte	$02
	.byte	$05
	.byte	$08
	.byte	$07
	.byte	$08
	.byte	$07
	.byte	$03
	.byte	$88
	.byte	$08
	.byte	$83
	.byte	$08
	.byte	$01
	.byte	$17
	.byte	$19
	.byte	$2C
	.byte	$0E
	.byte	$02
	.byte	$0A
	.byte	$08
	.byte	$18
	.byte	$18
	.byte	$02
	.byte	$06
	.byte	$08
	.byte	$14
	.byte	$0D
	.byte	$08
	.byte	$05
	.byte	$02
	.byte	$0B
	.byte	$28
	.byte	$08
	.byte	$01
	.byte	$02
	.byte	$09
	.byte	$28
	.byte	$2F
	.byte	$08
	.byte	$21
	.byte	$03
	.byte	$C8
	.byte	$04
	.byte	$0D
	.byte	$0D
	.byte	$09
	.byte	$03
	.byte	$43
	.byte	$03
	.byte	$05
	.byte	$02
	.byte	$06
	.byte	$18
	.byte	$0B
	.byte	$0D
	.byte	$0D
	.byte	$07
	.byte	$0D
	.byte	$0A
	.byte	$02
	.byte	$06
	.byte	$08
	.byte	$2A
	.byte	$02
	.byte	$0D
	.byte	$38
	.byte	$27
	.byte	$2A
	.byte	$02
	.byte	$06
	.byte	$5A
	.byte	$02
	.byte	$04
	.byte	$58
	.byte	$24
	.byte	$03
	.byte	$09
	.byte	$01
	.byte	$08
	.byte	$03
	.byte	$03
	.byte	$D8
	.byte	$24
	.byte	$03
	.byte	$09
	.byte	$20
	.byte	$21
	.byte	$02
	.byte	$08
	.byte	$28
	.byte	$24
	.byte	$03
	.byte	$09
	.byte	$22
	.byte	$23
	.byte	$02
	.byte	$07
	.byte	$08
	.byte	$04
	.byte	$02
	.byte	$06
	.byte	$96
	.byte	$15
	.byte	$02
	.byte	$0C
	.byte	$B8
	.byte	$02
	.byte	$07
	.byte	$28
	.byte	$16
	.byte	$16
	.byte	$08
	.byte	$C2
	.byte	$03
	.byte	$7A
	.byte	$02
	.byte	$0A
	.byte	$18
	.byte	$03
	.byte	$7A
	.byte	$02
	.byte	$07
	.byte	$08
	.byte	$12
	.byte	$2E
	.byte	$08
	.byte	$02
	.byte	$13
	.byte	$03
	.byte	$C8
	.byte	$03
	.byte	$62
	.byte	$02
	.byte	$0A
	.byte	$68
	.byte	$03
	.byte	$62
	.byte	$02
	.byte	$09
	.byte	$68
	.byte	$06
	.byte	$10
	.byte	$2D
	.byte	$08
	.byte	$04
	.byte	$11
	.byte	$02
	.byte	$15
	.byte	$68
	.byte	$03
	.byte	$76
	.byte	$28
	.byte	$28
	.byte	$02
	.byte	$0A
	.byte	$68
	.byte	$02
	.byte	$06
	.byte	$3A
	.byte	$02
	.byte	$05
	.byte	$08
	.byte	$02
	.byte	$07
	.byte	$39
	.byte	$02
	.byte	$15
	.byte	$38
	.byte	$03
	.byte	$33
	.byte	$02
	.byte	$0A
	.byte	$78
	.byte	$03
	.byte	$73
	.byte	$02
	.byte	$10
	.byte	$E8
	.byte	$15
	.byte	$02
	.byte	$09
	.byte	$68
	.byte	$02
	.byte	$0E
	.byte	$78
	.byte	$2C
	.byte	$2C
	.byte	$26
	.byte	$27
	.byte	$02
	.byte	$0B
	.byte	$08
	.byte	$26
	.byte	$24
	.byte	$24
	.byte	$03
	.byte	$49
	.byte	$02
	.byte	$06
	.byte	$08
	.byte	$02
	.byte	$26
	.byte	$C9
	.byte	$02
	.byte	$2D
	.byte	$C8
	.byte	$26
	.byte	$02
	.byte	$0C
	.byte	$48
	.byte	$26
	.byte	$24
	.byte	$02
	.byte	$05
	.byte	$08
	.byte	$2A
	.byte	$08
	.byte	$01
	.byte	$03
	.byte	$BC
	.byte	$02
	.byte	$06
	.byte	$08
	.byte	$20
	.byte	$21
	.byte	$2A
	.byte	$03
	.byte	$47
	.byte	$02
	.byte	$05
	.byte	$08
	.byte	$27
	.byte	$28
	.byte	$22
	.byte	$23
	.byte	$28
	.byte	$03
	.byte	$47
	.byte	$02
	.byte	$05
	.byte	$08
	.byte	$02
	.byte	$22
	.byte	$96
	.byte	$03
	.byte	$87
	.byte	$03
	.byte	$C8
	.byte	$04
	.byte	$05
	.byte	$08
	.byte	$07
	.byte	$02
	.byte	$03
	.byte	$53
.segment	"RODATA"
.segment	"BANK0"
_level18_enemy:
	.byte	$1B
	.byte	$00
	.byte	$04
	.byte	$8D
	.byte	$00
	.byte	$03
	.byte	$17
	.byte	$00
	.byte	$07
	.byte	$26
	.byte	$00
	.byte	$07
	.byte	$FF
_level18:
	.byte	$4C
	.byte	$5A
	.byte	$47
	.byte	$00
	.byte	$00
	.byte	$00
	.byte	$F0
	.byte	$00
	.byte	$00
	.byte	$00
	.byte	$6C
	.byte	$DC
	.byte	$3E
	.byte	$0A
	.byte	$34
	.byte	$01
	.byte	$00
	.byte	$01
	.byte	$02
	.byte	$03
	.byte	$04
	.byte	$04
	.byte	$03
	.byte	$07
	.byte	$06
	.byte	$2C
	.byte	$03
	.byte	$01
	.byte	$01
	.byte	$08
	.byte	$07
	.byte	$01
	.byte	$05
	.byte	$08
	.byte	$07
	.byte	$03
	.byte	$07
	.byte	$02
	.byte	$88
	.byte	$03
	.byte	$83
	.byte	$03
	.byte	$04
	.byte	$0E
	.byte	$01
	.byte	$15
	.byte	$08
	.byte	$2A
	.byte	$03
	.byte	$04
	.byte	$01
	.byte	$07
	.byte	$08
	.byte	$0C
	.byte	$0D
	.byte	$03
	.byte	$01
	.byte	$15
	.byte	$2A
	.byte	$0C
	.byte	$01
	.byte	$06
	.byte	$38
	.byte	$0E
	.byte	$02
	.byte	$D8
	.byte	$08
	.byte	$02
	.byte	$C8
	.byte	$17
	.byte	$19
	.byte	$0E
	.byte	$2A
	.byte	$14
	.byte	$02
	.byte	$5A
	.byte	$01
	.byte	$05
	.byte	$58
	.byte	$18
	.byte	$18
	.byte	$02
	.byte	$58
	.byte	$01
	.byte	$07
	.byte	$48
	.byte	$04
	.byte	$02
	.byte	$11
	.byte	$0D
	.byte	$0D
	.byte	$09
	.byte	$01
	.byte	$0A
	.byte	$58
	.byte	$20
	.byte	$21
	.byte	$2C
	.byte	$30
	.byte	$02
	.byte	$02
	.byte	$16
	.byte	$01
	.byte	$05
	.byte	$08
	.byte	$28
	.byte	$22
	.byte	$23
	.byte	$28
	.byte	$01
	.byte	$0B
	.byte	$78
	.byte	$22
	.byte	$23
	.byte	$01
	.byte	$09
	.byte	$88
	.byte	$04
	.byte	$05
	.byte	$03
	.byte	$07
	.byte	$01
	.byte	$03
	.byte	$58
.segment	"RODATA"
.segment	"BANK0"
_level19:
	.byte	$4C
	.byte	$5A
	.byte	$47
	.byte	$00
	.byte	$00
	.byte	$05
	.byte	$A0
	.byte	$00
	.byte	$00
	.byte	$01
	.byte	$E9
	.byte	$00
	.byte	$BE
	.byte	$3F
	.byte	$5A
	.byte	$01
	.byte	$01
	.byte	$02
	.byte	$03
	.byte	$10
	.byte	$04
	.byte	$0D
	.byte	$10
	.byte	$07
	.byte	$06
	.byte	$2C
	.byte	$10
	.byte	$01
	.byte	$06
	.byte	$2C
	.byte	$1C
	.byte	$1D
	.byte	$10
	.byte	$E2
	.byte	$10
	.byte	$01
	.byte	$0E
	.byte	$03
	.byte	$C8
	.byte	$1E
	.byte	$1F
	.byte	$02
	.byte	$0C
	.byte	$08
	.byte	$10
	.byte	$01
	.byte	$28
	.byte	$20
	.byte	$21
	.byte	$28
	.byte	$02
	.byte	$0A
	.byte	$08
	.byte	$2C
	.byte	$22
	.byte	$23
	.byte	$02
	.byte	$09
	.byte	$18
	.byte	$2F
	.byte	$2C
	.byte	$2C
	.byte	$0C
	.byte	$15
	.byte	$02
	.byte	$07
	.byte	$08
	.byte	$00
	.byte	$10
	.byte	$E1
	.byte	$00
	.byte	$03
	.byte	$03
	.byte	$00
	.byte	$10
	.byte	$82
	.byte	$2C
	.byte	$2C
	.byte	$04
	.byte	$15
	.byte	$03
	.byte	$08
	.byte	$14
	.byte	$06
	.byte	$1C
	.byte	$1D
	.byte	$14
	.byte	$02
	.byte	$06
	.byte	$68
	.byte	$03
	.byte	$60
	.byte	$0E
	.byte	$02
	.byte	$02
	.byte	$5D
	.byte	$02
	.byte	$06
	.byte	$38
	.byte	$03
	.byte	$48
	.byte	$02
	.byte	$0A
	.byte	$68
	.byte	$02
	.byte	$0F
	.byte	$08
	.byte	$02
	.byte	$02
	.byte	$4B
	.byte	$02
	.byte	$09
	.byte	$08
	.byte	$08
	.byte	$02
	.byte	$02
	.byte	$4B
	.byte	$02
	.byte	$0D
	.byte	$28
	.byte	$02
	.byte	$02
	.byte	$BD
	.byte	$02
	.byte	$09
	.byte	$08
	.byte	$30
	.byte	$02
	.byte	$0D
	.byte	$58
	.byte	$02
	.byte	$0B
	.byte	$C8
	.byte	$02
	.byte	$0C
	.byte	$08
	.byte	$02
	.byte	$05
	.byte	$A0
	.byte	$00
	.byte	$10
	.byte	$E5
	.byte	$04
	.byte	$05
	.byte	$0D
	.byte	$0A
	.byte	$2C
	.byte	$0C
	.byte	$05
	.byte	$10
	.byte	$02
	.byte	$02
	.byte	$03
	.byte	$A8
	.byte	$04
	.byte	$10
	.byte	$A2
	.byte	$08
	.byte	$04
	.byte	$10
	.byte	$02
	.byte	$02
	.byte	$05
	.byte	$08
	.byte	$1C
	.byte	$1D
	.byte	$02
	.byte	$0C
	.byte	$08
	.byte	$1E
	.byte	$1F
	.byte	$02
	.byte	$0C
	.byte	$08
	.byte	$02
	.byte	$0E
	.byte	$28
	.byte	$02
	.byte	$0D
	.byte	$08
	.byte	$04
	.byte	$15
	.byte	$02
	.byte	$1B
	.byte	$18
	.byte	$04
	.byte	$0A
	.byte	$02
	.byte	$0C
	.byte	$08
	.byte	$10
	.byte	$82
	.byte	$00
	.byte	$02
	.byte	$0C
	.byte	$08
	.byte	$00
	.byte	$0C
	.byte	$03
	.byte	$87
	.byte	$02
	.byte	$07
	.byte	$08
	.byte	$02
	.byte	$05
	.byte	$07
	.byte	$02
	.byte	$05
	.byte	$08
	.byte	$00
	.byte	$02
	.byte	$05
	.byte	$36
	.byte	$02
	.byte	$06
	.byte	$48
	.byte	$09
	.byte	$2C
	.byte	$0B
	.byte	$02
	.byte	$0B
	.byte	$08
	.byte	$10
	.byte	$A1
	.byte	$0B
	.byte	$07
	.byte	$02
	.byte	$0D
	.byte	$78
	.byte	$03
	.byte	$DB
	.byte	$03
	.byte	$82
	.byte	$08
	.byte	$0A
	.byte	$00
	.byte	$02
	.byte	$07
	.byte	$09
	.byte	$02
	.byte	$04
	.byte	$58
	.byte	$0F
	.byte	$03
	.byte	$89
	.byte	$02
	.byte	$02
	.byte	$4D
	.byte	$03
	.byte	$C8
	.byte	$03
	.byte	$C9
	.byte	$03
	.byte	$59
	.byte	$03
	.byte	$C8
	.byte	$1C
	.byte	$1D
	.byte	$0F
	.byte	$02
	.byte	$05
	.byte	$2A
	.byte	$03
	.byte	$C8
	.byte	$02
	.byte	$46
	.byte	$38
	.byte	$08
	.byte	$02
	.byte	$07
	.byte	$B8
	.byte	$10
	.byte	$01
	.byte	$03
	.byte	$2B
	.byte	$0B
	.byte	$02
	.byte	$0A
	.byte	$08
	.byte	$2F
	.byte	$10
	.byte	$61
	.byte	$02
	.byte	$25
	.byte	$88
	.byte	$03
	.byte	$13
	.byte	$00
	.byte	$02
	.byte	$22
	.byte	$DC
	.byte	$02
	.byte	$06
	.byte	$08
	.byte	$0F
	.byte	$2C
	.byte	$10
	.byte	$41
	.byte	$08
	.byte	$15
	.byte	$02
	.byte	$4B
	.byte	$68
	.byte	$03
	.byte	$84
	.byte	$02
	.byte	$1C
	.byte	$08
	.byte	$03
	.byte	$88
	.byte	$02
	.byte	$02
	.byte	$97
	.byte	$03
	.byte	$04
	.byte	$02
	.byte	$24
	.byte	$C8
	.byte	$03
	.byte	$08
	.byte	$02
	.byte	$02
	.byte	$97
	.byte	$03
	.byte	$04
	.byte	$14
	.byte	$02
	.byte	$0A
	.byte	$78
	.byte	$02
	.byte	$06
	.byte	$2C
	.byte	$03
	.byte	$88
	.byte	$03
	.byte	$69
	.byte	$02
	.byte	$0A
	.byte	$08
	.byte	$02
	.byte	$04
	.byte	$EA
	.byte	$02
	.byte	$07
	.byte	$38
	.byte	$02
	.byte	$05
	.byte	$09
	.byte	$0C
	.byte	$02
	.byte	$09
	.byte	$38
	.byte	$0F
	.byte	$1C
	.byte	$1D
	.byte	$00
	.byte	$02
	.byte	$0B
	.byte	$D8
	.byte	$1E
	.byte	$1F
	.byte	$0C
	.byte	$02
	.byte	$28
	.byte	$98
	.byte	$03
	.byte	$66
	.byte	$00
	.byte	$08
	.byte	$02
	.byte	$07
	.byte	$08
	.byte	$14
	.byte	$02
	.byte	$62
	.byte	$15
	.byte	$14
	.byte	$07
	.byte	$07
	.byte	$02
	.byte	$17
	.byte	$78
	.byte	$02
	.byte	$1B
	.byte	$08
	.byte	$2C
	.byte	$02
	.byte	$67
	.byte	$99
	.byte	$02
	.byte	$06
	.byte	$08
	.byte	$02
	.byte	$26
	.byte	$59
	.byte	$03
	.byte	$C8
	.byte	$2A
	.byte	$0C
	.byte	$09
	.byte	$10
	.byte	$42
	.byte	$2F
	.byte	$2A
	.byte	$02
	.byte	$05
	.byte	$98
	.byte	$2A
	.byte	$08
	.byte	$10
	.byte	$43
	.byte	$0E
	.byte	$10
	.byte	$81
	.byte	$02
	.byte	$13
	.byte	$08
	.byte	$02
	.byte	$22
	.byte	$90
	.byte	$10
	.byte	$41
	.byte	$0E
	.byte	$02
	.byte	$25
	.byte	$98
	.byte	$10
	.byte	$E3
	.byte	$02
	.byte	$09
	.byte	$08
	.byte	$02
	.byte	$0E
	.byte	$18
	.byte	$02
	.byte	$1E
	.byte	$08
	.byte	$02
	.byte	$1B
	.byte	$08
	.byte	$03
	.byte	$88
	.byte	$02
	.byte	$46
	.byte	$18
	.byte	$02
	.byte	$06
	.byte	$08
	.byte	$02
	.byte	$24
	.byte	$03
	.byte	$03
	.byte	$85
	.byte	$03
	.byte	$13
	.byte	$0E
	.byte	$2C
	.byte	$1A
	.byte	$02
	.byte	$05
	.byte	$F8
	.byte	$08
	.byte	$06
	.byte	$17
	.byte	$19
	.byte	$0E
	.byte	$02
	.byte	$83
	.byte	$4D
	.byte	$02
	.byte	$06
	.byte	$08
	.byte	$18
	.byte	$18
	.byte	$03
	.byte	$48
	.byte	$02
	.byte	$66
	.byte	$C8
	.byte	$08
	.byte	$04
	.byte	$05
	.byte	$05
	.byte	$06
	.byte	$00
	.byte	$0E
	.byte	$02
	.byte	$67
	.byte	$C8
	.byte	$02
	.byte	$43
	.byte	$E4
	.byte	$05
	.byte	$03
	.byte	$4D
	.byte	$03
	.byte	$88
	.byte	$10
	.byte	$08
	.byte	$02
	.byte	$1F
	.byte	$08
	.byte	$02
	.byte	$13
	.byte	$08
.segment	"RODATA"
.segment	"BANK0"
_level20_enemy:
	.byte	$CA
	.byte	$00
	.byte	$08
	.byte	$FF
_level20:
	.byte	$4C
	.byte	$5A
	.byte	$47
	.byte	$00
	.byte	$00
	.byte	$00
	.byte	$F0
	.byte	$00
	.byte	$00
	.byte	$00
	.byte	$45
	.byte	$E6
	.byte	$11
	.byte	$06
	.byte	$B1
	.byte	$01
	.byte	$00
	.byte	$01
	.byte	$02
	.byte	$03
	.byte	$2C
	.byte	$2C
	.byte	$03
	.byte	$1B
	.byte	$03
	.byte	$01
	.byte	$0C
	.byte	$09
	.byte	$03
	.byte	$8B
	.byte	$2C
	.byte	$08
	.byte	$07
	.byte	$0D
	.byte	$0D
	.byte	$0D
	.byte	$07
	.byte	$03
	.byte	$83
	.byte	$06
	.byte	$02
	.byte	$48
	.byte	$0E
	.byte	$01
	.byte	$08
	.byte	$23
	.byte	$02
	.byte	$83
	.byte	$01
	.byte	$1B
	.byte	$08
	.byte	$03
	.byte	$83
	.byte	$1C
	.byte	$1D
	.byte	$03
	.byte	$45
	.byte	$01
	.byte	$05
	.byte	$08
	.byte	$1E
	.byte	$1F
	.byte	$03
	.byte	$45
	.byte	$01
	.byte	$1C
	.byte	$38
	.byte	$01
	.byte	$1B
	.byte	$08
	.byte	$02
	.byte	$83
	.byte	$08
	.byte	$05
	.byte	$03
	.byte	$07
	.byte	$01
	.byte	$03
	.byte	$98
	.byte	$08
	.byte	$04
	.byte	$03
	.byte	$07
	.byte	$02
	.byte	$08
_boss_dialog_strings:
	.addr	L1FC9
	.addr	L1FCB
	.addr	L1FCD
	.addr	L1FCF
	.addr	L1FD1
_defeat_dialog_strings:
	.addr	L1FD3
_boss_dialog_portrait_sprites:
	.word	$0000
	.word	$0000
	.word	$0000
	.word	$0000
	.word	$0000
_boss_dialog:
	.addr	_boss_dialog_portrait_sprites
	.addr	_boss_dialog_strings
	.byte	$05
_defeat_dialog:
	.word	$0000
	.addr	_boss_dialog_strings
	.byte	$01
.segment	"RODATA"
.segment	"BANK0"
_level_debug_tiledump_enemy:
	.byte	$FF
_level_debug_tiledump:
	.byte	$4C
	.byte	$5A
	.byte	$47
	.byte	$00
	.byte	$00
	.byte	$00
	.byte	$F0
	.byte	$00
	.byte	$00
	.byte	$00
	.byte	$62
	.byte	$8C
	.byte	$5D
	.byte	$0F
	.byte	$C6
	.byte	$01
	.byte	$33
	.byte	$34
	.byte	$35
	.byte	$36
	.byte	$04
	.byte	$07
	.byte	$36
	.byte	$07
	.byte	$04
	.byte	$2C
	.byte	$36
	.byte	$01
	.byte	$06
	.byte	$00
	.byte	$01
	.byte	$02
	.byte	$03
	.byte	$04
	.byte	$05
	.byte	$06
	.byte	$07
	.byte	$08
	.byte	$09
	.byte	$0E
	.byte	$35
	.byte	$88
	.byte	$0A
	.byte	$0B
	.byte	$0C
	.byte	$0D
	.byte	$0E
	.byte	$0F
	.byte	$10
	.byte	$11
	.byte	$12
	.byte	$13
	.byte	$35
	.byte	$C8
	.byte	$14
	.byte	$15
	.byte	$16
	.byte	$17
	.byte	$18
	.byte	$19
	.byte	$1A
	.byte	$1B
	.byte	$1C
	.byte	$1D
	.byte	$35
	.byte	$C8
	.byte	$1E
	.byte	$1F
	.byte	$20
	.byte	$21
	.byte	$22
	.byte	$23
	.byte	$24
	.byte	$25
	.byte	$26
	.byte	$27
	.byte	$35
	.byte	$C8
	.byte	$28
	.byte	$29
	.byte	$2A
	.byte	$2B
	.byte	$2C
	.byte	$2D
	.byte	$2E
	.byte	$2F
	.byte	$30
	.byte	$31
	.byte	$35
	.byte	$C8
	.byte	$32
	.byte	$36
	.byte	$A2
	.byte	$36
	.byte	$03
	.byte	$35
	.byte	$C8
	.byte	$34
	.byte	$07
	.byte	$07
	.byte	$34
	.byte	$1E
	.byte	$08
	.byte	$34
	.byte	$1B
	.byte	$08
	.byte	$2C
	.byte	$06
	.byte	$05
	.byte	$36
	.byte	$07
	.byte	$34
	.byte	$03
	.byte	$D8
.segment	"RODATA"
.segment	"BANK0"
_level_star_test:
	.byte	$4C
	.byte	$5A
	.byte	$47
	.byte	$00
	.byte	$00
	.byte	$02
	.byte	$D0
	.byte	$00
	.byte	$00
	.byte	$00
	.byte	$4E
	.byte	$00
	.byte	$56
	.byte	$09
	.byte	$15
	.byte	$01
	.byte	$00
	.byte	$01
	.byte	$02
	.byte	$03
	.byte	$04
	.byte	$07
	.byte	$03
	.byte	$07
	.byte	$06
	.byte	$2C
	.byte	$03
	.byte	$01
	.byte	$06
	.byte	$2A
	.byte	$17
	.byte	$19
	.byte	$2A
	.byte	$03
	.byte	$04
	.byte	$0E
	.byte	$02
	.byte	$C8
	.byte	$18
	.byte	$18
	.byte	$01
	.byte	$0C
	.byte	$08
	.byte	$14
	.byte	$15
	.byte	$01
	.byte	$0C
	.byte	$08
	.byte	$03
	.byte	$07
	.byte	$01
	.byte	$1C
	.byte	$08
	.byte	$01
	.byte	$08
	.byte	$08
	.byte	$02
	.byte	$3E
	.byte	$01
	.byte	$1D
	.byte	$38
	.byte	$01
	.byte	$08
	.byte	$08
	.byte	$01
	.byte	$04
	.byte	$7B
	.byte	$01
	.byte	$1D
	.byte	$38
	.byte	$01
	.byte	$1F
	.byte	$B8
	.byte	$01
	.byte	$1F
	.byte	$B8
	.byte	$01
	.byte	$1F
	.byte	$B8
	.byte	$01
	.byte	$1E
	.byte	$B8
	.byte	$03
	.byte	$05
	.byte	$1A
	.byte	$02
	.byte	$88
	.byte	$04
	.byte	$05
	.byte	$03
	.byte	$07
	.byte	$01
	.byte	$43
	.byte	$B8
.segment	"RODATA"
.segment	"BANK0"
_level_enemies_test_enemy:
	.byte	$7B
	.byte	$02
	.byte	$05
	.byte	$8B
	.byte	$02
	.byte	$05
	.byte	$81
	.byte	$02
	.byte	$03
	.byte	$8E
	.byte	$01
	.byte	$03
	.byte	$4D
	.byte	$01
	.byte	$03
	.byte	$20
	.byte	$02
	.byte	$03
	.byte	$10
	.byte	$01
	.byte	$04
	.byte	$1E
	.byte	$00
	.byte	$04
	.byte	$19
	.byte	$01
	.byte	$04
	.byte	$50
	.byte	$02
	.byte	$07
	.byte	$FF
_level_enemies_test:
	.byte	$4C
	.byte	$5A
	.byte	$47
	.byte	$00
	.byte	$00
	.byte	$02
	.byte	$D0
	.byte	$00
	.byte	$00
	.byte	$00
	.byte	$64
	.byte	$6C
	.byte	$D6
	.byte	$09
	.byte	$5C
	.byte	$01
	.byte	$00
	.byte	$01
	.byte	$02
	.byte	$03
	.byte	$04
	.byte	$07
	.byte	$03
	.byte	$07
	.byte	$06
	.byte	$2C
	.byte	$03
	.byte	$01
	.byte	$03
	.byte	$83
	.byte	$03
	.byte	$03
	.byte	$1A
	.byte	$0E
	.byte	$01
	.byte	$0C
	.byte	$08
	.byte	$2C
	.byte	$01
	.byte	$0D
	.byte	$08
	.byte	$2B
	.byte	$01
	.byte	$1B
	.byte	$18
	.byte	$01
	.byte	$1F
	.byte	$28
	.byte	$01
	.byte	$1E
	.byte	$28
	.byte	$01
	.byte	$0F
	.byte	$08
	.byte	$2B
	.byte	$03
	.byte	$07
	.byte	$01
	.byte	$16
	.byte	$28
	.byte	$14
	.byte	$0D
	.byte	$03
	.byte	$01
	.byte	$15
	.byte	$01
	.byte	$1C
	.byte	$48
	.byte	$01
	.byte	$1E
	.byte	$08
	.byte	$01
	.byte	$0D
	.byte	$08
	.byte	$0F
	.byte	$0F
	.byte	$0F
	.byte	$01
	.byte	$0F
	.byte	$18
	.byte	$02
	.byte	$4C
	.byte	$02
	.byte	$C8
	.byte	$01
	.byte	$06
	.byte	$16
	.byte	$01
	.byte	$16
	.byte	$18
	.byte	$01
	.byte	$1D
	.byte	$68
	.byte	$01
	.byte	$0D
	.byte	$08
	.byte	$04
	.byte	$01
	.byte	$04
	.byte	$F4
	.byte	$01
	.byte	$1D
	.byte	$38
	.byte	$14
	.byte	$01
	.byte	$3D
	.byte	$28
	.byte	$01
	.byte	$46
	.byte	$98
	.byte	$04
	.byte	$05
	.byte	$03
	.byte	$07
	.byte	$02
	.byte	$93
.segment	"RODATA"
.segment	"BANK0"
_level_question_block_test:
	.byte	$4C
	.byte	$5A
	.byte	$47
	.byte	$00
	.byte	$00
	.byte	$00
	.byte	$F0
	.byte	$00
	.byte	$00
	.byte	$00
	.byte	$4A
	.byte	$14
	.byte	$5F
	.byte	$08
	.byte	$26
	.byte	$01
	.byte	$00
	.byte	$01
	.byte	$02
	.byte	$03
	.byte	$04
	.byte	$07
	.byte	$03
	.byte	$0B
	.byte	$04
	.byte	$06
	.byte	$28
	.byte	$03
	.byte	$0B
	.byte	$08
	.byte	$06
	.byte	$16
	.byte	$03
	.byte	$03
	.byte	$01
	.byte	$0B
	.byte	$08
	.byte	$03
	.byte	$E1
	.byte	$16
	.byte	$03
	.byte	$21
	.byte	$02
	.byte	$C8
	.byte	$01
	.byte	$0E
	.byte	$28
	.byte	$03
	.byte	$C3
	.byte	$01
	.byte	$06
	.byte	$17
	.byte	$01
	.byte	$16
	.byte	$18
	.byte	$02
	.byte	$99
	.byte	$01
	.byte	$02
	.byte	$50
	.byte	$01
	.byte	$10
	.byte	$18
	.byte	$02
	.byte	$4E
	.byte	$02
	.byte	$F8
	.byte	$01
	.byte	$11
	.byte	$18
	.byte	$1A
	.byte	$01
	.byte	$05
	.byte	$18
	.byte	$01
	.byte	$09
	.byte	$38
	.byte	$01
	.byte	$07
	.byte	$93
	.byte	$01
	.byte	$12
	.byte	$68
	.byte	$18
	.byte	$08
	.byte	$04
	.byte	$05
	.byte	$03
	.byte	$0B
	.byte	$04
.segment	"RODATA"
.segment	"BANK0"
_level_macosten_enemy:
	.byte	$13
	.byte	$03
	.byte	$04
	.byte	$A3
	.byte	$03
	.byte	$04
	.byte	$14
	.byte	$03
	.byte	$04
	.byte	$A4
	.byte	$03
	.byte	$04
	.byte	$18
	.byte	$03
	.byte	$04
	.byte	$A8
	.byte	$03
	.byte	$04
	.byte	$2E
	.byte	$03
	.byte	$05
	.byte	$71
	.byte	$04
	.byte	$07
	.byte	$91
	.byte	$04
	.byte	$07
	.byte	$2A
	.byte	$04
	.byte	$07
	.byte	$30
	.byte	$05
	.byte	$05
	.byte	$A6
	.byte	$05
	.byte	$04
	.byte	$27
	.byte	$05
	.byte	$05
	.byte	$89
	.byte	$05
	.byte	$03
	.byte	$4B
	.byte	$05
	.byte	$04
	.byte	$7C
	.byte	$05
	.byte	$01
	.byte	$FF
_level_macosten:
	.byte	$4C
	.byte	$5A
	.byte	$47
	.byte	$00
	.byte	$00
	.byte	$05
	.byte	$A0
	.byte	$00
	.byte	$00
	.byte	$01
	.byte	$DD
	.byte	$23
	.byte	$DB
	.byte	$49
	.byte	$E8
	.byte	$01
	.byte	$1A
	.byte	$1B
	.byte	$31
	.byte	$32
	.byte	$04
	.byte	$04
	.byte	$32
	.byte	$08
	.byte	$2C
	.byte	$32
	.byte	$01
	.byte	$1B
	.byte	$09
	.byte	$07
	.byte	$1B
	.byte	$1F
	.byte	$08
	.byte	$31
	.byte	$88
	.byte	$06
	.byte	$2C
	.byte	$0B
	.byte	$07
	.byte	$0A
	.byte	$16
	.byte	$2C
	.byte	$28
	.byte	$10
	.byte	$2D
	.byte	$11
	.byte	$0E
	.byte	$31
	.byte	$88
	.byte	$12
	.byte	$2E
	.byte	$13
	.byte	$29
	.byte	$20
	.byte	$21
	.byte	$22
	.byte	$23
	.byte	$1C
	.byte	$1D
	.byte	$31
	.byte	$C8
	.byte	$1E
	.byte	$1F
	.byte	$24
	.byte	$25
	.byte	$26
	.byte	$27
	.byte	$00
	.byte	$01
	.byte	$02
	.byte	$03
	.byte	$31
	.byte	$C8
	.byte	$17
	.byte	$19
	.byte	$18
	.byte	$18
	.byte	$2A
	.byte	$2B
	.byte	$31
	.byte	$43
	.byte	$31
	.byte	$C8
	.byte	$32
	.byte	$82
	.byte	$32
	.byte	$04
	.byte	$1B
	.byte	$1D
	.byte	$08
	.byte	$1B
	.byte	$06
	.byte	$08
	.byte	$2F
	.byte	$32
	.byte	$C1
	.byte	$2F
	.byte	$2C
	.byte	$2A
	.byte	$1B
	.byte	$07
	.byte	$08
	.byte	$32
	.byte	$E2
	.byte	$0E
	.byte	$31
	.byte	$0A
	.byte	$1B
	.byte	$0C
	.byte	$08
	.byte	$32
	.byte	$22
	.byte	$31
	.byte	$C8
	.byte	$30
	.byte	$32
	.byte	$C1
	.byte	$30
	.byte	$32
	.byte	$21
	.byte	$1B
	.byte	$15
	.byte	$48
	.byte	$2F
	.byte	$32
	.byte	$21
	.byte	$32
	.byte	$42
	.byte	$1B
	.byte	$06
	.byte	$08
	.byte	$31
	.byte	$B1
	.byte	$31
	.byte	$FC
	.byte	$31
	.byte	$88
	.byte	$31
	.byte	$73
	.byte	$2C
	.byte	$30
	.byte	$29
	.byte	$1B
	.byte	$07
	.byte	$08
	.byte	$01
	.byte	$32
	.byte	$21
	.byte	$2C
	.byte	$10
	.byte	$2D
	.byte	$11
	.byte	$1B
	.byte	$0B
	.byte	$48
	.byte	$1B
	.byte	$02
	.byte	$D9
	.byte	$1B
	.byte	$1D
	.byte	$C8
	.byte	$1B
	.byte	$1D
	.byte	$38
	.byte	$1B
	.byte	$0A
	.byte	$08
	.byte	$14
	.byte	$0D
	.byte	$0D
	.byte	$0D
	.byte	$31
	.byte	$83
	.byte	$32
	.byte	$82
	.byte	$2F
	.byte	$2B
	.byte	$2F
	.byte	$2C
	.byte	$2A
	.byte	$2A
	.byte	$2A
	.byte	$1B
	.byte	$06
	.byte	$18
	.byte	$2B
	.byte	$0E
	.byte	$2B
	.byte	$0E
	.byte	$2A
	.byte	$2B
	.byte	$2A
	.byte	$2B
	.byte	$1B
	.byte	$07
	.byte	$28
	.byte	$31
	.byte	$48
	.byte	$31
	.byte	$09
	.byte	$1B
	.byte	$0B
	.byte	$08
	.byte	$31
	.byte	$29
	.byte	$1B
	.byte	$0B
	.byte	$08
	.byte	$1B
	.byte	$07
	.byte	$28
	.byte	$17
	.byte	$19
	.byte	$2C
	.byte	$30
	.byte	$2B
	.byte	$30
	.byte	$2C
	.byte	$1B
	.byte	$07
	.byte	$28
	.byte	$18
	.byte	$18
	.byte	$0F
	.byte	$32
	.byte	$C1
	.byte	$0F
	.byte	$1B
	.byte	$26
	.byte	$68
	.byte	$04
	.byte	$05
	.byte	$15
	.byte	$32
	.byte	$C2
	.byte	$31
	.byte	$09
	.byte	$1B
	.byte	$05
	.byte	$08
	.byte	$0A
	.byte	$1B
	.byte	$05
	.byte	$96
	.byte	$0F
	.byte	$1B
	.byte	$09
	.byte	$98
	.byte	$1B
	.byte	$23
	.byte	$E7
	.byte	$14
	.byte	$1B
	.byte	$07
	.byte	$98
	.byte	$1B
	.byte	$1C
	.byte	$C8
	.byte	$1B
	.byte	$1B
	.byte	$08
	.byte	$1B
	.byte	$04
	.byte	$48
	.byte	$1B
	.byte	$5E
	.byte	$38
	.byte	$1B
	.byte	$1D
	.byte	$58
	.byte	$1B
	.byte	$05
	.byte	$16
	.byte	$1B
	.byte	$07
	.byte	$08
	.byte	$0F
	.byte	$1B
	.byte	$10
	.byte	$28
	.byte	$1B
	.byte	$0A
	.byte	$08
	.byte	$1B
	.byte	$06
	.byte	$26
	.byte	$1B
	.byte	$1D
	.byte	$88
	.byte	$1B
	.byte	$07
	.byte	$08
	.byte	$2B
	.byte	$2C
	.byte	$00
	.byte	$00
	.byte	$00
	.byte	$31
	.byte	$02
	.byte	$1B
	.byte	$65
	.byte	$38
	.byte	$32
	.byte	$61
	.byte	$0C
	.byte	$05
	.byte	$09
	.byte	$1B
	.byte	$07
	.byte	$08
	.byte	$04
	.byte	$0D
	.byte	$15
	.byte	$2B
	.byte	$08
	.byte	$04
	.byte	$06
	.byte	$2C
	.byte	$25
	.byte	$1B
	.byte	$06
	.byte	$18
	.byte	$01
	.byte	$2C
	.byte	$2C
	.byte	$31
	.byte	$08
	.byte	$26
	.byte	$24
	.byte	$27
	.byte	$29
	.byte	$1B
	.byte	$07
	.byte	$28
	.byte	$08
	.byte	$04
	.byte	$04
	.byte	$0D
	.byte	$0D
	.byte	$15
	.byte	$1B
	.byte	$08
	.byte	$58
	.byte	$31
	.byte	$68
	.byte	$1B
	.byte	$0A
	.byte	$68
	.byte	$1B
	.byte	$1B
	.byte	$08
	.byte	$2C
	.byte	$20
	.byte	$21
	.byte	$1B
	.byte	$0C
	.byte	$08
	.byte	$22
	.byte	$23
	.byte	$31
	.byte	$48
	.byte	$2B
	.byte	$1B
	.byte	$07
	.byte	$08
	.byte	$14
	.byte	$0D
	.byte	$04
	.byte	$1B
	.byte	$11
	.byte	$38
	.byte	$1B
	.byte	$07
	.byte	$18
	.byte	$29
	.byte	$1B
	.byte	$0C
	.byte	$48
	.byte	$04
	.byte	$0D
	.byte	$15
	.byte	$1B
	.byte	$1B
	.byte	$68
	.byte	$06
	.byte	$2C
	.byte	$2A
	.byte	$2A
	.byte	$31
	.byte	$08
	.byte	$1B
	.byte	$02
	.byte	$E9
	.byte	$1B
	.byte	$05
	.byte	$08
	.byte	$26
	.byte	$27
	.byte	$08
	.byte	$04
	.byte	$04
	.byte	$15
	.byte	$02
	.byte	$1B
	.byte	$47
	.byte	$B8
	.byte	$1B
	.byte	$04
	.byte	$68
	.byte	$2A
	.byte	$00
	.byte	$1B
	.byte	$05
	.byte	$18
	.byte	$2A
	.byte	$2C
	.byte	$03
	.byte	$08
	.byte	$07
	.byte	$0A
	.byte	$2A
	.byte	$2A
	.byte	$0F
	.byte	$1B
	.byte	$85
	.byte	$68
	.byte	$31
	.byte	$08
	.byte	$0E
	.byte	$17
	.byte	$19
	.byte	$2A
	.byte	$2A
	.byte	$1E
	.byte	$1F
	.byte	$1B
	.byte	$06
	.byte	$58
	.byte	$03
	.byte	$30
	.byte	$18
	.byte	$18
	.byte	$28
	.byte	$2C
	.byte	$28
	.byte	$1B
	.byte	$46
	.byte	$78
	.byte	$2B
	.byte	$1B
	.byte	$64
	.byte	$26
	.byte	$15
	.byte	$24
	.byte	$1B
	.byte	$05
	.byte	$18
	.byte	$16
	.byte	$0F
	.byte	$2C
	.byte	$2C
	.byte	$01
	.byte	$32
	.byte	$02
	.byte	$31
	.byte	$C8
	.byte	$02
	.byte	$2A
	.byte	$2A
	.byte	$0F
	.byte	$2C
	.byte	$31
	.byte	$27
	.byte	$1B
	.byte	$26
	.byte	$48
	.byte	$31
	.byte	$08
	.byte	$2C
	.byte	$29
	.byte	$26
	.byte	$27
	.byte	$26
	.byte	$27
	.byte	$31
	.byte	$C8
	.byte	$04
	.byte	$05
	.byte	$32
	.byte	$07
	.byte	$1B
	.byte	$03
	.byte	$48
.segment	"RODATA"
_level_nt_length:
	.byte	$03
	.byte	$03
	.byte	$03
	.byte	$03
	.byte	$03
	.byte	$03
	.byte	$03
	.byte	$03
	.byte	$06
	.byte	$03
	.byte	$06
	.byte	$06
	.byte	$03
	.byte	$02
	.byte	$06
	.byte	$01
	.byte	$03
	.byte	$01
	.byte	$06
	.byte	$01
	.byte	$01
	.byte	$03
	.byte	$03
	.byte	$01
	.byte	$06
_valrigard_starting_nt:
	.byte	$02
	.byte	$02
	.byte	$02
	.byte	$02
	.byte	$02
	.byte	$02
	.byte	$02
	.byte	$02
	.byte	$05
	.byte	$02
	.byte	$05
	.byte	$05
	.byte	$02
	.byte	$01
	.byte	$05
	.byte	$00
	.byte	$02
	.byte	$00
	.byte	$00
	.byte	$00
	.byte	$00
	.byte	$00
	.byte	$02
	.byte	$00
	.byte	$05
_valrigard_inital_coords:
	.byte	$4D
	.byte	$4D
	.byte	$4D
	.byte	$4D
	.byte	$4D
	.byte	$4D
	.byte	$4D
	.byte	$4D
	.byte	$4D
	.byte	$4D
	.byte	$4D
	.byte	$4D
	.byte	$4D
	.byte	$4D
	.byte	$4D
	.byte	$4A
	.byte	$4D
	.byte	$4D
	.byte	$64
	.byte	$4C
	.byte	$4D
	.byte	$30
	.byte	$4D
	.byte	$4D
	.byte	$4D
_level_compressed_nametable_pointers:
	.addr	_level01
	.addr	_level02
	.addr	_level03
	.addr	_level04
	.addr	_level05
	.addr	_level06
	.addr	_level07
	.addr	_level08
	.addr	_level09
	.addr	_level10
	.addr	_level11
	.addr	_level12
	.addr	_level13
	.addr	_level14
	.addr	_level15
	.addr	_level16
	.addr	_level17
	.addr	_level18
	.addr	_level19
	.addr	_level20
	.addr	_level_debug_tiledump
	.addr	_level_star_test
	.addr	_level_enemies_test
	.addr	_level_question_block_test
	.addr	_level_macosten
_level_nametable_banks:
	.byte	$00
	.byte	$00
	.byte	$00
	.byte	$00
	.byte	$00
	.byte	$00
	.byte	$00
	.byte	$00
	.byte	$00
	.byte	$00
	.byte	$00
	.byte	$00
	.byte	$00
	.byte	$00
	.byte	$00
	.byte	$00
	.byte	$00
	.byte	$00
	.byte	$00
	.byte	$00
	.byte	$00
	.byte	$00
	.byte	$00
	.byte	$00
	.byte	$00
_level_names:
	.addr	L2444
	.addr	L2446
	.addr	L2448
	.addr	L244A
	.addr	L244C
	.addr	L244E
	.addr	L2450
	.addr	L2452
	.addr	L2454
	.addr	L2456
	.addr	L2458
	.addr	L245A
	.addr	L245C
	.addr	L245E
	.addr	L2460
	.addr	L2462
	.addr	L2464
	.addr	L2466
	.addr	L2468
	.addr	L246A
	.addr	L246C
	.addr	L246E
	.addr	L2470
	.addr	L2472
	.addr	L2474
_empty_enemy:
	.byte	$FF
_level_enemy_data:
	.addr	_level01_enemy
	.addr	_level02_enemy
	.addr	_level03_enemy
	.addr	_level04_enemy
	.addr	_level05_enemy
	.addr	_level06_enemy
	.addr	_level07_enemy
	.addr	_level08_enemy
	.addr	_level09_enemy
	.addr	_level10_enemy
	.addr	_level11_enemy
	.addr	_level12_enemy
	.addr	_level13_enemy
	.addr	_level14_enemy
	.addr	_level15_enemy
	.addr	_level16_enemy
	.addr	_level17_enemy
	.addr	_level18_enemy
	.addr	_empty_enemy
	.addr	_level20_enemy
	.addr	_level_debug_tiledump_enemy
	.addr	_empty_enemy
	.addr	_level_enemies_test_enemy
	.addr	_empty_enemy
	.addr	_level_macosten_enemy
_welcome_screen:
	.byte	$4C
	.byte	$5A
	.byte	$47
	.byte	$00
	.byte	$00
	.byte	$03
	.byte	$C0
	.byte	$00
	.byte	$00
	.byte	$00
	.byte	$6A
	.byte	$8F
	.byte	$34
	.byte	$1A
	.byte	$38
	.byte	$01
	.byte	$00
	.byte	$01
	.byte	$02
	.byte	$03
	.byte	$20
	.byte	$20
	.byte	$03
	.byte	$1F
	.byte	$03
	.byte	$1D
	.byte	$03
	.byte	$10
	.byte	$E0
	.byte	$E5
	.byte	$82
	.byte	$03
	.byte	$32
	.byte	$E1
	.byte	$01
	.byte	$06
	.byte	$18
	.byte	$F2
	.byte	$F7
	.byte	$92
	.byte	$F5
	.byte	$03
	.byte	$30
	.byte	$F6
	.byte	$F3
	.byte	$01
	.byte	$06
	.byte	$18
	.byte	$E2
	.byte	$E3
	.byte	$01
	.byte	$12
	.byte	$4E
	.byte	$01
	.byte	$08
	.byte	$0E
	.byte	$F2
	.byte	$01
	.byte	$07
	.byte	$22
	.byte	$03
	.byte	$0A
	.byte	$01
	.byte	$08
	.byte	$0E
	.byte	$01
	.byte	$1F
	.byte	$38
	.byte	$01
	.byte	$1D
	.byte	$38
	.byte	$01
	.byte	$0F
	.byte	$38
	.byte	$E7
	.byte	$01
	.byte	$32
	.byte	$38
	.byte	$E6
	.byte	$01
	.byte	$07
	.byte	$38
	.byte	$F0
	.byte	$01
	.byte	$31
	.byte	$36
	.byte	$03
	.byte	$21
	.byte	$F1
	.byte	$01
	.byte	$06
	.byte	$18
	.byte	$A1
	.byte	$03
	.byte	$15
	.byte	$01
	.byte	$06
	.byte	$18
	.byte	$B1
	.byte	$03
	.byte	$15
	.byte	$01
	.byte	$12
	.byte	$8E
	.byte	$03
	.byte	$1F
	.byte	$03
	.byte	$1E
	.byte	$03
	.byte	$1C
	.byte	$03
	.byte	$03
	.byte	$01
	.byte	$53
	.byte	$B2
	.byte	$03
	.byte	$29
	.byte	$F6
	.byte	$F7
	.byte	$03
	.byte	$3B
	.byte	$F7
.segment	"RODATA"
_palette_sp:
	.byte	$0F
	.byte	$16
	.byte	$27
	.byte	$37
	.byte	$0F
	.byte	$01
	.byte	$0F
	.byte	$32
	.byte	$0F
	.byte	$04
	.byte	$14
	.byte	$24
	.byte	$0F
	.byte	$30
	.byte	$16
	.byte	$00
_cmaps:
	.addr	_cmap
	.addr	_cmap+240
	.addr	_cmap+480
	.addr	_cmap+720
	.addr	_cmap+960
	.addr	_cmap+1200
_draw_screen_sub_lookup_addr_0:
	.byte	$00
	.byte	$40
	.byte	$80
	.byte	$C0
_draw_screen_sub_lookup_index_offset_0:
	.byte	$00
	.byte	$04
	.byte	$08
	.byte	$0C
_draw_screen_sub_lookup_addr_1:
	.byte	$20
	.byte	$60
	.byte	$A0
	.byte	$E0
_draw_screen_sub_lookup_index_offset_1:
	.byte	$02
	.byte	$06
	.byte	$0A
	.byte	$0E
_leftright_movement_offset_lookup_table:
	.byte	$FF
	.byte	$0F
_leftright_movement_moving_lookup_table:
	.byte	$FF
	.byte	$01
_updown_movement_offset_lookup_table:
	.byte	$FF
	.byte	$0F
_cannon_ul_sprite_lookup_table:
	.byte	$06
	.byte	$07
	.byte	$00
_cannon_ur_sprite_lookup_table:
	.byte	$02
	.byte	$01
	.byte	$00
_cannon_dr_sprite_lookup_table:
	.byte	$02
	.byte	$03
	.byte	$04
_cannon_dl_sprite_lookup_table:
	.byte	$06
	.byte	$05
	.byte	$04
_cannon_sprite_quadrant_lookup_table:
	.addr	_cannon_ul_sprite_lookup_table
	.addr	_cannon_ur_sprite_lookup_table
	.addr	_cannon_dl_sprite_lookup_table
	.addr	_cannon_dr_sprite_lookup_table
.segment	"BANK5"
_valrigard_idle_sprite_lookup_table:
	.addr	_valrigard_idle_left
	.addr	_valrigard_idle_right
_valrigard_sword_swing_sprite_lookup_table:
	.addr	_valrigard_swing_left_followthrough
	.addr	_valrigard_swing_right_followthrough
	.addr	_valrigard_swing_left_followthrough
	.addr	_valrigard_swing_right_followthrough
	.addr	_valrigard_swing_left_followthrough
	.addr	_valrigard_swing_right_followthrough
	.addr	_valrigard_idle_left
	.addr	_valrigard_idle_right
	.addr	_valrigard_swing_left_high
	.addr	_valrigard_swing_right_high
	.addr	_valrigard_swing_left_mid
	.addr	_valrigard_swing_right_mid
	.addr	_valrigard_swing_left_low
	.addr	_valrigard_swing_right_low
	.addr	_valrigard_swing_left_low
	.addr	_valrigard_swing_right_low
_valrigard_dead_sprite_lookup_table:
	.addr	_valrigard_dead_left
	.addr	_valrigard_dead_right
_valrigard_flying_sprite_lookup_table:
	.addr	_valrigard_flying_left1
	.addr	_valrigard_flying_right1
	.addr	_valrigard_flying_left1
	.addr	_valrigard_flying_right1
	.addr	_valrigard_flying_left2
	.addr	_valrigard_flying_right2
	.addr	_valrigard_flying_left2
	.addr	_valrigard_flying_right2
	.addr	_valrigard_flying_left1
	.addr	_valrigard_flying_right1
	.addr	_valrigard_idle_left
	.addr	_valrigard_idle_right
	.addr	_valrigard_flying_left0
	.addr	_valrigard_flying_right0
	.addr	_valrigard_flying_left0
	.addr	_valrigard_flying_right0
_korbat_sprite_lookup_table:
	.addr	_korbat_left
	.addr	_korbat_right
	.addr	_korbat_flap1_left
	.addr	_korbat_flap1_right
	.addr	_korbat_flap2_left
	.addr	_korbat_flap2_right
	.addr	_korbat_flap3_left
	.addr	_korbat_flap3_right
	.addr	_korbat_flap4_left
	.addr	_korbat_flap4_right
	.addr	_korbat_flap5_left
	.addr	_korbat_flap5_right
	.addr	_korbat_flap6_left
	.addr	_korbat_flap6_right
	.addr	_korbat_flap6_left
	.addr	_korbat_flap6_right
	.addr	_korbat_flap5_left
	.addr	_korbat_flap5_right
	.addr	_korbat_flap4_left
	.addr	_korbat_flap4_right
	.addr	_korbat_flap3_left
	.addr	_korbat_flap3_right
	.addr	_korbat_flap2_left
	.addr	_korbat_flap2_right
	.addr	_korbat_flap1_left
	.addr	_korbat_flap1_right
	.addr	_korbat_left
	.addr	_korbat_right
_grarrl_sprite_lookup_table:
	.addr	_grarrl_left
	.addr	_grarrl_right
	.addr	_grarrl_backfoot_step0_left
	.addr	_grarrl_backfoot_step0_right
	.addr	_grarrl_backfoot_step1_left
	.addr	_grarrl_backfoot_step1_right
	.addr	_grarrl_left
	.addr	_grarrl_right
	.addr	_grarrl_frontfoot_step0_left
	.addr	_grarrl_frontfoot_step0_right
	.addr	_grarrl_frontfoot_step1_left
	.addr	_grarrl_frontfoot_step1_right
_cannon_sprite_lookup_table:
	.addr	_cannon_up
	.addr	_cannon_up_left
	.addr	_cannon_left
	.addr	_cannon_down_left
	.addr	_cannon_down
	.addr	_cannon_down_right
	.addr	_cannon_right
	.addr	_cannon_up_right
_acidblob_sprite_lookup_table:
	.addr	_acidblob0
	.addr	_acidblob3
	.addr	_acidblob0
	.addr	_acidblob1
	.addr	_acidblob2
	.addr	_acidblob1
	.addr	_acidblob0
_sun_sprite_lookup_table:
	.addr	_sun0
	.addr	_sun1
_splyke_sprite_lookup_table:
	.addr	_splyke_idle_left0
	.addr	_splyke_idle_right0
	.addr	_splyke_idle_left0
	.addr	_splyke_idle_right0
	.addr	_splyke_idle_left1
	.addr	_splyke_idle_right1
	.addr	_splyke_idle_left1
	.addr	_splyke_idle_right1
	.addr	_splyke_tornado0
	.addr	_splyke_tornado0
	.addr	_splyke_tornado1
	.addr	_splyke_tornado1
	.addr	_splyke_tornado2
	.addr	_splyke_tornado2
	.addr	_splyke_tornado1
	.addr	_splyke_tornado1
_purple_death_effect_sprite_lookup_table:
	.addr	_purple_death_effect1
	.addr	_purple_death_effect1
	.addr	_purple_death_effect0
_splyke_death_effect_sprite_lookup_table:
	.addr	_splyke_death_effect1
	.addr	_splyke_death_effect1
	.addr	_splyke_death_effect0
_energy_bar_lookup_table:
	.addr	_energy_bar_0
	.addr	_energy_bar_1
	.addr	_energy_bar_2
	.addr	_energy_bar_3
	.addr	_energy_bar_4
	.addr	_energy_bar_5
	.addr	_energy_bar_6
	.addr	_energy_bar_7
	.addr	_energy_bar_8
	.addr	_energy_bar_9
	.addr	_energy_bar_a
	.addr	_energy_bar_b
	.addr	_energy_bar_c
	.addr	_energy_bar_d
	.addr	_energy_bar_e
	.addr	_energy_bar_f
_boss_body_sprite_idle_lookup_table:
	.addr	_boss_body_idle_left0
	.addr	_boss_body_idle_right0
_boss_head_sprite_lookup_table:
	.addr	_boss_head_eye_open_mouth_closed_left
	.addr	_boss_head_eye_open_mouth_closed_right
	.addr	_boss_head_eye_closed_mouth_closed_left
	.addr	_boss_head_eye_closed_mouth_closed_right
_boss_body_sprite_flying_lookup_table:
	.addr	_boss_body_flying_left0
	.addr	_boss_body_flying_right0
	.addr	_boss_body_flying_left1
	.addr	_boss_body_flying_right1
	.addr	_boss_body_flying_left2
	.addr	_boss_body_flying_right2
	.addr	_boss_body_flying_left3
	.addr	_boss_body_flying_right3
_boss_magic_offset_table:
	.byte	$80
	.byte	$81
	.byte	$82
.segment	"RODATA"
_title_string:
	.byte	$43,$61,$73,$74,$6C,$65,$20,$45,$73,$63,$61,$70,$65,$20,$41,$6C
	.byte	$70,$68,$61,$00
_author_string:
	.byte	$42,$79,$20,$6D,$61,$63,$6F,$73,$74,$65,$6E,$00
_instruction_string:
	.byte	$50,$72,$65,$73,$73,$20,$55,$70,$20,$74,$6F,$20,$73,$74,$61,$72
	.byte	$74,$00
_level_complete_string:
	.byte	$4C,$65,$76,$65,$6C,$20,$63,$6F,$6D,$70,$6C,$65,$74,$65,$21,$00
_down_to_restart_string:
	.byte	$44,$6F,$77,$6E,$20,$74,$6F,$20,$72,$65,$73,$74,$61,$72,$74,$2E
	.byte	$00
_draw_func_pointers:
	.addr	_draw_korbat
	.addr	_draw_korbat
	.addr	_draw_grarrl
	.addr	_draw_splyke
	.addr	_draw_cannon
	.addr	_draw_acid
	.addr	_draw_spikeball
	.addr	_draw_sun
	.addr	_draw_boss
	.addr	_draw_cannonball
	.addr	_draw_acid_drop
	.addr	_draw_magic_bolt
	.addr	_draw_purple_death_effect
	.addr	_draw_splyke_death_effect
_enemy_hitbox_width_lookup_table:
	.byte	$00
	.byte	$0D
	.byte	$0D
	.byte	$0D
	.byte	$0D
	.byte	$00
	.byte	$0D
	.byte	$0D
	.byte	$0D
	.byte	$06
	.byte	$06
	.byte	$06
	.byte	$00
	.byte	$00
_enemy_hitbox_height_lookup_table:
	.byte	$00
	.byte	$0D
	.byte	$0D
	.byte	$0D
	.byte	$0D
	.byte	$00
	.byte	$0D
	.byte	$0D
	.byte	$0D
	.byte	$06
	.byte	$06
	.byte	$06
	.byte	$00
_enemy_hitbox_x_offset_lookup_table:
	.byte	$00
	.byte	$00
	.byte	$00
	.byte	$01
	.byte	$00
	.byte	$00
	.byte	$00
	.byte	$01
	.byte	$00
	.byte	$01
	.byte	$01
	.byte	$01
	.byte	$00
	.byte	$00
_collision_functions:
	.addr	_collision_with_inert
	.addr	_collision_with_killable_slashable
	.addr	_collision_with_killable_slashable
	.addr	_collision_with_splyke
	.addr	_collision_with_inert_slashable
	.addr	_collision_with_inert
	.addr	_collision_with_unkillable_unslashable
	.addr	_collision_with_unkillable_unslashable
	.addr	_collision_with_boss
	.addr	_collision_with_unkillable_unslashable
	.addr	_collision_with_unkillable_unslashable
	.addr	_collision_with_unkillable_unslashable
	.addr	_collision_with_inert
	.addr	_collision_with_inert
_ai_pointers:
	.addr	_korbat_ai
	.addr	_korbat_ai
	.addr	_spikeball_ai
	.addr	_splyke_ai
	.addr	_cannon_ai
	.addr	_acid_ai
	.addr	_spikeball_ai
	.addr	_sun_ai
	.addr	_boss_ai
	.addr	_cannonball_ai
	.addr	_acid_drop_ai
	.addr	_cannonball_ai
	.addr	_death_effect_timer_ai
	.addr	_death_effect_timer_ai
_boss_ai_functions:
	.addr	_boss_ai_intro
	.addr	_boss_ai_idle
	.addr	_boss_ai_ascending
	.addr	_boss_ai_descending
L1FCF:
	.byte	$59,$6F,$75,$20,$6D,$61,$79,$20,$68,$61,$76,$65,$20,$65,$73,$63
	.byte	$61,$70,$65,$64,$20,$74,$68,$65,$0A,$64,$75,$6E,$67,$65,$6F,$6E
	.byte	$2C,$20,$62,$75,$74,$20,$79,$6F,$75,$20,$77,$6F,$6E,$27,$74,$20
	.byte	$6C,$69,$76,$65,$0A,$74,$6F,$20,$73,$70,$65,$61,$6B,$20,$6F,$66
	.byte	$20,$69,$74,$2E,$2E,$2E,$00
L1FCD:
	.byte	$44,$69,$64,$20,$79,$6F,$75,$20,$72,$65,$61,$6C,$6C,$79,$20,$74
	.byte	$68,$69,$6E,$6B,$20,$49,$0A,$77,$6F,$75,$6C,$64,$6E,$27,$74,$20
	.byte	$65,$73,$63,$61,$70,$65,$3F,$00
L1FD1:
	.byte	$57,$65,$27,$6C,$6C,$20,$73,$65,$65,$20,$61,$62,$6F,$75,$74,$20
	.byte	$74,$68,$61,$74,$2C,$20,$6F,$6C,$64,$0A,$6D,$61,$6E,$2E,$00
L1FC9:
	.byte	$53,$6F,$20,$77,$65,$20,$6D,$65,$65,$74,$20,$61,$67,$61,$69,$6E
	.byte	$2C,$20,$56,$61,$6C,$72,$69,$67,$61,$72,$64,$2E,$00
L1FCB:
	.byte	$49,$20,$73,$68,$6F,$75,$6C,$64,$20,$68,$61,$76,$65,$20,$6B,$6E
	.byte	$6F,$77,$6E,$2E,$2E,$2E,$00
L2474:
	.byte	$44,$6F,$77,$6E,$6C,$6F,$61,$64,$65,$72,$20,$54,$65,$73,$74,$00
L2472:
	.byte	$3F,$20,$42,$6C,$6F,$63,$6B,$20,$54,$65,$73,$74,$00
L272B:
	.byte	$46,$65,$62,$20,$32,$36,$20,$32,$30,$32,$31,$00
L2470:
	.byte	$45,$6E,$65,$6D,$79,$20,$54,$65,$73,$74,$00
L246C:
	.byte	$54,$69,$6C,$65,$20,$44,$75,$6D,$70,$00
L246E:
	.byte	$53,$74,$61,$72,$20,$54,$65,$73,$74,$00
L246A:
	.byte	$4C,$65,$76,$65,$6C,$20,$32,$30,$00
L2468:
	.byte	$4C,$65,$76,$65,$6C,$20,$31,$39,$00
L2464:
	.byte	$4C,$65,$76,$65,$6C,$20,$31,$37,$00
L2458:
	.byte	$4C,$65,$76,$65,$6C,$20,$31,$31,$00
L2456:
	.byte	$4C,$65,$76,$65,$6C,$20,$31,$30,$00
L245E:
	.byte	$4C,$65,$76,$65,$6C,$20,$31,$34,$00
L2736:
	.byte	$30,$32,$3A,$34,$37,$3A,$32,$32,$00
L2462:
	.byte	$4C,$65,$76,$65,$6C,$20,$31,$36,$00
L245C:
	.byte	$4C,$65,$76,$65,$6C,$20,$31,$33,$00
L2466:
	.byte	$4C,$65,$76,$65,$6C,$20,$31,$38,$00
L2460:
	.byte	$4C,$65,$76,$65,$6C,$20,$31,$35,$00
L245A:
	.byte	$4C,$65,$76,$65,$6C,$20,$31,$32,$00
L244C:
	.byte	$4C,$65,$76,$65,$6C,$20,$35,$00
L244A:
	.byte	$4C,$65,$76,$65,$6C,$20,$34,$00
L2448:
	.byte	$4C,$65,$76,$65,$6C,$20,$33,$00
L2450:
	.byte	$4C,$65,$76,$65,$6C,$20,$37,$00
L2446:
	.byte	$4C,$65,$76,$65,$6C,$20,$32,$00
L2444:
	.byte	$4C,$65,$76,$65,$6C,$20,$31,$00
L2454:
	.byte	$4C,$65,$76,$65,$6C,$20,$39,$00
L2452:
	.byte	$4C,$65,$76,$65,$6C,$20,$38,$00
L244E:
	.byte	$4C,$65,$76,$65,$6C,$20,$36,$00
L1FD3:
	.byte	$54,$65,$73,$74,$2E,$00

.segment	"BSS"

_bankLevel:
	.res	1,$00
_bankBuffer:
	.res	10,$00
.segment	"ZEROPAGE"
_pad1:
	.res	1,$00
_pad1_new:
	.res	1,$00
_collision:
	.res	1,$00
_collision_L:
	.res	1,$00
_collision_R:
	.res	1,$00
_collision_U:
	.res	1,$00
_collision_D:
	.res	1,$00
_coordinates:
	.res	1,$00
_temp0:
	.res	1,$00
_temp1:
	.res	1,$00
_temp2:
	.res	1,$00
_temp3:
	.res	1,$00
_temp4:
	.res	1,$00
_temp5:
	.res	2,$00
_temp6:
	.res	2,$00
_temppointer:
	.res	2,$00
_temppointer1:
	.res	2,$00
_temp_mutablepointer:
	.res	2,$00
_eject_L:
	.res	1,$00
_eject_R:
	.res	1,$00
_eject_D:
	.res	1,$00
_eject_U:
	.res	1,$00
_player_frame_timer:
	.res	1,$00
_player_sword_timer:
	.res	1,$00
_player_flags:
	.res	1,$00
_game_mode:
	.res	1,$00
_address:
	.res	2,$00
_x:
	.res	1,$00
_y:
	.res	1,$00
_index:
	.res	1,$00
_nt:
	.res	1,$00
_pseudo_scroll_y:
	.res	2,$00
_scroll_y:
	.res	2,$00
_min_scroll_y:
	.res	2,$00
_max_scroll_y:
	.res	2,$00
_initial_scroll:
	.res	2,$00
_scroll_count:
	.res	1,$00
_L_R_switch:
	.res	1,$00
_old_x:
	.res	2,$00
_old_y:
	.res	2,$00
_temp_x:
	.res	1,$00
_temp_y:
	.res	1,$00
_level_index:
	.res	1,$00
_energy:
	.res	1,$00
_score:
	.res	2,$00
_enemy_score:
	.res	1,$00
_stars:
	.res	1,$00
_timer:
	.res	1,$00
_song:
	.res	1,$00
_nt_min:
	.res	1,$00
_nt_max:
	.res	1,$00
_nt_current:
	.res	1,$00
_valrigard:
	.res	8,$00
_hitbox:
	.res	4,$00
_hitbox2:
	.res	4,$00
_shuffle_offset:
	.res	1,$00
_shuffle_maximum:
	.res	1,$00
_debug_tile_x:
	.res	1,$00
_debug_tile_y:
	.res	1,$00
_conveyor_delta:
	.res	1,$00
_menu_index:
	.res	1,$00
_tile_clear_queue:
	.res	8,$00
_tile_clear_to_type_queue:
	.res	4,$00
_tile_clear_front:
	.res	1,$00
_tile_clear_back:
	.res	1,$00
_did_headbonk:
	.res	1,$00
_enemy_is_using_bg_collision:
	.res	1,$00
.segment	"BSS"
_shuffle_array:
	.res	256,$00
_shuffle_leg_size:
	.res	1,$00
_enemies:
	.res	577,$00
_boss_state:
	.res	1,$00
_boss_memory:
	.res	32,$00
.segment	"XRAM"
_cmap:
	.res	1440,$00

; ---------------------------------------------------------------
; void __near__ draw_sprites (void)
; ---------------------------------------------------------------

.segment	"CODE"

.proc	_draw_sprites: near

.segment	"CODE"

;
; set_prg_bank(METASPRITE_BANK);
;
	lda     #$05
	jsr     _set_prg_bank
;
; oam_clear();
;
	jsr     _oam_clear
;
; draw_player();
;
	jsr     _draw_player
;
; if (game_mode != MODE_GAME_SHOWING_TEXT) {
;
	lda     _game_mode
	cmp     #$05
	beq     L35DB
;
; draw_score();
;
	jsr     _draw_score
;
; draw_energy();
;
	jsr     _draw_energy
;
; for (y = 0; y < shuffle_leg_size; ++y) {
;
L35DB:	lda     #$00
	sta     _y
	tax
L35DC:	lda     _y
	cmp     _shuffle_leg_size
	txa
	sbc     #$00
	bcs     L35DE
;
; temp1 = y + shuffle_offset;
;
	lda     _y
	clc
	adc     _shuffle_offset
	sta     _temp1
;
; AsmSet1ByteFromPtrAtIndexVar(x, shuffle_array, temp1);
;
	ldy     _temp1
	lda     _shuffle_array,y
	sta     _x
;
; if (IS_ENEMY_ACTIVE(x)) {  
;
	ldy     _x
	lda     _enemies+256,y
	and     #$80
	beq     L35DD
;
; temp_x = enemies.x[x];
;
	ldy     _x
	lda     _enemies,y
	sta     _temp_x
;
; temp_y = enemies.y[x];
;
	ldy     _x
	lda     _enemies+64,y
	sta     _temp_y
;
; if (temp_y < 0xf0) {
;
	cmp     #$F0
	bcs     L35DD
;
; temp0 = GET_ENEMY_TYPE(x);
;
	ldy     _x
	lda     _enemies+320,y
	sta     _temp0
;
; AsmCallFunctionAtPtrOffsetByIndexVar(draw_func_pointers, temp0);
;
	asl     a
	tay
	lda     _draw_func_pointers,y
	ldx     _draw_func_pointers+1,y
	jsr     callax
;
; for (y = 0; y < shuffle_leg_size; ++y) {
;
	ldx     #$00
L35DD:	inc     _y
	jmp     L35DC
;
; shuffle_offset += shuffle_leg_size;
;
L35DE:	lda     _shuffle_leg_size
	clc
	adc     _shuffle_offset
	sta     _shuffle_offset
;
; if (shuffle_offset == shuffle_maximum) { shuffle_offset = 0; }
;
	lda     _shuffle_maximum
	cmp     _shuffle_offset
	bne     L29F2
	lda     #$00
	sta     _shuffle_offset
;
; if (!(get_frame_count() & 7)) {
;
L29F2:	jsr     _get_frame_count
	and     #$07
	bne     L29F6
;
; temp0 = palette_bg[7];
;
	lda     _palette_bg+7
	sta     _temp0
;
; palette_bg[7] = palette_bg[6];
;
	lda     _palette_bg+6
	sta     _palette_bg+7
;
; palette_bg[6] = palette_bg[5];
;
	lda     _palette_bg+5
	sta     _palette_bg+6
;
; palette_bg[5] = temp0;
;
	lda     _temp0
	sta     _palette_bg+5
;
; __asm__("ldx #>%v", palette_bg);
;
	lda     #>_palette_bg
;
; __asm__("stx %v+1", TEMP);
;
	sta     _TEMP+1
;
; __asm__("lda #<%v", palette_bg);
;
	lda     #<_palette_bg
;
; __asm__("sta %v", TEMP);
;
	sta     _TEMP
;
; __asm__("ldx #$00"); // We'd make this #$10 if we wanted pal_spr.
;
	ldx     #$00
;
; __asm__("lda #$08"); // Only update the first 8 bytes of the palette.
;
	lda     #$08
;
; __asm__("bne pal_copy");
;
	jmp     pal_copy
;
; }
;
L29F6:	rts

.endproc

; ---------------------------------------------------------------
; void __near__ draw_player (void)
; ---------------------------------------------------------------

.segment	"CODE"

.proc	_draw_player: near

.segment	"CODE"

;
; temp1 = high_byte(valrigard.x);
;
	lda     _valrigard+1
	sta     _temp1
;
; temp2 = high_byte(valrigard.y);
;
	lda     _valrigard+3
	sta     _temp2
;
; if (STATUS_DEAD) { // Dead
;
	lda     _player_flags
	and     #$02
	beq     L35E0
;
; temp0 = DIRECTION;
;
	lda     _player_flags
	and     #$01
	sta     _temp0
;
; AsmSet2ByteFromPtrAtIndexVar(temppointer, valrigard_dead_sprite_lookup_table, temp0);
;
	asl     a
	tay
	lda     _valrigard_dead_sprite_lookup_table,y
	sta     _temppointer
	lda     _valrigard_dead_sprite_lookup_table+1,y
;
; } else if (IS_SWINGING_SWORD) { // Swinging sword
;
	jmp     L35DF
L35E0:	lda     _player_flags
	and     #$04
	beq     L35E1
;
; temp0 = (player_frame_timer & 0b11111110) | DIRECTION;
;
	lda     _player_frame_timer
	and     #$FE
	sta     ptr1
	lda     _player_flags
	and     #$01
	ora     ptr1
	sta     _temp0
;
; AsmSet2ByteFromPtrAtIndexVar(temppointer, valrigard_sword_swing_sprite_lookup_table, temp0);
;
	asl     a
	tay
	lda     _valrigard_sword_swing_sprite_lookup_table,y
	sta     _temppointer
	lda     _valrigard_sword_swing_sprite_lookup_table+1,y
;
; } else if (pad1 & PAD_UP && energy > 0) { // Flying
;
	jmp     L35DF
L35E1:	lda     _pad1
	and     #$08
	beq     L35E5
	lda     _energy
	beq     L35E5
;
; temp0 = (player_frame_timer & 0b11111110) | DIRECTION;
;
	lda     _player_frame_timer
	and     #$FE
	sta     ptr1
	lda     _player_flags
	and     #$01
	ora     ptr1
	sta     _temp0
;
; AsmSet2ByteFromPtrAtIndexVar(temppointer, valrigard_flying_sprite_lookup_table, temp0);
;
	asl     a
	tay
	lda     _valrigard_flying_sprite_lookup_table,y
	sta     _temppointer
	lda     _valrigard_flying_sprite_lookup_table+1,y
;
; } else { // Idle
;
	jmp     L35DF
;
; temp0 = DIRECTION;
;
L35E5:	lda     _player_flags
	and     #$01
	sta     _temp0
;
; AsmSet2ByteFromPtrAtIndexVar(temppointer, valrigard_idle_sprite_lookup_table, temp0);
;
	asl     a
	tay
	lda     _valrigard_idle_sprite_lookup_table,y
	sta     _temppointer
	lda     _valrigard_idle_sprite_lookup_table+1,y
L35DF:	sta     _temppointer+1
;
; oam_meta_spr(temp1, temp2, temppointer);
;
	lda     _temp1
	sta     _TEMP+5
	lda     _temp2
	sta     _TEMP+6
	lda     _temppointer
	ldx     _temppointer+1
	jsr     _oam_meta_spr_fast_sub
;
; if (player_frame_timer) { 
;
	lda     _player_frame_timer
	beq     L2A79
;
; --player_frame_timer;
;
	dec     _player_frame_timer
;
; }
;
L2A79:	rts

.endproc

; ---------------------------------------------------------------
; void __near__ draw_korbat (void)
; ---------------------------------------------------------------

.segment	"CODE"

.proc	_draw_korbat: near

.segment	"CODE"

;
; temp3 = enemies.timer[x] & 0b11110; // Derive the frame number from the timer.
;
	ldy     _x
	lda     _enemies+512,y
	and     #$1E
	sta     _temp3
;
; if (temp3 >= (14 << 1)) { // Clamp the frame number to 14.
;
	cmp     #$1C
	bcc     L35E6
;
; temp3 = 0;
;
	lda     #$00
	sta     _temp3
;
; enemies.timer[x] = 0;
;
	ldy     _x
	sta     _enemies+512,y
;
; temp3 = temp3 | ENEMY_DIRECTION(x);
;
L35E6:	ldy     _x
	lda     _enemies+256,y
	and     #$01
	ora     _temp3
	sta     _temp3
;
; AsmSet2ByteFromPtrAtIndexVar(temppointer, korbat_sprite_lookup_table, temp3); 
;
	asl     a
	tay
	lda     _korbat_sprite_lookup_table,y
	sta     _temppointer
	lda     _korbat_sprite_lookup_table+1,y
	sta     _temppointer+1
;
; oam_meta_spr(temp_x, temp_y, temppointer);
;
	lda     _temp_x
	sta     _TEMP+5
	lda     _temp_y
	sta     _TEMP+6
	lda     _temppointer
	ldx     _temppointer+1
	jmp     _oam_meta_spr_fast_sub

.endproc

; ---------------------------------------------------------------
; void __near__ draw_grarrl (void)
; ---------------------------------------------------------------

.segment	"CODE"

.proc	_draw_grarrl: near

.segment	"CODE"

;
; temp3 = enemies.timer[x] & 0b111000; // Derive the frame number from the timer.
;
	ldy     _x
	lda     _enemies+512,y
	and     #$38
	sta     _temp3
;
; if (temp3 >= (6 << 3)) { // Clamp the frame number to 6.
;
	cmp     #$30
	bcc     L35E7
;
; temp3 = 0;
;
	lda     #$00
	sta     _temp3
;
; enemies.timer[x] = 0;
;
	ldy     _x
	sta     _enemies+512,y
;
; temp3 = (temp3 >> 2) | ENEMY_DIRECTION(x); // Last 2 bits just make the animation slower.
;
L35E7:	lda     _temp3
	lsr     a
	lsr     a
	sta     ptr1
	ldy     _x
	lda     _enemies+256,y
	and     #$01
	ora     ptr1
	sta     _temp3
;
; AsmSet2ByteFromPtrAtIndexVar(temppointer, grarrl_sprite_lookup_table, temp3); 
;
	asl     a
	tay
	lda     _grarrl_sprite_lookup_table,y
	sta     _temppointer
	lda     _grarrl_sprite_lookup_table+1,y
	sta     _temppointer+1
;
; oam_meta_spr(temp_x, temp_y, temppointer);
;
	lda     _temp_x
	sta     _TEMP+5
	lda     _temp_y
	sta     _TEMP+6
	lda     _temppointer
	ldx     _temppointer+1
	jmp     _oam_meta_spr_fast_sub

.endproc

; ---------------------------------------------------------------
; void __near__ draw_spikeball (void)
; ---------------------------------------------------------------

.segment	"CODE"

.proc	_draw_spikeball: near

.segment	"CODE"

;
; oam_meta_spr(temp_x, temp_y, spikeball);
;
	lda     _temp_x
	sta     _TEMP+5
	lda     _temp_y
	sta     _TEMP+6
	lda     #<(_spikeball)
	ldx     #>(_spikeball)
	jmp     _oam_meta_spr_fast_sub

.endproc

; ---------------------------------------------------------------
; void __near__ draw_cannon (void)
; ---------------------------------------------------------------

.segment	"CODE"

.proc	_draw_cannon: near

.segment	"CODE"

;
; temp3 = enemies.extra2[x];
;
	ldy     _x
	lda     _enemies+448,y
	sta     _temp3
;
; AsmSet2ByteFromPtrAtIndexVar(temppointer, cannon_sprite_lookup_table, temp3); 
;
	asl     a
	tay
	lda     _cannon_sprite_lookup_table,y
	sta     _temppointer
	lda     _cannon_sprite_lookup_table+1,y
	sta     _temppointer+1
;
; oam_meta_spr(temp_x, temp_y, temppointer);
;
	lda     _temp_x
	sta     _TEMP+5
	lda     _temp_y
	sta     _TEMP+6
	lda     _temppointer
	ldx     _temppointer+1
	jmp     _oam_meta_spr_fast_sub

.endproc

; ---------------------------------------------------------------
; void __near__ draw_cannonball (void)
; ---------------------------------------------------------------

.segment	"CODE"

.proc	_draw_cannonball: near

.segment	"CODE"

;
; oam_spr(temp_x, temp_y, CANNONBALL_SPRITE_OFFSET, 1);
;
	lda     _temp_x
	sta     _TEMP
	lda     _temp_y
	sta     _TEMP+1
	lda     #$18
	sta     _TEMP+2
	lda     #$01
	jmp     _oam_spr_fast_sub

.endproc

; ---------------------------------------------------------------
; void __near__ draw_acid (void)
; ---------------------------------------------------------------

.segment	"CODE"

.proc	_draw_acid: near

.segment	"CODE"

;
; temp3 = enemies.extra2[x] >> 1;
;
	ldy     _x
	lda     _enemies+448,y
	lsr     a
	sta     _temp3
;
; AsmSet2ByteFromPtrAtIndexVar(temppointer, acidblob_sprite_lookup_table, temp3);
;
	asl     a
	tay
	lda     _acidblob_sprite_lookup_table,y
	sta     _temppointer
	lda     _acidblob_sprite_lookup_table+1,y
	sta     _temppointer+1
;
; oam_meta_spr(temp_x, temp_y, temppointer);
;
	lda     _temp_x
	sta     _TEMP+5
	lda     _temp_y
	sta     _TEMP+6
	lda     _temppointer
	ldx     _temppointer+1
	jmp     _oam_meta_spr_fast_sub

.endproc

; ---------------------------------------------------------------
; void __near__ draw_acid_drop (void)
; ---------------------------------------------------------------

.segment	"CODE"

.proc	_draw_acid_drop: near

.segment	"CODE"

;
; oam_spr(temp_x, temp_y, ACIDDROP_SPRITE_OFFSET, 3);
;
	lda     _temp_x
	sta     _TEMP
	lda     _temp_y
	sta     _TEMP+1
	lda     #$17
	sta     _TEMP+2
	lda     #$03
	jmp     _oam_spr_fast_sub

.endproc

; ---------------------------------------------------------------
; void __near__ draw_splyke (void)
; ---------------------------------------------------------------

.segment	"CODE"

.proc	_draw_splyke: near

.segment	"CODE"

;
; temp3 = enemies.extra2[x] & 0b110; // Mask the frame number.
;
	ldy     _x
	lda     _enemies+448,y
	and     #$06
	sta     _temp3
;
; temp4 = ENEMY_DIRECTION(x) | temp3;
;
	ldy     _x
	lda     _enemies+256,y
	and     #$01
	sta     ptr1
	lda     _temp3
	ora     ptr1
	sta     _temp4
;
; temp4 = temp4 | SPLYKE_IS_MOVING_AROUND(x) >> 2;
;
	ldy     _x
	lda     _enemies+256,y
	and     #$20
	lsr     a
	lsr     a
	ora     _temp4
	sta     _temp4
;
; AsmSet2ByteFromPtrAtIndexVar(temppointer, splyke_sprite_lookup_table, temp4);
;
	asl     a
	tay
	lda     _splyke_sprite_lookup_table,y
	sta     _temppointer
	lda     _splyke_sprite_lookup_table+1,y
	sta     _temppointer+1
;
; oam_meta_spr(temp_x, temp_y, temppointer);
;
	lda     _temp_x
	sta     _TEMP+5
	lda     _temp_y
	sta     _TEMP+6
	lda     _temppointer
	ldx     _temppointer+1
	jmp     _oam_meta_spr_fast_sub

.endproc

; ---------------------------------------------------------------
; void __near__ draw_sun (void)
; ---------------------------------------------------------------

.segment	"CODE"

.proc	_draw_sun: near

.segment	"CODE"

;
; temp3 = (enemies.actual_y[x] & 15) >> 3;
;
	ldy     _x
	lda     _enemies+128,y
	and     #$0F
	lsr     a
	lsr     a
	lsr     a
	sta     _temp3
;
; AsmSet2ByteFromPtrAtIndexVar(temppointer, sun_sprite_lookup_table, temp3);
;
	asl     a
	tay
	lda     _sun_sprite_lookup_table,y
	sta     _temppointer
	lda     _sun_sprite_lookup_table+1,y
	sta     _temppointer+1
;
; oam_meta_spr(temp_x, temp_y, temppointer);
;
	lda     _temp_x
	sta     _TEMP+5
	lda     _temp_y
	sta     _TEMP+6
	lda     _temppointer
	ldx     _temppointer+1
	jmp     _oam_meta_spr_fast_sub

.endproc

; ---------------------------------------------------------------
; void __near__ draw_boss (void)
; ---------------------------------------------------------------

.segment	"CODE"

.proc	_draw_boss: near

.segment	"CODE"

;
; temp4 = ENEMY_DIRECTION(x);
;
	ldy     _x
	lda     _enemies+256,y
	and     #$01
	sta     _temp4
;
; AsmSet2ByteFromPtrAtIndexVar(temppointer, boss_head_sprite_lookup_table, temp4);
;
	asl     a
	tay
	lda     _boss_head_sprite_lookup_table,y
	sta     _temppointer
	lda     _boss_head_sprite_lookup_table+1,y
	sta     _temppointer+1
;
; oam_meta_spr(temp_x, temp_y, temppointer);
;
	lda     _temp_x
	sta     _TEMP+5
	lda     _temp_y
	sta     _TEMP+6
	lda     _temppointer
	ldx     _temppointer+1
	jsr     _oam_meta_spr_fast_sub
;
; if (boss_state == 1) { // BOSS_STATE_IDLE
;
	lda     _boss_state
	cmp     #$01
	bne     L2BEE
;
; temp4 = ENEMY_DIRECTION(x);
;
	ldy     _x
	lda     _enemies+256,y
	and     #$01
	sta     _temp4
;
; AsmSet2ByteFromPtrAtIndexVar(temppointer, boss_body_sprite_idle_lookup_table, temp4);
;
	asl     a
	tay
	lda     _boss_body_sprite_idle_lookup_table,y
	sta     _temppointer
	lda     _boss_body_sprite_idle_lookup_table+1,y
;
; } else { 
;
	jmp     L35E8
;
; temp3 = enemies.extra2[x];
;
L2BEE:	ldy     _x
	lda     _enemies+448,y
	sta     _temp3
;
; temp3 >>= 2;
;
	lsr     a
	lsr     a
	sta     _temp3
;
; temp3 &= 0b110; // Mask the frame number.
;
	and     #$06
	sta     _temp3
;
; temp4 = temp3 | ENEMY_DIRECTION(x);
;
	ldy     _x
	lda     _enemies+256,y
	and     #$01
	ora     _temp3
	sta     _temp4
;
; AsmSet2ByteFromPtrAtIndexVar(temppointer, boss_body_sprite_flying_lookup_table, temp4);
;
	asl     a
	tay
	lda     _boss_body_sprite_flying_lookup_table,y
	sta     _temppointer
	lda     _boss_body_sprite_flying_lookup_table+1,y
L35E8:	sta     _temppointer+1
;
; oam_meta_spr(temp_x, temp_y, temppointer);
;
	lda     _temp_x
	sta     _TEMP+5
	lda     _temp_y
	sta     _TEMP+6
	lda     _temppointer
	ldx     _temppointer+1
	jmp     _oam_meta_spr_fast_sub

.endproc

; ---------------------------------------------------------------
; void __near__ draw_purple_death_effect (void)
; ---------------------------------------------------------------

.segment	"CODE"

.proc	_draw_purple_death_effect: near

.segment	"CODE"

;
; temp3 = enemies.timer[x] >> 2; // 12 frames -> 3 valid positions
;
	ldy     _x
	lda     _enemies+512,y
	lsr     a
	lsr     a
	sta     _temp3
;
; AsmSet2ByteFromPtrAtIndexVar(temppointer, purple_death_effect_sprite_lookup_table, temp3);
;
	asl     a
	tay
	lda     _purple_death_effect_sprite_lookup_table,y
	sta     _temppointer
	lda     _purple_death_effect_sprite_lookup_table+1,y
	sta     _temppointer+1
;
; oam_meta_spr(temp_x, temp_y, temppointer);
;
	lda     _temp_x
	sta     _TEMP+5
	lda     _temp_y
	sta     _TEMP+6
	lda     _temppointer
	ldx     _temppointer+1
	jmp     _oam_meta_spr_fast_sub

.endproc

; ---------------------------------------------------------------
; void __near__ draw_splyke_death_effect (void)
; ---------------------------------------------------------------

.segment	"CODE"

.proc	_draw_splyke_death_effect: near

.segment	"CODE"

;
; temp3 = enemies.timer[x] >> 2; // 12 frames -> 3 valid positions
;
	ldy     _x
	lda     _enemies+512,y
	lsr     a
	lsr     a
	sta     _temp3
;
; AsmSet2ByteFromPtrAtIndexVar(temppointer, splyke_death_effect_sprite_lookup_table, temp3);
;
	asl     a
	tay
	lda     _splyke_death_effect_sprite_lookup_table,y
	sta     _temppointer
	lda     _splyke_death_effect_sprite_lookup_table+1,y
	sta     _temppointer+1
;
; oam_meta_spr(temp_x, temp_y, temppointer);
;
	lda     _temp_x
	sta     _TEMP+5
	lda     _temp_y
	sta     _TEMP+6
	lda     _temppointer
	ldx     _temppointer+1
	jmp     _oam_meta_spr_fast_sub

.endproc

; ---------------------------------------------------------------
; void __near__ draw_magic_bolt (void)
; ---------------------------------------------------------------

.segment	"CODE"

.proc	_draw_magic_bolt: near

.segment	"CODE"

;
; temp3 = enemies.timer[x] >> 3;
;
	ldy     _x
	lda     _enemies+512,y
	lsr     a
	lsr     a
	lsr     a
	sta     _temp3
;
; if (temp3 == 3) { 
;
	cmp     #$03
	bne     L35E9
;
; temp3 = 0;
;
	lda     #$00
	sta     _temp3
;
; enemies.timer[x] = 0;
;
	ldy     _x
	sta     _enemies+512,y
;
; oam_spr(temp_x, temp_y, boss_magic_offset_table[temp3], 0);
;
L35E9:	lda     _temp_x
	sta     _TEMP
	lda     _temp_y
	sta     _TEMP+1
	ldy     _temp3
	lda     _boss_magic_offset_table,y
	sta     _TEMP+2
	lda     #$00
	jsr     _oam_spr_fast_sub
;
; temp3 = enemies.timer[x]; 
;
	ldy     _x
	lda     _enemies+512,y
	sta     _temp3
;
; ++temp3;
;
	inc     _temp3
;
; enemies.timer[x] = temp3;   
;
	ldy     _x
	lda     _temp3
	sta     _enemies+512,y
;
; }
;
	rts

.endproc

; ---------------------------------------------------------------
; void __near__ draw_score (void)
; ---------------------------------------------------------------

.segment	"CODE"

.proc	_draw_score: near

.segment	"CODE"

;
; if (score == 0){ // Special case. (Haven't thought about optimizing this one away, perhaps I could.)
;
	lda     _score
	ora     _score+1
	bne     L2A7D
;
; oam_spr(232, 20, 0, 3);
;
	lda     #$E8
	sta     _TEMP
	lda     #$14
	sta     _TEMP+1
	lda     #$00
	sta     _TEMP+2
	lda     #$03
	jmp     _oam_spr_fast_sub
;
; y = 4; // 5 digits (indices 0...4)
;
L2A7D:	lda     #$04
	sta     _y
;
; temp0 = 0; // Found a nonzero digit? We want to skip leading zeroes.
;
	lda     #$00
	sta     _temp0
;
; for (x = 200; x <= 232; x+=8) {
;
	lda     #$C8
L35EA:	sta     _x
	cmp     #$E9
	bcs     L2A90
;
; if (temp0) { // Already found a nonzero digit.
;
	lda     _temp0
	beq     L2A98
;
; oam_spr(x, 20, score_string[y], 3);
;
	lda     _x
	sta     _TEMP
	lda     #$14
	sta     _TEMP+1
	ldy     _y
	lda     _score_string,y
	sta     _TEMP+2
	lda     #$03
	jsr     _oam_spr_fast_sub
;
; } else if (score_string[y]) { // This is the first nonzero digit.
;
	jmp     L35EB
L2A98:	ldy     _y
	lda     _score_string,y
	beq     L35EB
;
; oam_spr(x, 20, score_string[y], 3);
;
	lda     _x
	sta     _TEMP
	lda     #$14
	sta     _TEMP+1
	ldy     _y
	lda     _score_string,y
	sta     _TEMP+2
	lda     #$03
	jsr     _oam_spr_fast_sub
;
; temp0 = 1; // Mark as having found a nonzero digit.
;
	lda     #$01
	sta     _temp0
;
; --y; // Next index.
;
L35EB:	dec     _y
;
; for (x = 200; x <= 232; x+=8) {
;
	lda     #$08
	clc
	adc     _x
	jmp     L35EA
;
; }
;
L2A90:	rts

.endproc

; ---------------------------------------------------------------
; void __near__ draw_energy (void)
; ---------------------------------------------------------------

.segment	"CODE"

.proc	_draw_energy: near

.segment	"CODE"

;
; temp0 = energy >> 3;
;
	lda     _energy
	lsr     a
	lsr     a
	lsr     a
	sta     _temp0
;
; AsmSet2ByteFromPtrAtIndexVar(temppointer, energy_bar_lookup_table, temp0);
;
	asl     a
	tay
	lda     _energy_bar_lookup_table,y
	sta     _temppointer
	lda     _energy_bar_lookup_table+1,y
	sta     _temppointer+1
;
; oam_meta_spr(ENERGY_BAR_X, ENERGY_BAR_Y, temppointer);
;
	lda     #$D8
	sta     _TEMP+5
	lda     #$1C
	sta     _TEMP+6
	lda     _temppointer
	ldx     _temppointer+1
	jmp     _oam_meta_spr_fast_sub

.endproc

; ---------------------------------------------------------------
; void __near__ draw_screen_sub (void)
; ---------------------------------------------------------------

.segment	"CODE"

.proc	_draw_screen_sub: near

.segment	"CODE"

;
; nt = (temp1 & 1) << 1; // 0 or 2 for vertical scrolling
;
	lda     _temp1
	and     #$01
	asl     a
	sta     _nt
;
; y = low_byte(pseudo_scroll_y);
;
	lda     _pseudo_scroll_y
	sta     _y
;
; temp2 = draw_screen_sub_lookup_index_offset_0[scroll_count];
;
	ldy     _scroll_count
	lda     _draw_screen_sub_lookup_index_offset_0,y
	sta     _temp2
;
; temp4 = draw_screen_sub_lookup_index_offset_1[scroll_count];
;
	ldy     _scroll_count
	lda     _draw_screen_sub_lookup_index_offset_1,y
	sta     _temp4
;
; get_ppu_addr(address, nt, draw_screen_sub_lookup_addr_0[scroll_count], y);
;
	ldy     _scroll_count
	lda     _draw_screen_sub_lookup_addr_0,y
	sta     _TEMP+2
	lda     _nt
	sta     _TEMP+3
	lda     _y
	jsr     _get_ppu_addr_fast
	sta     _address
	stx     _address+1
;
; index = (y & 0xf0) + temp2;
;
	lda     _y
	and     #$F0
	clc
	adc     _temp2
	sta     _index
;
; buffer_4_mt(address, index); // ppu_address, index to the data
;
	lda     _address
	and     #$9c
	sta     _TEMP+7
	lda     _address+1
	sta     _TEMP+8
	lda     _index
	jsr     _buffer_4_mt_fast_sub
;
; get_ppu_addr(address, nt, draw_screen_sub_lookup_addr_1[scroll_count], y);
;
	ldy     _scroll_count
	lda     _draw_screen_sub_lookup_addr_1,y
	sta     _TEMP+2
	lda     _nt
	sta     _TEMP+3
	lda     _y
	jsr     _get_ppu_addr_fast
	sta     _address
	stx     _address+1
;
; index = (y & 0xf0) + temp4;
;
	lda     _y
	and     #$F0
	clc
	adc     _temp4
	sta     _index
;
; buffer_4_mt(address, index); // ppu_address, index to the data
;
	lda     _address
	and     #$9c
	sta     _TEMP+7
	lda     _address+1
	sta     _TEMP+8
	lda     _index
	jsr     _buffer_4_mt_fast_sub
;
; ++scroll_count;
;
	inc     _scroll_count
;
; scroll_count &= 3; //mask off top bits, keep it 0-3
;
	lda     _scroll_count
	and     #$03
	sta     _scroll_count
;
; }
;
	rts

.endproc

; ---------------------------------------------------------------
; void __near__ handle_tile_clear_queue (void)
; ---------------------------------------------------------------

.segment	"CODE"

.proc	_handle_tile_clear_queue: near

.segment	"CODE"

;
; if (tile_clear_front == tile_clear_back) { return; }
;
	lda     _tile_clear_back
	cmp     _tile_clear_front
	beq     L2ED4
;
; AsmSet2ByteFromPtrAtIndexVar(address, tile_clear_queue, tile_clear_front);
;
	lda     _tile_clear_front
	asl     a
	tay
	lda     _tile_clear_queue,y
	sta     _address
	lda     _tile_clear_queue+1,y
	sta     _address+1
;
; AsmSet1ByteFromPtrAtIndexVar(temp0, tile_clear_to_type_queue, tile_clear_front);
;
	ldy     _tile_clear_front
	lda     _tile_clear_to_type_queue,y
	sta     _temp0
;
; buffer_1_mt(address, temp0);
;
	lda     _address
	and     #$de
	sta     _TEMP
	lda     _address+1
	ora     #$40
	sta     _TEMP+1
	lda     _temp0
	jsr     _buffer_1_mt_fast_sub
;
; ++tile_clear_front;
;
	inc     _tile_clear_front
;
; tile_clear_front &= 0b11; // Mask to <4
;
	lda     _tile_clear_front
	and     #$03
	sta     _tile_clear_front
;
; }
;
L2ED4:	rts

.endproc

; ---------------------------------------------------------------
; void __near__ begin_level (void)
; ---------------------------------------------------------------

.segment	"CODE"

.proc	_begin_level: near

.segment	"CODE"

;
; load_level_welcome_screen();
;
	jsr     _load_level_welcome_screen
;
; ppu_off(); // We're going to make big changes to VRAM so we need to turn it off.
;
	jsr     _ppu_off
;
; game_mode = MODE_GAME;
;
	lda     #$01
	sta     _game_mode
;
; SET_STATUS_ALIVE();
;
	lda     _player_flags
	and     #$FD
	sta     _player_flags
;
; load_level_new();
;
	jsr     _load_level_new
;
; seed_rng();
;
	jsr     _seed_rng
;
; calculate_shuffle_array();
;
	jsr     _calculate_shuffle_array
;
; energy = MAX_ENERGY;
;
	lda     #$70
	sta     _energy
;
; tile_clear_front = 0;
;
	lda     #$00
	sta     _tile_clear_front
;
; tile_clear_back = 0;
;
	sta     _tile_clear_back
;
; player_flags = 0; 
;
	sta     _player_flags
;
; scroll_count = 0; 
;
	sta     _scroll_count
;
; boss_state = 0;
;
	sta     _boss_state
;
; ppu_on_all();
;
	jmp     _ppu_on_all

.endproc

; ---------------------------------------------------------------
; void __near__ load_level_new (void)
; ---------------------------------------------------------------

.segment	"CODE"

.proc	_load_level_new: near

.segment	"CODE"

;
; nt_max = level_nt_length[level_index];
;
	ldy     _level_index
	lda     _level_nt_length,y
	sta     _nt_max
;
; nt_current = valrigard_starting_nt[level_index];
;
	ldy     _level_index
	lda     _valrigard_starting_nt,y
	sta     _nt_current
;
; high_byte(scroll_y) = nt_current; // The high byte of scroll_y is the nametable we're currently in (0-255).
;
	sta     _scroll_y+1
;
; low_byte(scroll_y) = 2;
;
	lda     #$02
	sta     _scroll_y
;
; high_byte(max_scroll_y) = nt_max - 1; // bottom of this level
;
	lda     _nt_max
	sec
	sbc     #$01
	sta     _max_scroll_y+1
;
; low_byte(max_scroll_y) = 2;
;
	lda     #$02
	sta     _max_scroll_y
;
; high_byte(min_scroll_y) = 0; // Min Scroll
;
	lda     #$00
	sta     _min_scroll_y+1
;
; low_byte(min_scroll_y) = 0x02;
;
	lda     #$02
	sta     _min_scroll_y
;
; initial_scroll = ((nt_current * 0x100) - 0x11);
;
	ldx     _nt_current
	lda     #$00
	sec
	sbc     #$11
	bcs     L2807
	dex
L2807:	sta     _initial_scroll
	stx     _initial_scroll+1
;
; temp4 = valrigard_inital_coords[level_index];
;
	ldy     _level_index
	lda     _valrigard_inital_coords,y
	sta     _temp4
;
; high_byte(valrigard.x) = (temp4 & 0xf0);
;
	and     #$F0
	sta     _valrigard+1
;
; high_byte(valrigard.y) = ((temp4 & 0x0f) * 16) + 2; 
;
	lda     _temp4
	and     #$0F
	asl     a
	asl     a
	asl     a
	asl     a
	clc
	adc     #$02
	sta     _valrigard+3
;
; set_prg_bank(level_nametable_banks[level_index]);
;
	ldy     _level_index
	lda     _level_nametable_banks,y
	jsr     _set_prg_bank
;
; AsmSet2ByteFromPtrAtIndexVar(temppointer, level_compressed_nametable_pointers, level_index);
;
	lda     _level_index
	asl     a
	tay
	lda     _level_compressed_nametable_pointers,y
	sta     _temppointer
	lda     _level_compressed_nametable_pointers+1,y
	sta     _temppointer+1
;
; LZG_decode(temppointer, cmap);
;
	lda     _temppointer
	ldx     _temppointer+1
	jsr     pushax
	lda     #<(_cmap)
	ldx     #>(_cmap)
	jsr     _LZG_decode
;
; AsmSet2ByteFromPtrAtIndexVar(temppointer, cmaps, nt_current);
;
	lda     _nt_current
	asl     a
	tay
	lda     _cmaps,y
	sta     _temppointer
	lda     _cmaps+1,y
	sta     _temppointer+1
;
; set_data_pointer(temppointer);
;
	lda     _temppointer
	ldx     _temppointer+1
	jsr     _set_data_pointer
;
; set_mt_pointer(metatiles);
;
	lda     #<(_metatiles)
	ldx     #>(_metatiles)
	jsr     _set_mt_pointer
;
; temp1 = high_byte(initial_scroll) + 1;
;
	lda     _initial_scroll+1
	clc
	adc     #$01
	sta     _temp1
;
; temp1 = (temp1 & 1) << 1;
;
	and     #$01
	asl     a
	sta     _temp1
;
; for(y=0; ;y+=0x20){
;
	lda     #$00
L35F2:	sta     _y
;
; for(x=0; ;x+=0x20){
;
	lda     #$00
L35F1:	sta     _x
;
; clear_vram_buffer(); // do each frame, and before putting anything in the buffer
;
	jsr     _clear_vram_buffer
;
; get_ppu_addr(address, temp1, x, y);
;
	lda     _x
	sta     _TEMP+2
	lda     _temp1
	sta     _TEMP+3
	lda     _y
	jsr     _get_ppu_addr_fast
	sta     _address
	stx     _address+1
;
; index = (y & 0xf0) + (x >> 4);
;
	lda     _y
	and     #$F0
	sta     ptr1
	lda     _x
	lsr     a
	lsr     a
	lsr     a
	lsr     a
	clc
	adc     ptr1
	sta     _index
;
; buffer_4_mt(address, index); // ppu_address, index to the data
;
	lda     _address
	and     #$9c
	sta     _TEMP+7
	lda     _address+1
	sta     _TEMP+8
	lda     _index
	jsr     _buffer_4_mt_fast_sub
;
; flush_vram_update_nmi();
;
	jsr     _flush_vram_update_nmi
;
; if (x == 0xe0) break;
;
	lda     _x
	cmp     #$E0
	beq     L35F5
;
; for(x=0; ;x+=0x20){
;
	lda     #$20
	clc
	adc     _x
	jmp     L35F1
;
; if (y == 0xe0) break;
;
L35F5:	lda     _y
	cmp     #$E0
	beq     L35F6
;
; for(y=0; ;y+=0x20){
;
	lda     #$20
	clc
	adc     _y
	jmp     L35F2
;
; temp1 = temp1 ^ 2; // flip that 0000 0010 bit
;
L35F6:	lda     _temp1
	eor     #$02
	sta     _temp1
;
; temp0 = nt_current == 0 ? nt_current + 1 : nt_current - 1;
;
	lda     _nt_current
	bne     L35F7
	clc
	adc     #$01
	jmp     L35F8
L35F7:	lda     _nt_current
	sec
	sbc     #$01
L35F8:	sta     _temp0
;
; AsmSet2ByteFromPtrAtIndexVar(temppointer, cmaps, temp0);
;
	asl     a
	tay
	lda     _cmaps,y
	sta     _temppointer
	lda     _cmaps+1,y
	sta     _temppointer+1
;
; set_data_pointer(temppointer);
;
	lda     _temppointer
	ldx     _temppointer+1
	jsr     _set_data_pointer
;
; for(x=0; ;x+=0x20){
;
	lda     #$00
L35F3:	sta     _x
;
; y = 0xe0;
;
	lda     #$E0
	sta     _y
;
; clear_vram_buffer(); // do each frame, and before putting anything in the buffer
;
	jsr     _clear_vram_buffer
;
; get_ppu_addr(address, temp1, x, y);
;
	lda     _x
	sta     _TEMP+2
	lda     _temp1
	sta     _TEMP+3
	lda     _y
	jsr     _get_ppu_addr_fast
	sta     _address
	stx     _address+1
;
; index = (y & 0xf0) + (x >> 4);
;
	lda     _y
	and     #$F0
	sta     ptr1
	lda     _x
	lsr     a
	lsr     a
	lsr     a
	lsr     a
	clc
	adc     ptr1
	sta     _index
;
; buffer_4_mt(address, index); // ppu_address, index to the data
;
	lda     _address
	and     #$9c
	sta     _TEMP+7
	lda     _address+1
	sta     _TEMP+8
	lda     _index
	jsr     _buffer_4_mt_fast_sub
;
; flush_vram_update_nmi();
;
	jsr     _flush_vram_update_nmi
;
; if (x == 0xe0) break;
;
	lda     _x
	cmp     #$E0
	beq     L288E
;
; for(x=0; ;x+=0x20){
;
	lda     #$20
	clc
	adc     _x
	jmp     L35F3
;
; clear_vram_buffer();
;
L288E:	jsr     _clear_vram_buffer
;
; memfill(&enemies, 0, sizeof(enemies));
;
	jsr     decsp3
	lda     #<(_enemies)
	ldy     #$01
	sta     (sp),y
	iny
	lda     #>(_enemies)
	sta     (sp),y
	lda     #$00
	tay
	sta     (sp),y
	ldx     #$02
	lda     #$41
	jsr     _memfill
;
; AsmSet2ByteFromPtrAtIndexVar(temppointer, level_enemy_data, level_index);
;
	lda     _level_index
	asl     a
	tay
	lda     _level_enemy_data,y
	sta     _temppointer
	lda     _level_enemy_data+1,y
	sta     _temppointer+1
;
; for (x = 0, y = 0; x < MAX_ENEMIES; ++x){
;
	lda     #$00
	sta     _x
	sta     _y
L35F9:	lda     _x
	cmp     #$40
	jcs     L35FD
;
; enemies.y[x] = 0;
;
	ldy     _x
	lda     #$00
	sta     _enemies+64,y
;
; AsmSet1ByteFromZpPtrAtIndexVar(temp1, temppointer, y); // Get a byte of data - the bitpacked coords.
;
	ldy     _y
	lda     (_temppointer),y
	sta     _temp1
;
; if (temp1 == 0xff) break; // 0xff terminates the enemy data.
;
	cmp     #$FF
	jeq     L35FD
;
; temp2 = temp1 & 0xf0;
;
	lda     _temp1
	and     #$F0
	sta     _temp2
;
; enemies.x[x] = temp2;
;
	ldy     _x
	lda     _temp2
	sta     _enemies,y
;
; temp2 = (temp1 & 0x0f) << 4;
;
	lda     _temp1
	and     #$0F
	asl     a
	asl     a
	asl     a
	asl     a
	sta     _temp2
;
; enemies.actual_y[x] = temp2;
;
	ldy     _x
	lda     _temp2
	sta     _enemies+128,y
;
; ++y; // Next byte:
;
	inc     _y
;
; AsmSet1ByteFromZpPtrAtIndexVar(temp1, temppointer, y); // the namtetable byte.
;
	ldy     _y
	lda     (_temppointer),y
	sta     _temp1
;
; enemies.nt[x] = temp1;
;
	ldy     _x
	lda     _temp1
	sta     _enemies+192,y
;
; ++y; // Next byte:
;
	inc     _y
;
; AsmSet1ByteFromZpPtrAtIndexVar(temp1, temppointer, y); // the type byte.
;
	ldy     _y
	lda     (_temppointer),y
	sta     _temp1
;
; enemies.type[x] = temp1; 
;
	ldy     _x
	lda     _temp1
	sta     _enemies+320,y
;
; temp1 = GET_ENEMY_TYPE(x);
;
	ldy     _x
	lda     _enemies+320,y
	sta     _temp1
;
; if (temp1 == 4) { // ENEMY_CANNON
;
	cmp     #$04
	bne     L35FA
;
; ++x;
;
	inc     _x
;
; enemies.type[x] = ENEMY_CANNONBALL;
;
	ldy     _x
	lda     #$09
	sta     _enemies+320,y
;
; } else if (temp1 == 5) { // ENEMY_ACIDPOOL
;
	jmp     L35FC
L35FA:	lda     _temp1
	cmp     #$05
	bne     L35FB
;
; temp2 = rand8() | 0b10000000;
;
	jsr     _rand8
	ora     #$80
	sta     _temp2
;
; enemies.extra[x] = temp2;
;
	ldy     _x
	lda     _temp2
	sta     _enemies+384,y
;
; ++x;
;
	inc     _x
;
; } else if (temp1 == 8) { // ENEMY_BOSS
;
	jmp     L35FC
L35FB:	lda     _temp1
	cmp     #$08
	bne     L35FC
;
; x += 3; // Make room for magic bolts.
;
	lda     #$03
	clc
	adc     _x
	sta     _x
;
; ++y; // Next byte.
;
L35FC:	inc     _y
;
; for (x = 0, y = 0; x < MAX_ENEMIES; ++x){
;
	inc     _x
	jmp     L35F9
;
; enemies.count = x+1;
;
L35FD:	lda     _x
	clc
	adc     #$01
	sta     _enemies+576
;
; for(++x; x < MAX_ENEMIES; ++x) {
;
L3601:	inc     _x
	lda     _x
	cmp     #$40
	bcs     L35FE
;
; enemies.type[x] = ENEMY_NONE;
;
	ldy     _x
	lda     #$00
	sta     _enemies+320,y
;
; for(++x; x < MAX_ENEMIES; ++x) {
;
	jmp     L3601
;
; for (x = 0; x < enemies.count; ++x) {
;
L35FE:	lda     #$00
	sta     _x
	tax
L35FF:	lda     _x
	cmp     _enemies+576
	txa
	sbc     #$00
	bcs     L292C
;
; switch (GET_ENEMY_TYPE(x)) {
;
	ldy     _x
	lda     _enemies+320,y
;
; }
;
	cmp     #$04
	beq     L2940
	cmp     #$05
	bne     L3600
;
; enemies.timer[x] = 0b10000000;
;
	ldy     _x
	lda     #$80
	sta     _enemies+512,y
;
; temp0 = rand8() & 0b01111111;
;
L2940:	jsr     _rand8
	and     #$7F
	sta     _temp0
;
; enemies.timer[x] = temp0;
;
	ldy     _x
	ldx     #$00
	lda     _temp0
	sta     _enemies+512,y
;
; for (x = 0; x < enemies.count; ++x) {
;
L3600:	inc     _x
	jmp     L35FF
;
; }
;
L292C:	rts

.endproc

; ---------------------------------------------------------------
; void __near__ calculate_shuffle_array (void)
; ---------------------------------------------------------------

.segment	"CODE"

.proc	_calculate_shuffle_array: near

.segment	"CODE"

;
; temp0 = 0; // Index in the shuffle array
;
	lda     #$00
	sta     _temp0
;
; shuffle_leg_size = enemies.count; // Shuffle array leg size. (1/4 the size of the shuffle array.)
;
	lda     _enemies+576
	sta     _shuffle_leg_size
;
; for (x = 0; x < shuffle_leg_size; ++x) {
;
	lda     #$00
	sta     _x
	tax
L3606:	lda     _x
	cmp     _shuffle_leg_size
	txa
	sbc     #$00
	bcs     L3607
;
; shuffle_array[temp0] = x;
;
	ldy     _temp0
	lda     _x
	sta     _shuffle_array,y
;
; ++temp0;
;
	inc     _temp0
;
; for (x = 0; x < shuffle_leg_size; ++x) {
;
	inc     _x
	jmp     L3606
;
; for (x = shuffle_leg_size - 1; ; --x) {
;
L3607:	lda     _shuffle_leg_size
	sec
	sbc     #$01
	sta     _x
;
; shuffle_array[temp0] = x;
;
L295D:	ldy     _temp0
	lda     _x
	sta     _shuffle_array,y
;
; ++temp0;
;
	inc     _temp0
;
; if (x == 0) { break; }
;
	lda     _x
	beq     L3602
;
; for (x = shuffle_leg_size - 1; ; --x) {
;
	dec     _x
	jmp     L295D
;
; for (x = 0; x < shuffle_leg_size; x += 2){
;
L3602:	sta     _x
	ldx     #$00
	lda     _x
	cmp     _shuffle_leg_size
	bcs     L3609
;
; shuffle_array[temp0] = x;
;
	ldy     _temp0
	lda     _x
	sta     _shuffle_array,y
;
; ++temp0;
;
	inc     _temp0
;
; for (x = 0; x < shuffle_leg_size; x += 2){
;
	lda     #$02
	clc
	adc     _x
	jmp     L3602
;
; for (x = 1; x < shuffle_leg_size; x += 2){
;
L3609:	lda     #$01
L3603:	sta     _x
	cmp     _shuffle_leg_size
	txa
	sbc     #$00
	bcs     L360A
;
; shuffle_array[temp0] = x;
;
	ldy     _temp0
	lda     _x
	sta     _shuffle_array,y
;
; ++temp0;
;
	inc     _temp0
;
; for (x = 1; x < shuffle_leg_size; x += 2){
;
	lda     #$02
	clc
	adc     _x
	jmp     L3603
;
; for (x = shuffle_leg_size - 1; ; x -= 2) {
;
L360A:	lda     _shuffle_leg_size
	sec
	sbc     #$01
L3604:	sta     _x
;
; shuffle_array[temp0] = x;
;
	ldy     _temp0
	lda     _x
	sta     _shuffle_array,y
;
; ++temp0;
;
	inc     _temp0
;
; if (x < 2) { break; }
;
	lda     _x
	cmp     #$02
	bcc     L360B
;
; for (x = shuffle_leg_size - 1; ; x -= 2) {
;
	sec
	sbc     #$02
	jmp     L3604
;
; for (x = shuffle_leg_size - 2; ; x -= 2) {
;
L360B:	lda     _shuffle_leg_size
L360E:	sec
	sbc     #$02
	sta     _x
;
; shuffle_array[temp0] = x;
;
	ldy     _temp0
	lda     _x
	sta     _shuffle_array,y
;
; ++temp0;
;
	inc     _temp0
;
; if (x < 2) { break; }
;
	lda     _x
	cmp     #$02
	bcc     L360C
;
; for (x = shuffle_leg_size - 2; ; x -= 2) {
;
	jmp     L360E
;
; shuffle_offset = 0; 
;
L360C:	lda     #$00
	sta     _shuffle_offset
;
; shuffle_maximum = 4 * shuffle_leg_size; // Set the size of the calculated portion of the shuffle array.
;
	lda     _shuffle_leg_size
	asl     a
	asl     a
	sta     _shuffle_maximum
;
; }
;
	rts

.endproc

; ---------------------------------------------------------------
; void __near__ load_level_selector (void)
; ---------------------------------------------------------------

.segment	"CODE"

.proc	_load_level_selector: near

.segment	"CODE"

;
; ppu_off();
;
	jsr     _ppu_off
;
; clear_screen();
;
	jsr     _clear_screen
;
; game_mode = MODE_TITLE;
;
	lda     #$00
	sta     _game_mode
;
; put_str(NTADR_A(3, 2), title_string);
;
	ldx     #$20
	lda     #$43
	sta     _address
	stx     _address+1
	lda     #>(_title_string)
	sta     _temppointer+1
	lda     #<(_title_string)
	sta     _temppointer
	jsr     _put_str_sub
;
; put_str(NTADR_A(3, 4), author_string);
;
	ldx     #$20
	lda     #$83
	sta     _address
	stx     _address+1
	lda     #>(_author_string)
	sta     _temppointer+1
	lda     #<(_author_string)
	sta     _temppointer
	jsr     _put_str_sub
;
; put_str(NTADR_A(3, 6), __DATE__);
;
	ldx     #$20
	lda     #$C3
	sta     _address
	stx     _address+1
	lda     #>(L272B)
	sta     _temppointer+1
	lda     #<(L272B)
	sta     _temppointer
	jsr     _put_str_sub
;
; put_str(NTADR_A(15, 6), __TIME__);
;
	ldx     #$20
	lda     #$CF
	sta     _address
	stx     _address+1
	lda     #>(L2736)
	sta     _temppointer+1
	lda     #<(L2736)
	sta     _temppointer
	jsr     _put_str_sub
;
; put_str(NTADR_A(3, 8), instruction_string);
;
	ldx     #$21
	lda     #$03
	sta     _address
	stx     _address+1
	lda     #>(_instruction_string)
	sta     _temppointer+1
	lda     #<(_instruction_string)
	sta     _temppointer
	jsr     _put_str_sub
;
; AsmSet2ByteFromPtrAtIndexVar(temppointer, level_names, level_index);
;
	lda     _level_index
	asl     a
	tay
	lda     _level_names,y
	sta     _temppointer
	lda     _level_names+1,y
	sta     _temppointer+1
;
; put_str(NTADR_A(3, 10), temppointer);
;
	ldx     #$21
	lda     #$43
	sta     _address
	stx     _address+1
	lda     _temppointer+1
	sta     _temppointer+1
	lda     _temppointer
	sta     _temppointer
	jsr     _put_str_sub
;
; ppu_on_all();
;
	jmp     _ppu_on_all

.endproc

; ---------------------------------------------------------------
; void __near__ load_game_over_screen (void)
; ---------------------------------------------------------------

.segment	"CODE"

.proc	_load_game_over_screen: near

.segment	"CODE"

;
; ppu_off();
;
	jsr     _ppu_off
;
; clear_screen();
;
	jsr     _clear_screen
;
; game_mode = MODE_GAME_OVER;
;
	lda     #$04
	sta     _game_mode
;
; multi_vram_buffer_horz(level_complete_string, sizeof(level_complete_string), NTADR_A(3, 5));
;
	jsr     decsp3
	lda     #<(_level_complete_string)
	ldy     #$01
	sta     (sp),y
	iny
	lda     #>(_level_complete_string)
	sta     (sp),y
	lda     #$10
	ldy     #$00
	sta     (sp),y
	ldx     #$20
	lda     #$A3
	jsr     _multi_vram_buffer_horz
;
; multi_vram_buffer_horz(down_to_restart_string, sizeof(down_to_restart_string), NTADR_A(3, 7));
;
	jsr     decsp3
	lda     #<(_down_to_restart_string)
	ldy     #$01
	sta     (sp),y
	iny
	lda     #>(_down_to_restart_string)
	sta     (sp),y
	lda     #$11
	ldy     #$00
	sta     (sp),y
	ldx     #$20
	lda     #$E3
	jsr     _multi_vram_buffer_horz
;
; ppu_on_all();
;
	jmp     _ppu_on_all

.endproc

; ---------------------------------------------------------------
; void __near__ load_level_welcome_screen (void)
; ---------------------------------------------------------------

.segment	"CODE"

.proc	_load_level_welcome_screen: near

.segment	"CODE"

;
; ppu_off();
;
	jsr     _ppu_off
;
; clear_screen();
;
	jsr     _clear_screen
;
; LZG_decode(welcome_screen, cmap);
;
	lda     #<(_welcome_screen)
	ldx     #>(_welcome_screen)
	jsr     pushax
	lda     #<(_cmap)
	ldx     #>(_cmap)
	jsr     _LZG_decode
;
; AsmSet2ByteFromPtrAtIndexVar(temppointer, level_names, level_index);
;
	lda     _level_index
	asl     a
	tay
	lda     _level_names,y
	sta     _temppointer
	lda     _level_names+1,y
	sta     _temppointer+1
;
; temp0 = strlen(temppointer);
;
	lda     _temppointer
	ldx     _temppointer+1
	jsr     _strlen
	sta     _temp0
;
; temp1 = 16;
;
	lda     #$10
	sta     _temp1
;
; temp1 -= temp0 >> 1;
;
	lda     _temp0
	lsr     a
	eor     #$FF
	sec
	adc     _temp1
	sta     _temp1
;
; temp_mutablepointer = (cmap + 256 + 64); // This sets the correct row
;
	lda     #>(_cmap+320)
	sta     _temp_mutablepointer+1
	lda     #<(_cmap+320)
	sta     _temp_mutablepointer
;
; temp_mutablepointer += temp1; // and then this sets the correct distance from the left of the screen
;
	lda     _temp1
	clc
	adc     _temp_mutablepointer
	sta     _temp_mutablepointer
	lda     #$00
	adc     _temp_mutablepointer+1
	sta     _temp_mutablepointer+1
;
; for (temp2 = 0; temp2 < temp0; ++temp2) {
;
	lda     #$00
	sta     _temp2
	tax
L360F:	lda     _temp2
	cmp     _temp0
	txa
	sbc     #$00
	bcs     L2799
;
; AsmSet1ByteFromZpPtrAtIndexVar(temp3, temppointer, temp2);
;
	ldy     _temp2
	lda     (_temppointer),y
	sta     _temp3
;
; AsmSet1ByteAtZpPtrWithOffset(temp_mutablepointer, temp2, temp3);
;
	ldy     _temp2
	lda     _temp3
	sta     (_temp_mutablepointer),y
;
; for (temp2 = 0; temp2 < temp0; ++temp2) {
;
	inc     _temp2
	jmp     L360F
;
; vram_write(cmap, (32*30));
;
L2799:	lda     #<(_cmap)
	ldx     #>(_cmap)
	jsr     pushax
	ldx     #$03
	lda     #$C0
	jsr     _vram_write
;
; ppu_on_all();
;
	jsr     _ppu_on_all
;
; set_prg_bank(METASPRITE_BANK);
;
	lda     #$05
	jsr     _set_prg_bank
;
; oam_meta_spr(120, 114, valrigard_idle_left);
;
	lda     #$78
	sta     _TEMP+5
	lda     #$72
	sta     _TEMP+6
	lda     #<(_valrigard_idle_left)
	ldx     #>(_valrigard_idle_left)
	jsr     _oam_meta_spr_fast_sub
;
; for (temp0 = 0; temp0 < 120; ++temp0) {
;
	lda     #$00
	sta     _temp0
L3610:	lda     _temp0
	cmp     #$78
	bcs     L27BE
;
; ppu_wait_nmi();
;
	jsr     _ppu_wait_nmi
;
; pad1 = pad_poll(0);
;
	lda     #$00
	jsr     _pad_poll
	sta     _pad1
;
; pad1_new = get_pad_new(0);
;
	lda     #$00
	jsr     _get_pad_new
	sta     _pad1_new
;
; if (pad1_new) { break; }
;
	lda     _pad1_new
	bne     L27BE
;
; for (temp0 = 0; temp0 < 120; ++temp0) {
;
	inc     _temp0
	jmp     L3610
;
; oam_clear(); // Clear the Valrigard sprite.
;
L27BE:	jmp     _oam_clear

.endproc

; ---------------------------------------------------------------
; void __near__ clear_screen (void)
; ---------------------------------------------------------------

.segment	"CODE"

.proc	_clear_screen: near

.segment	"CODE"

;
; oam_clear();
;
	jsr     _oam_clear
;
; clear_vram_buffer();
;
	jsr     _clear_vram_buffer
;
; set_scroll_y(0);
;
	ldx     #$00
	txa
	jsr     _set_scroll_y
;
; vram_adr(NAMETABLE_A);
;
	ldx     #$20
	lda     #$00
	jsr     _vram_adr
;
; vram_fill(0,1024);
;
	lda     #$00
	jsr     pusha
	ldx     #$04
	jmp     _vram_fill

.endproc

; ---------------------------------------------------------------
; void __near__ put_str_sub (void)
; ---------------------------------------------------------------

.segment	"CODE"

.proc	_put_str_sub: near

.segment	"CODE"

;
; vram_adr(address);
;
	lda     _address
	ldx     _address+1
	jsr     _vram_adr
;
; while (temp0) {
;
	jmp     L2704
;
; vram_put(temp0);
;
L26FD:	lda     _temp0
	jsr     _vram_put
;
; ++temppointer;
;
	inc     _temppointer
	bne     L2704
	inc     _temppointer+1
;
; temp0 = *temppointer;
;
L2704:	lda     _temppointer+1
	sta     ptr1+1
	lda     _temppointer
	sta     ptr1
	ldy     #$00
	lda     (ptr1),y
	sta     _temp0
;
; while (temp0) {
;
	lda     _temp0
	bne     L26FD
;
; }
;
	rts

.endproc

; ---------------------------------------------------------------
; void __near__ movement (void)
; ---------------------------------------------------------------

.segment	"CODE"

.proc	_movement: near

.segment	"CODE"

;
; old_x = valrigard.x;
;
	lda     _valrigard+1
	sta     _old_x+1
	lda     _valrigard
	sta     _old_x
;
; if (pad1 & PAD_LEFT) {
;
	lda     _pad1
	and     #$02
	beq     L361C
;
; SET_DIRECTION_LEFT();
;
	lda     _player_flags
	and     #$FE
	sta     _player_flags
;
; if (valrigard.x <= 0x0200) { // Changed by 1 from nesdoug's example because Valrigard's hitbox is narrower by 1 pixel on both sides
;
	lda     _valrigard+1
	cmp     #$02
	bne     L2C90
	lda     _valrigard
	cmp     #$01
L2C90:	bcs     L2C8E
;
; valrigard.velocity_x = 0;
;
	lda     #$00
	sta     _valrigard+4
	sta     _valrigard+4+1
;
; valrigard.x = 0x200;
;
	ldx     #$02
	sta     _valrigard
	stx     _valrigard+1
;
; } else if (valrigard.x < 0x0600) { // Don't allow us to wrap to the other side
;
	jmp     L2CB1
L2C8E:	ldx     _valrigard+1
	cpx     #$06
	bcs     L2C96
;
; valrigard.velocity_x = -0x100;
;
	ldx     #$FF
	lda     #$00
;
; } else {
;
	jmp     L361E
;
; valrigard.velocity_x = -SPEED;
;
L2C96:	ldx     #$FE
	lda     #$B0
;
; else if (pad1 & PAD_RIGHT){
;
	jmp     L361E
L361C:	lda     _pad1
	ldx     #$00
	and     #$01
	beq     L361E
;
; SET_DIRECTION_RIGHT();
;
	lda     _player_flags
	ora     #$01
	sta     _player_flags
;
; if (valrigard.x >= 0xf000) {  // Also changed by 1 from nesdoug's example because Valrigard's hitbox is narrower by 1 pixel on both sides
;
	lda     _valrigard
	cmp     #$00
	lda     _valrigard+1
	sbc     #$F0
	bcc     L2CA3
;
; valrigard.velocity_x = 0;
;
	txa
	sta     _valrigard+4
	sta     _valrigard+4+1
;
; valrigard.x = 0xf000; // ...and we'd add 0x100 to this constant here (and the 0x200 in the PAD_LEFT block would be a 0x100)
;
	ldx     #$F0
	sta     _valrigard
	stx     _valrigard+1
;
; } else if (valrigard.x > 0xec00) { // Don't allow us to wrap to the other side
;
	jmp     L2CB1
L2CA3:	lda     _valrigard
	cmp     #$01
	lda     _valrigard+1
	sbc     #$EC
	bcc     L2CAA
;
; valrigard.velocity_x = 0x100;
;
	inx
	lda     #$00
;
; } else {
;
	jmp     L361E
;
; valrigard.velocity_x = SPEED;
;
L2CAA:	inx
	lda     #$50
;
; valrigard.velocity_x = 0;
;
L361E:	sta     _valrigard+4
	stx     _valrigard+4+1
;
; valrigard.x += valrigard.velocity_x;
;
L2CB1:	lda     _valrigard+4
	clc
	adc     _valrigard
	sta     _valrigard
	lda     _valrigard+4+1
	adc     _valrigard+1
	sta     _valrigard+1
;
; if((high_byte(valrigard.x) < 0x01)||(high_byte(valrigard.x) > 0xf8)) { // make sure no wrap around to the other side
;
	lda     _valrigard+1
	beq     L361F
	cmp     #$F9
	bcc     L3620
;
; valrigard.x = 0x100;
;
L361F:	ldx     #$01
	lda     #$00
	sta     _valrigard
	stx     _valrigard+1
;
; hitbox.x = high_byte(valrigard.x);
;
L3620:	lda     _valrigard+1
	sta     _hitbox
;
; hitbox.y = high_byte(valrigard.y);
;
	lda     _valrigard+3
	sta     _hitbox+1
;
; hitbox.width = VALRIGARD_WIDTH;
;
	lda     #$0B
	sta     _hitbox+2
;
; hitbox.height = VALRIGARD_HEIGHT;
;
	lda     #$0D
	sta     _hitbox+3
;
; bg_collision();
;
	jsr     _bg_collision
;
; if (collision_L && collision_R) { // Half-stuck in a wall, I'm guessing?
;
	lda     _collision_L
	beq     L2CCA
	lda     _collision_R
	beq     L2CCA
;
; valrigard.x = old_x;
;
	lda     _old_x+1
	sta     _valrigard+1
	lda     _old_x
	sta     _valrigard
;
; else if (collision_L) {
;
	jmp     L2CD7
L2CCA:	lda     _collision_L
	beq     L2CD1
;
; high_byte(valrigard.x) -= eject_L;
;
	lda     _eject_L
;
; else if (collision_R) {
;
	jmp     L3636
L2CD1:	lda     _collision_R
	beq     L2CD7
;
; high_byte(valrigard.x) -= eject_R;
;
	lda     _eject_R
L3636:	eor     #$FF
	sec
	adc     _valrigard+1
	sta     _valrigard+1
;
; old_y = valrigard.y;
;
L2CD7:	lda     _valrigard+2+1
	sta     _old_y+1
	lda     _valrigard+2
	sta     _old_y
;
; if (pad1 & PAD_UP && energy > 0) { // If we're holding up on the DPad...
;
	lda     _pad1
	and     #$08
	beq     L2CDE
	lda     _energy
	beq     L2CDE
;
; if (collision_D) { // If grounded...
;
	lda     _collision_D
;
; } else {
;
	bne     L3637
;
; valrigard.velocity_y -= GRAVITY;
;
	lda     _valrigard+6
	sec
	sbc     #$30
	sta     _valrigard+6
	bcs     L2CE9
	dec     _valrigard+6+1
;
; if (valrigard.velocity_y < -SPEED) valrigard.velocity_y = -SPEED;
;
L2CE9:	lda     _valrigard+6
	cmp     #$B0
	lda     _valrigard+6+1
	sbc     #$FE
	bvc     L2CEC
	eor     #$80
L2CEC:	bpl     L3624
L3637:	ldx     #$FE
	lda     #$B0
	sta     _valrigard+6
	stx     _valrigard+6+1
;
; energy -= 1;
;
L3624:	dec     _energy
;
; if (!player_frame_timer && !IS_SWINGING_SWORD) {
;
	lda     _player_frame_timer
	bne     L2CFC
	lda     _player_flags
	and     #$04
	bne     L2CFC
;
; player_frame_timer = 14;
;
	lda     #$0E
	sta     _player_frame_timer
;
; } else {
;
	jmp     L2CFC
;
; valrigard.velocity_y += GRAVITY;
;
L2CDE:	lda     #$30
	clc
	adc     _valrigard+6
	sta     _valrigard+6
	bcc     L2CFB
	inc     _valrigard+6+1
;
; if (valrigard.velocity_y > MAX_FALL) valrigard.velocity_y = MAX_FALL;
;
L2CFB:	lda     _valrigard+6
	cmp     #$51
	lda     _valrigard+6+1
	sbc     #$01
	bvs     L2CFE
	eor     #$80
L2CFE:	bpl     L2CFC
	ldx     #$01
	lda     #$50
	sta     _valrigard+6
	stx     _valrigard+6+1
;
; valrigard.y += valrigard.velocity_y;
;
L2CFC:	lda     _valrigard+6
	clc
	adc     _valrigard+2
	sta     _valrigard+2
	lda     _valrigard+6+1
	adc     _valrigard+2+1
	sta     _valrigard+2+1
;
; if (high_byte(valrigard.y) < 0x01) { valrigard.y = 0x100; }
;
	lda     _valrigard+3
	bne     L3627
	ldx     #$01
;
; else if (high_byte(valrigard.y) > 0xf0) { valrigard.y = 0xf000; }
;
	jmp     L3632
L3627:	lda     _valrigard+3
	cmp     #$F1
	bcc     L3628
	ldx     #$F0
	lda     #$00
L3632:	sta     _valrigard+2
	stx     _valrigard+2+1
;
; hitbox.x = high_byte(valrigard.x);
;
L3628:	lda     _valrigard+1
	sta     _hitbox
;
; hitbox.y = high_byte(valrigard.y);
;
	lda     _valrigard+3
	sta     _hitbox+1
;
; bg_collision();
;
	jsr     _bg_collision
;
; if(collision_U) {
;
	lda     _collision_U
	beq     L2D15
;
; high_byte(valrigard.y) -= eject_U;
;
	lda     _eject_U
	eor     #$FF
	sec
	adc     _valrigard+3
	sta     _valrigard+3
;
; if (did_headbonk) { 
;
	lda     _did_headbonk
	beq     L362D
;
; high_byte(valrigard.y) += 4;
;
	lda     #$04
	clc
	adc     _valrigard+3
	sta     _valrigard+3
;
; valrigard.velocity_y = 0;
;
	lda     #$00
	sta     _valrigard+6
	sta     _valrigard+6+1
;
; else if (collision_D) {
;
	jmp     L362D
L2D15:	lda     _collision_D
	beq     L362D
;
; high_byte(valrigard.y) -= eject_D;
;
	lda     _eject_D
	eor     #$FF
	sec
	adc     _valrigard+3
	sta     _valrigard+3
;
; valrigard.x += conveyor_delta;
;
	ldx     #$00
	lda     _conveyor_delta
	bpl     L2D29
	dex
L2D29:	clc
	adc     _valrigard
	sta     _valrigard
	txa
	adc     _valrigard+1
	sta     _valrigard+1
;
; energy += 4;
;
	lda     #$04
	clc
	adc     _energy
	sta     _energy
;
; if (energy > MAX_ENERGY) energy = MAX_ENERGY;
;
	cmp     #$71
	bcc     L3629
	lda     #$70
	sta     _energy
;
; if (TOUCHING_YELLOW_DOOR && (pad1 & PAD_UP)) {
;
L3629:	lda     _player_flags
	and     #$10
	beq     L362D
	lda     _pad1
	and     #$08
	beq     L362D
;
; game_mode = MODE_GAME_OVER;
;
	lda     #$04
	sta     _game_mode
;
; if (TOUCHING_SPIKES) {
;
L362D:	lda     _player_flags
	and     #$20
	beq     L2D4F
;
; hitbox.x = high_byte(valrigard.x) + VALRIGARD_SPIKE_HITBOX_WIDTH_OFFSET; 
;
	lda     _valrigard+1
	clc
	adc     #$01
	sta     _hitbox
;
; hitbox.y = high_byte(valrigard.y) + VALRIGARD_SPIKE_HITBOX_HEIGHT_OFFSET; 
;
	lda     _valrigard+3
	clc
	adc     #$01
	sta     _hitbox+1
;
; hitbox.width = VALRIGARD_SPIKE_HITBOX_WIDTH;
;
	lda     #$09
	sta     _hitbox+2
;
; hitbox.height = VALRIGARD_SPIKE_HITBOX_HEIGHT;
;
	lda     #$0B
	sta     _hitbox+3
;
; RESET_TOUCHING_SPIKES(); // Clear the spike flag, then try to collide with the background again.
;
	lda     _player_flags
	and     #$DF
	sta     _player_flags
;
; bg_collision();
;
	jsr     _bg_collision
;
; if (TOUCHING_SPIKES) { // If we're still touching spikes even with a smaller hitbox, we die.
;
	lda     _player_flags
	and     #$20
	beq     L2D4F
;
; SET_STATUS_DEAD();
;
	lda     _player_flags
	ora     #$02
	sta     _player_flags
;
; temp5 = valrigard.y;
;
L2D4F:	lda     _valrigard+2+1
	sta     _temp5+1
	lda     _valrigard+2
	sta     _temp5
;
; if (valrigard.y < MAX_UP && scroll_y > min_scroll_y) {
;
	ldx     _valrigard+2+1
	cpx     #$40
	bcs     L2D57
	lda     _scroll_y
	sec
	sbc     _min_scroll_y
	sta     tmp1
	lda     _scroll_y+1
	sbc     _min_scroll_y+1
	ora     tmp1
	beq     L2D57
	bcc     L2D57
;
; temp1 = (MAX_UP - valrigard.y + 0x80) >> 8; // "the numbers work better with +80 (like 0.5)". I'll take his word for it.
;
	lda     #$00
	sec
	sbc     _valrigard+2
	pha
	lda     #$40
	sbc     _valrigard+2+1
	tax
	pla
	clc
	adc     #$80
	bcc     L2D5E
	inx
L2D5E:	txa
	sta     _temp1
;
; scroll_y = sub_scroll_y(temp1, scroll_y);
;
	jsr     pusha
	lda     _scroll_y
	ldx     _scroll_y+1
	jsr     _sub_scroll_y
	sta     _scroll_y
	stx     _scroll_y+1
;
; high_byte(valrigard.y) += temp1;
;
	lda     _temp1
	clc
;
; else if (valrigard.y > MIN_DOWN && scroll_y < max_scroll_y) {
;
	jmp     L3633
L2D57:	lda     _valrigard+2
	cmp     #$01
	lda     _valrigard+2+1
	sbc     #$80
	bcc     L362F
	lda     _scroll_y
	cmp     _max_scroll_y
	lda     _scroll_y+1
	sbc     _max_scroll_y+1
	bcc     L2D68
L362F:	rts
;
; temp1 = (MIN_DOWN + valrigard.y + 0x80) >> 8;
;
L2D68:	lda     _valrigard+2
	pha
	lda     _valrigard+2+1
	clc
	adc     #$80
	tax
	pla
	clc
	adc     #$80
	bcc     L2D6E
	inx
L2D6E:	stx     _temp1
;
; add_scroll_y(scroll_y, temp1, scroll_y);
;
	lda     _scroll_y
	sta     _TEMP
	lda     _scroll_y+1
	sta     _TEMP+1
	lda     _temp1
	jsr     _add_scroll_y_fast_sub
	sta     _scroll_y
	stx     _scroll_y+1
;
; high_byte(valrigard.y) -= temp1;
;
	lda     _temp1
	eor     #$FF
	sec
L3633:	adc     _valrigard+3
	sta     _valrigard+3
;
; }
;
	rts

.endproc

; ---------------------------------------------------------------
; void __near__ swing_sword (void)
; ---------------------------------------------------------------

.segment	"CODE"

.proc	_swing_sword: near

.segment	"CODE"

;
; if ((pad1 & PAD_A) && !player_sword_timer && !(pad1 & PAD_UP)) {
;
	lda     _pad1
	and     #$80
	beq     L2D7E
	lda     _player_sword_timer
	bne     L2D7E
	lda     _pad1
	and     #$08
	bne     L2D7E
;
; player_sword_timer = 37;
;
	lda     #$25
	sta     _player_sword_timer
;
; player_frame_timer = 14;
;
	lda     #$0E
	sta     _player_frame_timer
;
; SET_STATUS_SWINGING_SWORD();
;
	lda     _player_flags
	ora     #$04
	sta     _player_flags
;
; sfx_play(SFX_SWORD_SLASH,0);
;
	lda     #$00
	jsr     pusha
	jsr     _sfx_play
;
; if (player_sword_timer) { 
;
L2D7E:	lda     _player_sword_timer
	beq     L2D8E
;
; --player_sword_timer;
;
	dec     _player_sword_timer
;
; } else {
;
	rts
;
; SET_STATUS_NOT_SWINGING_SWORD();
;
L2D8E:	lda     _player_flags
	and     #$FB
	sta     _player_flags
;
; }
;
	rts

.endproc

; ---------------------------------------------------------------
; void __near__ bg_collision (void)
; ---------------------------------------------------------------

.segment	"CODE"

.proc	_bg_collision: near

.segment	"CODE"

;
; collision_L = 0;
;
	lda     #$00
	sta     _collision_L
;
; collision_R = 0;
;
	sta     _collision_R
;
; collision_U = 0;
;
	sta     _collision_U
;
; collision_D = 0;
;
	sta     _collision_D
;
; temp3 = hitbox.y;
;
	lda     _hitbox+1
	sta     _temp3
;
; add_scroll_y(temp6, temp3, scroll_y);
;
	lda     _scroll_y
	sta     _TEMP
	lda     _scroll_y+1
	sta     _TEMP+1
	lda     _temp3
	jsr     _add_scroll_y_fast_sub
	sta     _temp6
	stx     _temp6+1
;
; nt_current = high_byte(temp6);
;
	lda     _temp6+1
	sta     _nt_current
;
; add_scroll_y(temp5, temp3, scroll_y); // upper left
;
	lda     _scroll_y
	sta     _TEMP
	lda     _scroll_y+1
	sta     _TEMP+1
	lda     _temp3
	jsr     _add_scroll_y_fast_sub
	sta     _temp5
	stx     _temp5+1
;
; temp3 = low_byte(temp5); // low byte y
;
	lda     _temp5
	sta     _temp3
;
; temp1 = hitbox.x; // x left
;
	lda     _hitbox
	sta     _temp1
;
; eject_L = temp1 | 0xf0;
;
	ora     #$F0
	sta     _eject_L
;
; eject_U = temp3 | 0xf0;
;
	lda     _temp3
	ora     #$F0
	sta     _eject_U
;
; bg_collision_sub();
;
	jsr     _bg_collision_sub
;
; if(collision){ // find a corner in the collision map
;
	lda     _collision
	beq     L363C
;
; ++collision_L;
;
	inc     _collision_L
;
; ++collision_U;
;
	inc     _collision_U
;
; if (!enemy_is_using_bg_collision) { bg_collision_sub_collision_u(); }
;
	lda     _enemy_is_using_bg_collision
	bne     L363C
	jsr     _bg_collision_sub_collision_u
;
; temp1 += hitbox.width; // x right
;
L363C:	lda     _hitbox+2
	clc
	adc     _temp1
	sta     _temp1
;
; eject_R = (temp1 + 1) & 0x0f;
;
	clc
	adc     #$01
	and     #$0F
	sta     _eject_R
;
; bg_collision_sub();
;
	jsr     _bg_collision_sub
;
; if(collision){ // find a corner in the collision map
;
	lda     _collision
	beq     L2DD5
;
; ++collision_R;
;
	inc     _collision_R
;
; ++collision_U;
;
	inc     _collision_U
;
; if (!enemy_is_using_bg_collision) { bg_collision_sub_collision_u(); }
;
	lda     _enemy_is_using_bg_collision
	bne     L2DD5
	jsr     _bg_collision_sub_collision_u
;
; add_scroll_y(temp6, hitbox.height, temp6);
;
L2DD5:	lda     _temp6
	sta     _TEMP
	lda     _temp6+1
	sta     _TEMP+1
	lda     _hitbox+3
	jsr     _add_scroll_y_fast_sub
	sta     _temp6
	stx     _temp6+1
;
; nt_current = high_byte(temp6);
;
	lda     _temp6+1
	sta     _nt_current
;
; temp3 = hitbox.y + hitbox.height; // y bottom
;
	lda     _hitbox+1
	clc
	adc     _hitbox+3
	sta     _temp3
;
; add_scroll_y(temp5, temp3, scroll_y); // upper left
;
	lda     _scroll_y
	sta     _TEMP
	lda     _scroll_y+1
	sta     _TEMP+1
	lda     _temp3
	jsr     _add_scroll_y_fast_sub
	sta     _temp5
	stx     _temp5+1
;
; temp3 = low_byte(temp5); // low byte y
;
	lda     _temp5
	sta     _temp3
;
; eject_D = (temp3 + 1) & 0x0f;
;
	clc
	adc     #$01
	and     #$0F
	sta     _eject_D
;
; if(temp3 >= 0xf0) return;
;
	lda     _temp3
	cmp     #$F0
	bcs     L2E04
;
; bg_collision_sub();
;
	jsr     _bg_collision_sub
;
; if(collision){ // find a corner in the collision map
;
	lda     _collision
	beq     L2DFD
;
; ++collision_R;
;
	inc     _collision_R
;
; ++collision_D;
;
	inc     _collision_D
;
; temp1 = hitbox.x; // x left
;
L2DFD:	lda     _hitbox
	sta     _temp1
;
; bg_collision_sub();
;
	jsr     _bg_collision_sub
;
; if(collision){ // find a corner in the collision map
;
	lda     _collision
	beq     L2E04
;
; ++collision_L;
;
	inc     _collision_L
;
; ++collision_D;
;
	inc     _collision_D
;
; }
;
L2E04:	rts

.endproc

; ---------------------------------------------------------------
; void __near__ bg_collision_sub (void)
; ---------------------------------------------------------------

.segment	"CODE"

.proc	_bg_collision_sub: near

.segment	"CODE"

;
; coordinates = (temp1 >> 4) + (temp3 & 0xf0); 
;
	lda     _temp1
	lsr     a
	lsr     a
	lsr     a
	lsr     a
	sta     ptr1
	lda     _temp3
	and     #$F0
	clc
	adc     ptr1
	sta     _coordinates
;
; temp0 = high_byte(temp5);
;
	lda     _temp5+1
	sta     _temp0
;
; AsmSet2ByteFromPtrAtIndexVar(temp_mutablepointer, cmaps, temp0);
;
	asl     a
	tay
	lda     _cmaps,y
	sta     _temp_mutablepointer
	lda     _cmaps+1,y
	sta     _temp_mutablepointer+1
;
; AsmSet1ByteFromZpPtrAtIndexVar(temp4, temp_mutablepointer, coordinates);
;
	ldy     _coordinates
	lda     (_temp_mutablepointer),y
	sta     _temp4
;
; temp0 = metatile_property_lookup_table[temp4];
;
	ldy     _temp4
	lda     _metatile_property_lookup_table,y
	sta     _temp0
;
; collision = METATILE_IS_SOLID(temp4);
;
	ldy     _temp4
	lda     _metatile_property_lookup_table,y
	and     #$01
	sta     _collision
;
; if (temp0 == METATILE_NO_EFFECT || temp0 == METATILE_SOLID || enemy_is_using_bg_collision) { return; }
;
	lda     _temp0
	beq     L363F
	cmp     #$01
	beq     L363F
	lda     _enemy_is_using_bg_collision
	beq     L3640
L363F:	rts
;
; if (temp0 & METATILE_YELLOW_DOOR) {
;
L3640:	lda     _temp0
	and     #$10
	beq     L3641
;
; SET_TOUCHING_YELLOW_DOOR();
;
	lda     _player_flags
	ora     #$10
	sta     _player_flags
;
; } else if (temp0 & METATILE_POWERUP) {
;
	rts
L3641:	lda     _temp0
	and     #$40
	jeq     L3644
;
; temp_mutablepointer[coordinates] = EMPTY_TILE;
;
	lda     _temp_mutablepointer
	ldx     _temp_mutablepointer+1
	clc
	adc     _coordinates
	bcc     L363D
	inx
L363D:	sta     ptr1
	stx     ptr1+1
	lda     #$2C
	ldy     #$00
	sta     (ptr1),y
;
; if (temp4 == STAR_TILE) { 
;
	lda     _temp4
	cmp     #$2A
	bne     L3642
;
; ++score;
;
	inc     _score
	bne     L2E3E
	inc     _score+1
;
; sfx_play(SFX_STAR_COLLECT,1); // Star collection
;
L2E3E:	lda     #$01
	jsr     pusha
	jsr     _sfx_play
;
; SET_SCORE_CHANGED_THIS_FRAME();
;
	lda     _player_flags
	ora     #$08
	sta     _player_flags
;
; else if (temp4 == ENERGY_REFILL_TILE) { energy = MAX_ENERGY; }
;
	jmp     L3643
L3642:	lda     _temp4
	cmp     #$2B
	bne     L3643
	lda     #$70
	sta     _energy
;
; nt = (nt_current & 1) << 1;
;
L3643:	lda     _nt_current
	and     #$01
	asl     a
	sta     _nt
;
; get_ppu_addr(address, nt, temp1, temp3 & 0xf0);
;
	lda     _temp1
	sta     _TEMP+2
	lda     _nt
	sta     _TEMP+3
	lda     _temp3
	and     #$F0
	jsr     _get_ppu_addr_fast
	sta     _address
	stx     _address+1
;
; AsmSet2ByteAtPtrWithOffset(tile_clear_queue, tile_clear_back, address);
;
	lda     _tile_clear_back
	asl     a
	tay
	lda     _address
	sta     _tile_clear_queue,y
	lda     _address+1
	sta     _tile_clear_queue+1,y
;
; tile_clear_to_type_queue[tile_clear_back] = EMPTY_TILE;
;
	ldy     _tile_clear_back
	lda     #$2C
	sta     _tile_clear_to_type_queue,y
;
; ++tile_clear_back;
;
	inc     _tile_clear_back
;
; tile_clear_back &= 0b11; // Mask to <4
;
	lda     _tile_clear_back
	and     #$03
	sta     _tile_clear_back
;
; } else if (temp0 & METATILE_CONVEYOR_LEFT) {
;
	rts
L3644:	lda     _temp0
	and     #$04
	beq     L3645
;
; conveyor_delta = LEFT_CONVEYOR_DELTA;
;
	lda     #$81
	sta     _conveyor_delta
;
; } else if (temp0 & METATILE_CONVEYOR_RIGHT) {
;
	rts
L3645:	lda     _temp0
	and     #$08
	beq     L3646
;
; conveyor_delta = RIGHT_CONVEYOR_DELTA;
;
	lda     #$7F
	sta     _conveyor_delta
;
; } else if (temp0 & METATILE_SPIKES) {
;
	rts
L3646:	lda     _temp0
	and     #$02
	beq     L3647
;
; SET_TOUCHING_SPIKES();
;
	lda     _player_flags
	ora     #$20
	sta     _player_flags
;
; } else if (temp0 & METATILE_RED_DOOR) {
;
	rts
L3647:	lda     _temp0
	and     #$20
	beq     L2E7C
;
; game_mode = MODE_GAME_OVER;
;
	lda     #$04
	sta     _game_mode
;
; }
;
L2E7C:	rts

.endproc

; ---------------------------------------------------------------
; void __near__ bg_collision_sub_collision_u (void)
; ---------------------------------------------------------------

.segment	"CODE"

.proc	_bg_collision_sub_collision_u: near

.segment	"CODE"

;
; temp0 = rand8();
;
	jsr     _rand8
	sta     _temp0
;
; if (temp4 == QUESTION_BLOCK && (temp3 & 0x0f) == 0x0f 
;
	lda     _temp4
	cmp     #$16
	bne     L364A
	lda     _temp3
	and     #$0F
;
; && (temp1 & 0xf0) == ( (high_byte(valrigard.x) + VALRIGARD_HEIGHT/2 ) & 0xf0)) {
;
	cmp     #$0F
	bne     L364A
	lda     _temp1
	and     #$F0
	jsr     pusha0
	lda     _valrigard+1
	clc
	adc     #$06
	and     #$F0
	jsr     tosicmp0
	beq     L2E84
L364A:	rts
;
; temp_mutablepointer[coordinates] = BONKED_QUESTION_BLOCK;
;
L2E84:	lda     _temp_mutablepointer
	ldx     _temp_mutablepointer+1
	clc
	adc     _coordinates
	bcc     L3649
	inx
L3649:	sta     ptr1
	stx     ptr1+1
	lda     #$1B
	ldy     #$00
	sta     (ptr1),y
;
; if (temp0 > 128) { ++score; }
;
	lda     _temp0
	cmp     #$81
	bcc     L364B
	inc     _score
	bne     L2EAA
;
; else if (temp0 > 86) { score += 2; }
;
	jmp     L364E
L364B:	lda     _temp0
	cmp     #$57
	bcc     L364C
	lda     #$02
;
; else if (temp0 > 43) { score += 3; }
;
	jmp     L3652
L364C:	lda     _temp0
	cmp     #$2C
	bcc     L364D
	lda     #$03
;
; else if (temp0 > 2) { score += 4; }
;
	jmp     L3652
L364D:	lda     _temp0
	cmp     #$03
	bcc     L2EA2
	lda     #$04
;
; else { score += 100; } /*if (temp0 < 3)*/ 
;
	jmp     L3652
L2EA2:	lda     #$64
L3652:	clc
	adc     _score
	sta     _score
	bcc     L2EAA
L364E:	inc     _score+1
;
; SET_SCORE_CHANGED_THIS_FRAME();
;
L2EAA:	lda     _player_flags
	ora     #$08
	sta     _player_flags
;
; did_headbonk = 1;
;
	lda     #$01
	sta     _did_headbonk
;
; sfx_play(SFX_BUMP, 0);
;
	lda     #$05
	jsr     pusha
	lda     #$00
	jsr     _sfx_play
;
; nt = (nt_current & 1) << 1;
;
	lda     _nt_current
	and     #$01
	asl     a
	sta     _nt
;
; get_ppu_addr(address, nt, temp1, temp3 & 0xf0);
;
	lda     _temp1
	sta     _TEMP+2
	lda     _nt
	sta     _TEMP+3
	lda     _temp3
	and     #$F0
	jsr     _get_ppu_addr_fast
	sta     _address
	stx     _address+1
;
; AsmSet2ByteAtPtrWithOffset(tile_clear_queue, tile_clear_back, address);
;
	lda     _tile_clear_back
	asl     a
	tay
	lda     _address
	sta     _tile_clear_queue,y
	lda     _address+1
	sta     _tile_clear_queue+1,y
;
; tile_clear_to_type_queue[tile_clear_back] = BONKED_QUESTION_BLOCK;
;
	ldy     _tile_clear_back
	lda     #$1B
	sta     _tile_clear_to_type_queue,y
;
; ++tile_clear_back;
;
	inc     _tile_clear_back
;
; tile_clear_back &= 0b11;
;
	lda     _tile_clear_back
	and     #$03
	sta     _tile_clear_back
;
; }
;
	rts

.endproc

; ---------------------------------------------------------------
; void __near__ check_spr_objects (void)
; ---------------------------------------------------------------

.segment	"CODE"

.proc	_check_spr_objects: near

.segment	"CODE"

;
; nt_current = high_byte(scroll_y);
;
	lda     _scroll_y+1
	sta     _nt_current
;
; for (x = 0; x < enemies.count; ++x) {
;
	lda     #$00
	sta     _x
L3655:	lda     _x
	cmp     _enemies+576
	bcc     L3658
;
; }
;
	rts
;
; if (GET_ENEMY_TYPE(x)) {
;
L3658:	ldy     _x
	lda     _enemies+320,y
	jeq     L3656
;
; high_byte(temp5) = enemies.nt[x];
;
	ldy     _x
	lda     _enemies+192,y
	sta     _temp5+1
;
; low_byte(temp5) = enemies.actual_y[x];
;
	ldy     _x
	lda     _enemies+128,y
	sta     _temp5
;
; temp5 -= scroll_y;
;
	lda     _scroll_y
	eor     #$FF
	sec
	adc     _temp5
	sta     _temp5
	lda     _scroll_y+1
	eor     #$FF
	adc     _temp5+1
	sta     _temp5+1
;
; if (high_byte(temp5)) {
;
	lda     _temp5+1
	beq     L2F61
;
; DEACTIVATE_ENEMY(x);
;
	ldy     _x
	lda     _enemies+256,y
	and     #$7F
	sta     _TEMP
	ldy     _x
	lda     _TEMP
	sta     _enemies+256,y
;
; continue;
;
	jmp     L3657
;
; ACTIVATE_ENEMY(x); // This enemy is active if it's on-screen.
;
L2F61:	ldy     _x
	lda     _enemies+256,y
	ora     #$80
	sta     _TEMP
	ldy     _x
	lda     _TEMP
	sta     _enemies+256,y
;
; enemies.y[x] = low_byte(temp5);
;
	ldy     _x
	lda     _temp5
	sta     _enemies+64,y
;
; if (nt_current != enemies.nt[x]) { 
;
	ldy     _x
	lda     _enemies+192,y
	cmp     _nt_current
	beq     L3656
;
; temp0 = enemies.y[x] - 16;
;
	ldy     _x
	lda     _enemies+64,y
	sec
	sbc     #$10
	sta     _temp0
;
; enemies.y[x] = temp0;
;
	ldy     _x
	lda     _temp0
	sta     _enemies+64,y
;
; ++x;
;
L3656:	inc     _x
;
; if (GET_ENEMY_TYPE(x)) {
;
	ldy     _x
	lda     _enemies+320,y
	jeq     L3657
;
; high_byte(temp5) = enemies.nt[x];
;
	ldy     _x
	lda     _enemies+192,y
	sta     _temp5+1
;
; low_byte(temp5) = enemies.actual_y[x];
;
	ldy     _x
	lda     _enemies+128,y
	sta     _temp5
;
; temp5 -= scroll_y;
;
	lda     _scroll_y
	eor     #$FF
	sec
	adc     _temp5
	sta     _temp5
	lda     _scroll_y+1
	eor     #$FF
	adc     _temp5+1
	sta     _temp5+1
;
; if (high_byte(temp5)) {
;
	lda     _temp5+1
	beq     L2F9C
;
; DEACTIVATE_ENEMY(x);
;
	ldy     _x
	lda     _enemies+256,y
	and     #$7F
	sta     _TEMP
	ldy     _x
	lda     _TEMP
	sta     _enemies+256,y
;
; continue;
;
	jmp     L3657
;
; ACTIVATE_ENEMY(x);
;
L2F9C:	ldy     _x
	lda     _enemies+256,y
	ora     #$80
	sta     _TEMP
	ldy     _x
	lda     _TEMP
	sta     _enemies+256,y
;
; enemies.y[x] = low_byte(temp5);
;
	ldy     _x
	lda     _temp5
	sta     _enemies+64,y
;
; if (nt_current != enemies.nt[x]) { 
;
	ldy     _x
	lda     _enemies+192,y
	cmp     _nt_current
	beq     L3657
;
; temp0 = enemies.y[x] - 16;
;
	ldy     _x
	lda     _enemies+64,y
	sec
	sbc     #$10
	sta     _temp0
;
; enemies.y[x] = temp0;
;
	ldy     _x
	lda     _temp0
	sta     _enemies+64,y
;
; for (x = 0; x < enemies.count; ++x) {
;
L3657:	inc     _x
	jmp     L3655

.endproc

; ---------------------------------------------------------------
; void __near__ sprite_collisions (void)
; ---------------------------------------------------------------

.segment	"CODE"

.proc	_sprite_collisions: near

.segment	"CODE"

;
; hitbox.x = high_byte(valrigard.x);
;
	lda     _valrigard+1
	sta     _hitbox
;
; hitbox.y = high_byte(valrigard.y);
;
	lda     _valrigard+3
	sta     _hitbox+1
;
; if (IS_SWINGING_SWORD) {
;
	lda     _player_flags
	and     #$04
	beq     L365A
;
; hitbox.width = VALRIGARD_SWINGING_WIDTH;
;
	lda     #$0F
	sta     _hitbox+2
;
; } else {
;
	jmp     L3659
;
; hitbox.width = VALRIGARD_WIDTH;
;
L365A:	lda     #$0B
	sta     _hitbox+2
;
; hitbox.height = VALRIGARD_HEIGHT;    
;
	lda     #$0D
L3659:	sta     _hitbox+3
;
; for (x = 0; x < enemies.count; ++x) {
;
	lda     #$00
	sta     _x
	tax
L365B:	lda     _x
	cmp     _enemies+576
	txa
	sbc     #$00
	bcc     L365E
;
; }
;
	rts
;
; if(IS_ENEMY_ACTIVE(x)) {
;
L365E:	ldy     _x
	lda     _enemies+256,y
	and     #$80
	beq     L365C
;
; temp1 = GET_ENEMY_TYPE(x);
;
	ldy     _x
	lda     _enemies+320,y
	sta     _temp1
;
; hitbox2.width = enemy_hitbox_width_lookup_table[temp1];
;
	ldy     _temp1
	lda     _enemy_hitbox_width_lookup_table,y
	sta     _hitbox2+2
;
; if (!hitbox2.width) { continue; } // Continue if width of the hitbox is 0.
;
	lda     _hitbox2+2
	jeq     L365D
;
; hitbox2.height = enemy_hitbox_height_lookup_table[temp1];
;
	ldy     _temp1
	lda     _enemy_hitbox_height_lookup_table,y
	sta     _hitbox2+3
;
; hitbox2.x = enemies.x[x];
;
	ldy     _x
	lda     _enemies,y
	sta     _hitbox2
;
; hitbox2.x += enemy_hitbox_x_offset_lookup_table[temp1];
;
	ldy     _temp1
	lda     _enemy_hitbox_x_offset_lookup_table,y
	clc
	adc     _hitbox2
	sta     _hitbox2
;
; hitbox2.y = enemies.y[x];
;
	ldy     _x
	lda     _enemies+64,y
	sta     _hitbox2+1
;
; check_collision(temp0, hitbox, hitbox2);
;
	lda     #<(_hitbox)
	sta     _TEMP
	lda     #>(_hitbox)
	sta     _TEMP+1
	lda     #<(_hitbox2)
	sta     _TEMP+2
	lda     #>(_hitbox2)
	sta     _TEMP+3
	jsr     _check_collision_fast
	sta     _temp0
;
; if (temp0) {
;
	lda     _temp0
	beq     L365C
;
; AsmCallFunctionAtPtrOffsetByIndexVar(collision_functions, temp1);
;
	lda     _temp1
	asl     a
	tay
	lda     _collision_functions,y
	ldx     _collision_functions+1,y
	jsr     callax
;
; ++x;
;
L365C:	inc     _x
;
; if(IS_ENEMY_ACTIVE(x)) {
;
	ldy     _x
	lda     _enemies+256,y
	ldx     #$00
	and     #$80
	beq     L365D
;
; temp1 = GET_ENEMY_TYPE(x);
;
	ldy     _x
	lda     _enemies+320,y
	sta     _temp1
;
; hitbox2.width = enemy_hitbox_width_lookup_table[temp1];
;
	ldy     _temp1
	lda     _enemy_hitbox_width_lookup_table,y
	sta     _hitbox2+2
;
; if (!hitbox2.width) { continue; } // Continue if width of the hitbox is 0.
;
	lda     _hitbox2+2
	beq     L365D
;
; hitbox2.height = enemy_hitbox_height_lookup_table[temp1];
;
	ldy     _temp1
	lda     _enemy_hitbox_height_lookup_table,y
	sta     _hitbox2+3
;
; hitbox2.x = enemies.x[x];
;
	ldy     _x
	lda     _enemies,y
	sta     _hitbox2
;
; hitbox2.x += enemy_hitbox_x_offset_lookup_table[temp1];
;
	ldy     _temp1
	lda     _enemy_hitbox_x_offset_lookup_table,y
	clc
	adc     _hitbox2
	sta     _hitbox2
;
; hitbox2.y = enemies.y[x];
;
	ldy     _x
	lda     _enemies+64,y
	sta     _hitbox2+1
;
; check_collision(temp0, hitbox, hitbox2);
;
	lda     #<(_hitbox)
	sta     _TEMP
	lda     #>(_hitbox)
	sta     _TEMP+1
	lda     #<(_hitbox2)
	sta     _TEMP+2
	lda     #>(_hitbox2)
	sta     _TEMP+3
	jsr     _check_collision_fast
	sta     _temp0
;
; if (temp0) {
;
	lda     _temp0
	beq     L3011
;
; AsmCallFunctionAtPtrOffsetByIndexVar(collision_functions, temp1);
;
	lda     _temp1
	asl     a
	tay
	lda     _collision_functions,y
	ldx     _collision_functions+1,y
	jsr     callax
;
; for (x = 0; x < enemies.count; ++x) {
;
L3011:	ldx     #$00
L365D:	inc     _x
	jmp     L365B

.endproc

; ---------------------------------------------------------------
; void __near__ collision_with_inert (void)
; ---------------------------------------------------------------

.segment	"CODE"

.proc	_collision_with_inert: near

.segment	"CODE"

;
; void collision_with_inert(void) { }
;
	rts

.endproc

; ---------------------------------------------------------------
; void __near__ collision_with_killable_slashable (void)
; ---------------------------------------------------------------

.segment	"CODE"

.proc	_collision_with_killable_slashable: near

.segment	"CODE"

;
; if (!IS_SWINGING_SWORD) { 
;
	lda     _player_flags
	and     #$04
	bne     L309A
;
; SET_STATUS_DEAD();
;
	lda     _player_flags
	ora     #$02
	sta     _player_flags
;
; else {
;
	rts
;
; enemies.type[x] = ENEMY_PURPLE_DEATH_EFFECT;
;
L309A:	ldy     _x
	lda     #$0C
	sta     _enemies+320,y
;
; enemies.timer[x] = 12;
;
	ldy     _x
	sta     _enemies+512,y
;
; score += 1; // Add to the score 
;
	inc     _score
	bne     L30AB
	inc     _score+1
;
; SET_SCORE_CHANGED_THIS_FRAME();
;
L30AB:	lda     _player_flags
	ora     #$08
	sta     _player_flags
;
; sfx_play(SFX_ENEMY_KILL, 0);
;
	lda     #$02
	jsr     pusha
	lda     #$00
	jmp     _sfx_play

.endproc

; ---------------------------------------------------------------
; void __near__ collision_with_inert_slashable (void)
; ---------------------------------------------------------------

.segment	"CODE"

.proc	_collision_with_inert_slashable: near

.segment	"CODE"

;
; if (IS_SWINGING_SWORD && !SLASHABLE_UNKILLABLE_IS_SLASHED(x)) { 
;
	lda     _player_flags
	and     #$04
	beq     L3660
	ldy     _x
	lda     _enemies+256,y
	and     #$20
	beq     L3661
L3660:	rts
;
; SLASHABLE_UNKILLABLE_SET_SLASHED(x);
;
L3661:	ldy     _x
	lda     _enemies+256,y
	ora     #$20
	sta     _TEMP
	ldy     _x
	lda     _TEMP
	sta     _enemies+256,y
;
; score += 1;
;
	inc     _score
	bne     L30C7
	inc     _score+1
;
; SET_SCORE_CHANGED_THIS_FRAME();
;
L30C7:	lda     _player_flags
	ora     #$08
	sta     _player_flags
;
; sfx_play(SFX_ENEMY_KILL, 0);
;
	lda     #$02
	jsr     pusha
	lda     #$00
	jmp     _sfx_play

.endproc

; ---------------------------------------------------------------
; void __near__ collision_with_unkillable_unslashable (void)
; ---------------------------------------------------------------

.segment	"CODE"

.proc	_collision_with_unkillable_unslashable: near

.segment	"CODE"

;
; SET_STATUS_DEAD();
;
	lda     _player_flags
	ora     #$02
	sta     _player_flags
;
; }
;
	rts

.endproc

; ---------------------------------------------------------------
; void __near__ collision_with_splyke (void)
; ---------------------------------------------------------------

.segment	"CODE"

.proc	_collision_with_splyke: near

.segment	"CODE"

;
; if (!IS_SWINGING_SWORD) { // Not swinging the sword?
;
	lda     _player_flags
	and     #$04
	bne     L30D3
;
; SET_STATUS_DEAD();
;
	lda     _player_flags
	ora     #$02
	sta     _player_flags
;
; } else if (!SPLYKE_IS_MOVING_AROUND(x)){ // Not tornado:
;
	rts
L30D3:	ldy     _x
	lda     _enemies+256,y
	and     #$20
	bne     L30DA
;
; enemies.type[x] = ENEMY_SPLYKE_DEATH_EFFECT;
;
	ldy     _x
	lda     #$0D
	sta     _enemies+320,y
;
; enemies.timer[x] = 12;
;
	ldy     _x
	lda     #$0C
	sta     _enemies+512,y
;
; score += 1;
;
	inc     _score
	bne     L30E9
	inc     _score+1
;
; SET_SCORE_CHANGED_THIS_FRAME();
;
L30E9:	lda     _player_flags
	ora     #$08
	sta     _player_flags
;
; sfx_play(SFX_ENEMY_KILL, 0);
;
	lda     #$02
	jsr     pusha
	lda     #$00
	jmp     _sfx_play
;
; }
;
L30DA:	rts

.endproc

; ---------------------------------------------------------------
; void __near__ collision_with_boss (void)
; ---------------------------------------------------------------

.segment	"CODE"

.proc	_collision_with_boss: near

.segment	"CODE"

;
; game_mode = MODE_GAME_OVER; // Just end the level for now.
;
	lda     #$04
	sta     _game_mode
;
; }
;
	rts

.endproc

; ---------------------------------------------------------------
; void __near__ enemy_movement (void)
; ---------------------------------------------------------------

.segment	"CODE"

.proc	_enemy_movement: near

.segment	"CODE"

;
; for (x = 0; x < enemies.count; ++x) {
;
	lda     #$00
	sta     _x
L3662:	lda     _x
	cmp     _enemies+576
	bcs     L3103
;
; if (IS_ENEMY_ACTIVE(x)) {
;
	ldy     _x
	lda     _enemies+256,y
	and     #$80
	beq     L3663
;
; temp1 = GET_ENEMY_TYPE(x);
;
	ldy     _x
	lda     _enemies+320,y
	sta     _temp1
;
; AsmCallFunctionAtPtrOffsetByIndexVar(ai_pointers, temp1);
;
	asl     a
	tay
	lda     _ai_pointers,y
	ldx     _ai_pointers+1,y
	jsr     callax
;
; ++x;
;
L3663:	inc     _x
;
; if (IS_ENEMY_ACTIVE(x)) {
;
	ldy     _x
	lda     _enemies+256,y
	and     #$80
	beq     L3664
;
; temp1 = GET_ENEMY_TYPE(x);
;
	ldy     _x
	lda     _enemies+320,y
	sta     _temp1
;
; AsmCallFunctionAtPtrOffsetByIndexVar(ai_pointers, temp1);
;
	asl     a
	tay
	lda     _ai_pointers,y
	ldx     _ai_pointers+1,y
	jsr     callax
;
; for (x = 0; x < enemies.count; ++x) {
;
L3664:	inc     _x
	jmp     L3662
;
; }
;
L3103:	rts

.endproc

; ---------------------------------------------------------------
; void __near__ korbat_ai (void)
; ---------------------------------------------------------------

.segment	"CODE"

.proc	_korbat_ai: near

.segment	"CODE"

;
; temp0 = enemies.timer[x];
;
	ldy     _x
	lda     _enemies+512,y
	sta     _temp0
;
; ++temp0;
;
	inc     _temp0
;
; enemies.timer[x] = temp0;
;
	ldy     _x
	lda     _temp0
	sta     _enemies+512,y
;
; temp3 = ENEMY_DIRECTION(x);
;
	ldy     _x
	lda     _enemies+256,y
	and     #$01
	sta     _temp3
;
; temp1 = enemies.x[x];
;
	ldy     _x
	lda     _enemies,y
	sta     _temp1
;
; temp1 += leftright_movement_offset_lookup_table[temp3];
;
	ldy     _temp3
	lda     _leftright_movement_offset_lookup_table,y
	clc
	adc     _temp1
	sta     _temp1
;
; temp2 = enemies.actual_y[x] + 6; // center y
;
	ldy     _x
	lda     _enemies+128,y
	clc
	adc     #$06
	sta     _temp2
;
; coordinates = (temp1 >> 4) + (temp2 & 0xf0); 
;
	lda     _temp1
	lsr     a
	lsr     a
	lsr     a
	lsr     a
	sta     ptr1
	lda     _temp2
	and     #$F0
	clc
	adc     ptr1
	sta     _coordinates
;
; temp0 = enemies.nt[x];
;
	ldy     _x
	lda     _enemies+192,y
	sta     _temp0
;
; AsmSet2ByteFromPtrAtIndexVar(temppointer, cmaps, temp0);
;
	asl     a
	tay
	lda     _cmaps,y
	sta     _temppointer
	lda     _cmaps+1,y
	sta     _temppointer+1
;
; AsmSet1ByteFromZpPtrAtIndexVar(collision, temppointer, coordinates);
;
	ldy     _coordinates
	lda     (_temppointer),y
	sta     _collision
;
; if (METATILE_IS_SOLID(collision)) {
;
	ldy     _collision
	lda     _metatile_property_lookup_table,y
	and     #$01
	beq     L316F
;
; ENEMY_FLIP_DIRECTION(x);
;
	ldy     _x
	lda     _enemies+256,y
	eor     #$01
	sta     _TEMP
	ldy     _x
	lda     _TEMP
	sta     _enemies+256,y
;
; temp3 ^= 1;
;
	lda     _temp3
	eor     #$01
	sta     _temp3
;
; temp1 = leftright_movement_moving_lookup_table[temp3];
;
L316F:	ldy     _temp3
	lda     _leftright_movement_moving_lookup_table,y
	sta     _temp1
;
; temp0 = enemies.x[x] + temp1;
;
	ldy     _x
	lda     _enemies,y
	clc
	adc     _temp1
	sta     _temp0
;
; enemies.x[x] = temp0;
;
	ldy     _x
	lda     _temp0
	sta     _enemies,y
;
; }
;
	rts

.endproc

; ---------------------------------------------------------------
; void __near__ spikeball_ai (void)
; ---------------------------------------------------------------

.segment	"CODE"

.proc	_spikeball_ai: near

.segment	"CODE"

;
; temp0 = enemies.timer[x];
;
	ldy     _x
	lda     _enemies+512,y
	sta     _temp0
;
; ++temp0;
;
	inc     _temp0
;
; enemies.timer[x] = temp0;
;
	ldy     _x
	lda     _temp0
	sta     _enemies+512,y
;
; temp3 = ENEMY_DIRECTION(x);
;
	ldy     _x
	lda     _enemies+256,y
	and     #$01
	sta     _temp3
;
; temp1 = enemies.x[x];
;
	ldy     _x
	lda     _enemies,y
	sta     _temp1
;
; temp1 += leftright_movement_offset_lookup_table[temp3];
;
	ldy     _temp3
	lda     _leftright_movement_offset_lookup_table,y
	clc
	adc     _temp1
	sta     _temp1
;
; temp2 = enemies.actual_y[x] + 18; // Y beneath us
;
	ldy     _x
	lda     _enemies+128,y
	clc
	adc     #$12
	sta     _temp2
;
; if (temp2 >= 0xf0) {
;
	cmp     #$F0
	bcc     L31A8
;
; temp4 = enemies.nt[x] + 1;
;
	ldy     _x
	lda     _enemies+192,y
	clc
	adc     #$01
	sta     _temp4
;
; temp2 = 0;
;
	lda     #$00
	sta     _temp2
;
; } else {
;
	jmp     L3669
;
; temp4 = enemies.nt[x];
;
L31A8:	ldy     _x
	lda     _enemies+192,y
	sta     _temp4
;
; coordinates = (temp1 >> 4) + (temp2 & 0xf0); 
;
L3669:	lda     _temp1
	lsr     a
	lsr     a
	lsr     a
	lsr     a
	sta     ptr1
	lda     _temp2
	and     #$F0
	clc
	adc     ptr1
	sta     _coordinates
;
; AsmSet2ByteFromPtrAtIndexVar(temppointer, cmaps, temp4);
;
	lda     _temp4
	asl     a
	tay
	lda     _cmaps,y
	sta     _temppointer
	lda     _cmaps+1,y
	sta     _temppointer+1
;
; AsmSet1ByteFromZpPtrAtIndexVar(collision, temppointer, coordinates);
;
	ldy     _coordinates
	lda     (_temppointer),y
	sta     _collision
;
; if (!METATILE_IS_SOLID(collision)) {
;
	ldy     _collision
	lda     _metatile_property_lookup_table,y
	and     #$01
;
; } else { // Don't flip twice -- this causes a bug if we're on an edge and there's a block ahead of us, but not one block down+ahead of us.
;
	beq     L3674
;
; temp2 = enemies.actual_y[x] + 6; // center y
;
	ldy     _x
	lda     _enemies+128,y
	clc
	adc     #$06
	sta     _temp2
;
; coordinates = (temp1 >> 4) + (temp2 & 0xf0); 
;
	lda     _temp1
	lsr     a
	lsr     a
	lsr     a
	lsr     a
	sta     ptr1
	lda     _temp2
	and     #$F0
	clc
	adc     ptr1
	sta     _coordinates
;
; temp4 = enemies.nt[x];
;
	ldy     _x
	lda     _enemies+192,y
	sta     _temp4
;
; AsmSet2ByteFromPtrAtIndexVar(temppointer, cmaps, temp4);
;
	asl     a
	tay
	lda     _cmaps,y
	sta     _temppointer
	lda     _cmaps+1,y
	sta     _temppointer+1
;
; AsmSet1ByteFromZpPtrAtIndexVar(collision, temppointer, coordinates);
;
	ldy     _coordinates
	lda     (_temppointer),y
	sta     _collision
;
; if (METATILE_IS_SOLID(collision)) {
;
	ldy     _collision
	lda     _metatile_property_lookup_table,y
	and     #$01
	beq     L31DF
;
; ENEMY_FLIP_DIRECTION(x);
;
L3674:	ldy     _x
	lda     _enemies+256,y
	eor     #$01
	sta     _TEMP
	ldy     _x
	lda     _TEMP
	sta     _enemies+256,y
;
; temp3 ^= 1;
;
	lda     _temp3
	eor     #$01
	sta     _temp3
;
; temp1 = leftright_movement_moving_lookup_table[temp3];
;
L31DF:	ldy     _temp3
	lda     _leftright_movement_moving_lookup_table,y
	sta     _temp1
;
; temp0 = enemies.x[x] + temp1;
;
	ldy     _x
	lda     _enemies,y
	clc
	adc     _temp1
	sta     _temp0
;
; enemies.x[x] = temp0;
;
	ldy     _x
	lda     _temp0
	sta     _enemies,y
;
; }
;
	rts

.endproc

; ---------------------------------------------------------------
; void __near__ cannon_ai (void)
; ---------------------------------------------------------------

.segment	"CODE"

.proc	_cannon_ai: near

.segment	"CODE"

;
; temp_x = x + 1;
;
	lda     _x
	clc
	adc     #$01
	sta     _temp_x
;
; if (IS_ENEMY_ACTIVE(temp_x)) { return; }
;
	ldy     _temp_x
	lda     _enemies+256,y
	and     #$80
	beq     L3678
;
; }
;
	rts
;
; temp0 = enemies.timer[x];
;
L3678:	ldy     _x
	lda     _enemies+512,y
	sta     _temp0
;
; --temp0;
;
	dec     _temp0
;
; enemies.timer[x] = temp0;
;
	ldy     _x
	lda     _temp0
	sta     _enemies+512,y
;
; if (enemies.timer[x] == 20) { 
;
	ldy     _x
	lda     _enemies+512,y
	cmp     #$14
	jne     L32F8
;
; if (!(enemies.extra2[x] & 0xf0)) {
;
	ldy     _x
	lda     _enemies+448,y
	and     #$F0
	jne     L32F8
;
; temp0 = high_byte(valrigard.x) + (VALRIGARD_WIDTH/2);
;
	lda     _valrigard+1
	clc
	adc     #$05
	sta     _temp0
;
; temp1 = high_byte(valrigard.y) + 4; // Tweaked for maximum accuracy - may need to be tweaked more.
;
	lda     _valrigard+3
	clc
	adc     #$04
	sta     _temp1
;
; temp2 = enemies.x[x] + 6; // ENEMY_WIDTH/2
;
	ldy     _x
	lda     _enemies,y
	clc
	adc     #$06
	sta     _temp2
;
; temp3 = enemies.y[x] + 6; // ENEMY_HEIGHT/2
;
	ldy     _x
	lda     _enemies+64,y
	clc
	adc     #$06
	sta     _temp3
;
; fire_at_target();
;
	jsr     _fire_at_target
;
; enemies.extra[x] = temp0;
;
	ldy     _x
	lda     _temp0
	sta     _enemies+384,y
;
; AsmSet2ByteFromPtrAtIndexVar(temppointer, cannon_sprite_quadrant_lookup_table, temp4);
;
	lda     _temp4
	asl     a
	tay
	lda     _cannon_sprite_quadrant_lookup_table,y
	sta     _temppointer
	lda     _cannon_sprite_quadrant_lookup_table+1,y
	sta     _temppointer+1
;
; if (temp0 > 0x30) { // over 0x30 brads
;
	lda     _temp0
	cmp     #$31
	bcc     L3676
;
; temp3 = temppointer[2]; // y-axis aligned
;
	lda     _temppointer+1
	sta     ptr1+1
	lda     _temppointer
	sta     ptr1
	ldy     #$02
;
; } else if (temp0 > 0x10) { // over 0x10 brads
;
	jmp     L3677
L3676:	lda     _temp0
	cmp     #$11
	bcc     L332D
;
; temp3 = temppointer[1]; // diagonal
;
	lda     _temppointer+1
	sta     ptr1+1
	lda     _temppointer
	sta     ptr1
	ldy     #$01
;
; } else { // 0x10 or fewer brads
;
	jmp     L3677
;
; temp3 = temppointer[0]; // x-axis aligned
;
L332D:	lda     _temppointer+1
	sta     ptr1+1
	lda     _temppointer
	sta     ptr1
	ldy     #$00
L3677:	lda     (ptr1),y
	sta     _temp3
;
; enemies.extra2[x] = temp3;
;
	ldy     _x
	lda     _temp3
	sta     _enemies+448,y
;
; if (enemies.timer[x] == 0) {
;
L32F8:	ldy     _x
	lda     _enemies+512,y
	bne     L333A
;
; enemies.timer[x] = 120;
;
	ldy     _x
	lda     #$78
	sta     _enemies+512,y
;
; sfx_play(SFX_CANNON_FIRE, 0);
;
	lda     #$03
	jsr     pusha
	lda     #$00
	jsr     _sfx_play
;
; temp0 = enemies.x[x] + 3;
;
	ldy     _x
	lda     _enemies,y
	clc
	adc     #$03
	sta     _temp0
;
; temp1 = enemies.actual_y[x] + 3;
;
	ldy     _x
	lda     _enemies+128,y
	clc
	adc     #$03
	sta     _temp1
;
; temp2 = enemies.nt[x];
;
	ldy     _x
	lda     _enemies+192,y
	sta     _temp2
;
; enemies.x[temp_x] = temp0;
;
	ldy     _temp_x
	lda     _temp0
	sta     _enemies,y
;
; enemies.actual_y[temp_x] = temp1;
;
	ldy     _temp_x
	lda     _temp1
	sta     _enemies+128,y
;
; enemies.nt[temp_x] = temp2;
;
	ldy     _temp_x
	lda     _temp2
	sta     _enemies+192,y
;
; enemies.type[temp_x] = ENEMY_CANNONBALL;
;
	ldy     _temp_x
	lda     #$09
	sta     _enemies+320,y
;
; }
;
L333A:	rts

.endproc

; ---------------------------------------------------------------
; void __near__ cannonball_ai (void)
; ---------------------------------------------------------------

.segment	"CODE"

.proc	_cannonball_ai: near

.segment	"CODE"

;
; temp_x = x-1;
;
	lda     _x
	sec
	sbc     #$01
	sta     _temp_x
;
; temp1 = enemies.extra[temp_x];
;
	ldy     _temp_x
	lda     _enemies+384,y
	sta     _temp1
;
; cannonball_ai_sub();
;
	jsr     _cannonball_ai_sub
;
; if (METATILE_IS_SOLID(collision)) {
;
	ldy     _collision
	lda     _metatile_property_lookup_table,y
	and     #$01
	beq     L33B6
;
; enemies.type[x] = ENEMY_NONE;
;
	ldy     _x
	lda     #$00
	sta     _enemies+320,y
;
; enemies.flags[x] = 0;
;
	ldy     _x
	sta     _enemies+256,y
;
; }
;
L33B6:	rts

.endproc

; ---------------------------------------------------------------
; void __near__ cannonball_ai_sub (void)
; ---------------------------------------------------------------

.segment	"CODE"

.proc	_cannonball_ai_sub: near

.segment	"CODE"

;
; temp2 = cos_lookup(temp1);
;
	lda     _temp1
	jsr     _cos_lookup
	sta     _temp2
;
; temp3 = sin_lookup(temp1);
;
	lda     _temp1
	jsr     _sin_lookup
	sta     _temp3
;
; high_byte(temp5) = enemies.x[x];
;
	ldy     _x
	lda     _enemies,y
	sta     _temp5+1
;
; low_byte(temp5) = enemies.extra[x];
;
	ldy     _x
	lda     _enemies+384,y
	sta     _temp5
;
; if (CANNONBALL_X_DIRECTION(x)) {
;
	ldy     _x
	lda     _enemies+256,y
	and     #$40
	beq     L367C
;
; temp5 += temp2;
;
	lda     _temp2
	clc
	adc     _temp5
	sta     _temp5
	lda     #$00
	adc     _temp5+1
	sta     _temp5+1
;
; temp1 = high_byte(temp5) + 7;
;
	clc
	adc     #$07
;
; } else {
;
	jmp     L3679
;
; temp5 -= temp2;
;
L367C:	lda     _temp2
	eor     #$FF
	sec
	adc     _temp5
	sta     _temp5
	lda     #$FF
	adc     _temp5+1
	sta     _temp5+1
;
; temp1 = high_byte(temp5) + 0xff;
;
	clc
	adc     #$FF
L3679:	sta     _temp1
;
; enemies.x[x] = high_byte(temp5);
;
	ldy     _x
	lda     _temp5+1
	sta     _enemies,y
;
; enemies.extra[x] = low_byte(temp5);
;
	ldy     _x
	lda     _temp5
	sta     _enemies+384,y
;
; high_byte(temp6) = enemies.actual_y[x];
;
	ldy     _x
	lda     _enemies+128,y
	sta     _temp6+1
;
; low_byte(temp6) = enemies.extra2[x];
;
	ldy     _x
	lda     _enemies+448,y
	sta     _temp6
;
; if (CANNONBALL_Y_DIRECTION(x)) {
;
	ldy     _x
	lda     _enemies+256,y
	and     #$20
	beq     L367D
;
; temp6 += temp3;
;
	lda     _temp3
	clc
	adc     _temp6
	sta     _temp6
	lda     #$00
	adc     _temp6+1
	sta     _temp6+1
;
; enemies.extra2[x] = low_byte(temp6);
;
	ldy     _x
	lda     _temp6
	sta     _enemies+448,y
;
; low_byte(temp6) = high_byte(temp6);
;
	lda     _temp6+1
	sta     _temp6
;
; high_byte(temp6) = enemies.nt[x];
;
	ldy     _x
	lda     _enemies+192,y
	sta     _temp6+1
;
; add_scroll_y(temp6, 0x00, temp6);
;
	lda     _temp6
	sta     _TEMP
	lda     _temp6+1
	sta     _TEMP+1
	lda     #$00
	jsr     _add_scroll_y_fast_sub
	sta     _temp6
	stx     _temp6+1
;
; enemies.nt[x] = high_byte(temp6);
;
	ldy     _x
	lda     _temp6+1
	sta     _enemies+192,y
;
; enemies.actual_y[x] = low_byte(temp6);
;
	ldy     _x
	lda     _temp6
	sta     _enemies+128,y
;
; add_scroll_y(temp5, 7, temp6);
;
	lda     _temp6
	sta     _TEMP
	lda     _temp6+1
	sta     _TEMP+1
	lda     #$07
;
; } else {
;
	jmp     L3681
;
; temp6 -= temp3;
;
L367D:	lda     _temp3
	eor     #$FF
	sec
	adc     _temp6
	sta     _temp6
	lda     #$FF
	adc     _temp6+1
	sta     _temp6+1
;
; enemies.extra2[x] = low_byte(temp6);
;
	ldy     _x
	lda     _temp6
	sta     _enemies+448,y
;
; low_byte(temp6) = high_byte(temp6);
;
	lda     _temp6+1
	sta     _temp6
;
; high_byte(temp6) = enemies.nt[x];
;
	ldy     _x
	lda     _enemies+192,y
	sta     _temp6+1
;
; if (!low_byte(temp6)) {
;
	lda     _temp6
	bne     L3440
;
; temp6 = sub_scroll_y(0x01, temp6);
;
	lda     #$01
;
; } else {
;
	jmp     L3685
;
; temp6 = sub_scroll_y(0x00, temp6);
;
L3440:	lda     #$00
L3685:	jsr     pusha
	lda     _temp6
	ldx     _temp6+1
	jsr     _sub_scroll_y
	sta     _temp6
	stx     _temp6+1
;
; enemies.nt[x] = high_byte(temp6);
;
	ldy     _x
	lda     _temp6+1
	sta     _enemies+192,y
;
; enemies.actual_y[x] = low_byte(temp6);
;
	ldy     _x
	lda     _temp6
	sta     _enemies+128,y
;
; add_scroll_y(temp5, 1, temp6);
;
	lda     _temp6
	sta     _TEMP
	lda     _temp6+1
	sta     _TEMP+1
	lda     #$01
L3681:	jsr     _add_scroll_y_fast_sub
	sta     _temp5
	stx     _temp5+1
;
; coordinates = (temp1 >> 4) + (low_byte(temp5) & 0xf0);
;
	lda     _temp1
	lsr     a
	lsr     a
	lsr     a
	lsr     a
	sta     ptr1
	lda     _temp5
	and     #$F0
	clc
	adc     ptr1
	sta     _coordinates
;
; temp4 = high_byte(temp5);
;
	lda     _temp5+1
	sta     _temp4
;
; AsmSet2ByteFromPtrAtIndexVar(temppointer, cmaps, temp4);
;
	asl     a
	tay
	lda     _cmaps,y
	sta     _temppointer
	lda     _cmaps+1,y
	sta     _temppointer+1
;
; AsmSet1ByteFromZpPtrAtIndexVar(collision, temppointer, coordinates);
;
	ldy     _coordinates
	lda     (_temppointer),y
	sta     _collision
;
; }
;
	rts

.endproc

; ---------------------------------------------------------------
; void __near__ acid_ai (void)
; ---------------------------------------------------------------

.segment	"CODE"

.proc	_acid_ai: near

.segment	"CODE"

;
; if (enemies.extra2[x]) {
;
	ldy     _x
	lda     _enemies+448,y
	beq     L3687
;
; temp0 = enemies.extra2[x];
;
	ldy     _x
	lda     _enemies+448,y
	sta     _temp0
;
; --temp0;
;
	dec     _temp0
;
; enemies.extra2[x] = temp0;
;
	ldy     _x
	lda     _temp0
	sta     _enemies+448,y
;
; temp_x = x + 1;
;
L3687:	lda     _x
	clc
	adc     #$01
	sta     _temp_x
;
; if (IS_ENEMY_ACTIVE(temp_x)) { return; }
;
	ldy     _temp_x
	lda     _enemies+256,y
	and     #$80
	beq     L3688
;
; }
;
	rts
;
; temp0 = enemies.timer[x];
;
L3688:	ldy     _x
	lda     _enemies+512,y
	sta     _temp0
;
; --temp0;
;
	dec     _temp0
;
; enemies.timer[x] = temp0;
;
	ldy     _x
	lda     _temp0
	sta     _enemies+512,y
;
; if (temp0 == 0) {
;
	lda     _temp0
	bne     L349C
;
; temp0 = enemies.extra[x];
;
	ldy     _x
	lda     _enemies+384,y
	sta     _temp0
;
; enemies.timer[x] = temp0;
;
	ldy     _x
	lda     _temp0
	sta     _enemies+512,y
;
; temp0 = rand8() & 0b111; // Bottom 3 bits, 0 - 7
;
	jsr     _rand8
	and     #$07
	sta     _temp0
;
; temp1 = enemies.x[x] + temp0; 
;
	ldy     _x
	lda     _enemies,y
	clc
	adc     _temp0
	sta     _temp1
;
; temp2 = enemies.actual_y[x];
;
	ldy     _x
	lda     _enemies+128,y
	sta     _temp2
;
; temp3 = enemies.nt[x];
;
	ldy     _x
	lda     _enemies+192,y
	sta     _temp3
;
; enemies.x[temp_x] = temp1;
;
	ldy     _temp_x
	lda     _temp1
	sta     _enemies,y
;
; enemies.actual_y[temp_x] = temp2;
;
	ldy     _temp_x
	lda     _temp2
	sta     _enemies+128,y
;
; enemies.nt[temp_x] = temp3;
;
	ldy     _temp_x
	lda     _temp3
	sta     _enemies+192,y
;
; enemies.type[temp_x] = ENEMY_ACIDDROP;
;
	ldy     _temp_x
	lda     #$0A
	sta     _enemies+320,y
;
; enemies.extra2[x] = 12; // ACIDBLOB_ANIMATION_FRAME_COUNT
;
	ldy     _x
	lda     #$0C
	sta     _enemies+448,y
;
; sfx_play(SFX_ACID_DROP, 0);
;
	lda     #$06
	jsr     pusha
	lda     #$00
	jmp     _sfx_play
;
; }
;
L349C:	rts

.endproc

; ---------------------------------------------------------------
; void __near__ acid_drop_ai (void)
; ---------------------------------------------------------------

.segment	"CODE"

.proc	_acid_drop_ai: near

.segment	"CODE"

;
; high_byte(temp5) = enemies.nt[x];
;
	ldy     _x
	lda     _enemies+192,y
	sta     _temp5+1
;
; low_byte(temp5) = enemies.actual_y[x];
;
	ldy     _x
	lda     _enemies+128,y
	sta     _temp5
;
; add_scroll_y(temp5, 1, temp5);
;
	sta     _TEMP
	lda     _temp5+1
	sta     _TEMP+1
	lda     #$01
	jsr     _add_scroll_y_fast_sub
	sta     _temp5
	stx     _temp5+1
;
; add_scroll_y(temp6, 6, temp5); // 8 being the cosmetic projectile height
;
	lda     _temp5
	sta     _TEMP
	lda     _temp5+1
	sta     _TEMP+1
	lda     #$06
	jsr     _add_scroll_y_fast_sub
	sta     _temp6
	stx     _temp6+1
;
; coordinates = (enemies.x[x] >> 4) + (low_byte(temp6) & 0xf0);
;
	ldy     _x
	lda     _enemies,y
	lsr     a
	lsr     a
	lsr     a
	lsr     a
	sta     ptr1
	lda     _temp6
	and     #$F0
	clc
	adc     ptr1
	sta     _coordinates
;
; temp0 = high_byte(temp6);
;
	lda     _temp6+1
	sta     _temp0
;
; AsmSet2ByteFromPtrAtIndexVar(temppointer, cmaps, temp0);
;
	asl     a
	tay
	lda     _cmaps,y
	sta     _temppointer
	lda     _cmaps+1,y
	sta     _temppointer+1
;
; AsmSet1ByteFromZpPtrAtIndexVar(collision, temppointer, coordinates);
;
	ldy     _coordinates
	lda     (_temppointer),y
	sta     _collision
;
; if (METATILE_IS_SOLID(collision)) {
;
	ldy     _collision
	lda     _metatile_property_lookup_table,y
	and     #$01
	beq     L32CE
;
; enemies.type[x] = ENEMY_NONE;
;
	ldy     _x
	lda     #$00
	sta     _enemies+320,y
;
; enemies.flags[x] = 0;
;
	ldy     _x
	sta     _enemies+256,y
;
; } else {
;
	rts
;
; enemies.nt[x] = high_byte(temp5);
;
L32CE:	ldy     _x
	lda     _temp5+1
	sta     _enemies+192,y
;
; enemies.actual_y[x] = low_byte(temp5);
;
	ldy     _x
	lda     _temp5
	sta     _enemies+128,y
;
; }
;
	rts

.endproc

; ---------------------------------------------------------------
; void __near__ splyke_ai (void)
; ---------------------------------------------------------------

.segment	"CODE"

.proc	_splyke_ai: near

.segment	"CODE"

;
; temp0 = rand8() & 0x0f; // random from 0 to 15
;
	jsr     _rand8
	and     #$0F
	sta     _temp0
;
; temp1 = SPLYKE_IS_MOVING_AROUND(x);
;
	ldy     _x
	lda     _enemies+256,y
	and     #$20
	sta     _temp1
;
; temp2 = (enemies.extra2[x] + 1) & 7; // Bitmask the animation counter to 7. (this will get >> 1'd in draw_sprites)
;
	ldy     _x
	lda     _enemies+448,y
	clc
	adc     #$01
	and     #$07
	sta     _temp2
;
; enemies.extra2[x] = temp2;
;
	ldy     _x
	lda     _temp2
	sta     _enemies+448,y
;
; if (temp0 == 0 && temp1 == 0) {
;
	lda     _temp0
	bne     L34DD
	lda     _temp1
	bne     L34DD
;
; SPLYKE_SET_MOVING_AROUND(x); // Start moving.
;
	ldy     _x
	lda     _enemies+256,y
	ora     #$20
	sta     _TEMP
	ldy     _x
	lda     _TEMP
	sta     _enemies+256,y
;
; } else if (temp1){
;
	rts
L34DD:	lda     _temp1
	bne     L369A
;
; }
;
	rts
;
; if (temp0 == 0) {
;
L369A:	lda     _temp0
	bne     L34EE
;
; SPLYKE_SET_STANDING_STILL(x);
;
	ldy     _x
	lda     _enemies+256,y
	and     #$DF
	sta     _TEMP
	ldy     _x
	lda     _TEMP
	sta     _enemies+256,y
;
; temp3 = ENEMY_DIRECTION(x);
;
L34EE:	ldy     _x
	lda     _enemies+256,y
	and     #$01
	sta     _temp3
;
; temp1 = enemies.x[x];
;
	ldy     _x
	lda     _enemies,y
	sta     _temp1
;
; temp1 += leftright_movement_offset_lookup_table[temp3];
;
	ldy     _temp3
	lda     _leftright_movement_offset_lookup_table,y
	clc
	adc     _temp1
	sta     _temp1
;
; temp1 += leftright_movement_moving_lookup_table[temp3];
;
	ldy     _temp3
	lda     _leftright_movement_moving_lookup_table,y
	clc
	adc     _temp1
	sta     _temp1
;
; temp2 = enemies.actual_y[x] + 18; // Y beneath us
;
	ldy     _x
	lda     _enemies+128,y
	clc
	adc     #$12
	sta     _temp2
;
; if (temp2 >= 0xf0) {
;
	cmp     #$F0
	bcc     L3510
;
; temp4 = enemies.nt[x] + 1;
;
	ldy     _x
	lda     _enemies+192,y
	clc
	adc     #$01
	sta     _temp4
;
; temp2 = 0;
;
	lda     #$00
	sta     _temp2
;
; } else {
;
	jmp     L368E
;
; temp4 = enemies.nt[x];
;
L3510:	ldy     _x
	lda     _enemies+192,y
	sta     _temp4
;
; coordinates = (temp1 >> 4) + (temp2 & 0xf0); 
;
L368E:	lda     _temp1
	lsr     a
	lsr     a
	lsr     a
	lsr     a
	sta     ptr1
	lda     _temp2
	and     #$F0
	clc
	adc     ptr1
	sta     _coordinates
;
; AsmSet2ByteFromPtrAtIndexVar(temppointer, cmaps, temp4);
;
	lda     _temp4
	asl     a
	tay
	lda     _cmaps,y
	sta     _temppointer
	lda     _cmaps+1,y
	sta     _temppointer+1
;
; AsmSet1ByteFromZpPtrAtIndexVar(collision, temppointer, coordinates);
;
	ldy     _coordinates
	lda     (_temppointer),y
	sta     _collision
;
; if (!METATILE_IS_SOLID(collision)) {
;
	ldy     _collision
	lda     _metatile_property_lookup_table,y
	and     #$01
;
; } else { // Don't flip twice.
;
	beq     L3699
;
; temp2 = enemies.actual_y[x] + 6; // center y
;
	ldy     _x
	lda     _enemies+128,y
	clc
	adc     #$06
	sta     _temp2
;
; coordinates = (temp1 >> 4) + (temp2 & 0xf0); 
;
	lda     _temp1
	lsr     a
	lsr     a
	lsr     a
	lsr     a
	sta     ptr1
	lda     _temp2
	and     #$F0
	clc
	adc     ptr1
	sta     _coordinates
;
; temp4 = enemies.nt[x];
;
	ldy     _x
	lda     _enemies+192,y
	sta     _temp4
;
; AsmSet2ByteFromPtrAtIndexVar(temppointer, cmaps, temp4);
;
	asl     a
	tay
	lda     _cmaps,y
	sta     _temppointer
	lda     _cmaps+1,y
	sta     _temppointer+1
;
; AsmSet1ByteFromZpPtrAtIndexVar(collision, temppointer, coordinates);
;
	ldy     _coordinates
	lda     (_temppointer),y
	sta     _collision
;
; if (METATILE_IS_SOLID(collision)) {
;
	ldy     _collision
	lda     _metatile_property_lookup_table,y
	and     #$01
	beq     L3547
;
; ENEMY_FLIP_DIRECTION(x);
;
L3699:	ldy     _x
	lda     _enemies+256,y
	eor     #$01
	sta     _TEMP
	ldy     _x
	lda     _TEMP
	sta     _enemies+256,y
;
; temp3 ^= 1;
;
	lda     _temp3
	eor     #$01
	sta     _temp3
;
; temp1 = leftright_movement_moving_lookup_table[temp3];
;
L3547:	ldy     _temp3
	lda     _leftright_movement_moving_lookup_table,y
	sta     _temp1
;
; temp1 += temp1;
;
	clc
	adc     _temp1
	sta     _temp1
;
; temp0 = enemies.x[x] + temp1;
;
	ldy     _x
	lda     _enemies,y
	clc
	adc     _temp1
	sta     _temp0
;
; enemies.x[x] = temp0;
;
	ldy     _x
	lda     _temp0
	sta     _enemies,y
;
; }
;
	rts

.endproc

; ---------------------------------------------------------------
; void __near__ sun_ai (void)
; ---------------------------------------------------------------

.segment	"CODE"

.proc	_sun_ai: near

.segment	"CODE"

;
; temp3 = ENEMY_DIRECTION(x);
;
	ldy     _x
	lda     _enemies+256,y
	and     #$01
	sta     _temp3
;
; high_byte(temp5) = enemies.nt[x];
;
	ldy     _x
	lda     _enemies+192,y
	sta     _temp5+1
;
; low_byte(temp5) = enemies.actual_y[x];
;
	ldy     _x
	lda     _enemies+128,y
	sta     _temp5
;
; temp1 = enemies.x[x] + 6; 
;
	ldy     _x
	lda     _enemies,y
	clc
	adc     #$06
	sta     _temp1
;
; if (temp3 == UP) { // subtracting from y
;
	lda     _temp3
	bne     L3233
;
; temp5 = sub_scroll_y(1, temp5);
;
	lda     #$01
	jsr     pusha
	lda     _temp5
	ldx     _temp5+1
	jsr     _sub_scroll_y
	sta     _temp5
	stx     _temp5+1
;
; temp2 = low_byte(temp5); // Y of tile of interest
;
	lda     _temp5
	sta     _temp2
;
; temp4 = high_byte(temp5); // NT of tile of interest
;
	lda     _temp5+1
;
; } else { // DOWN (adding to y)
;
	jmp     L369B
;
; add_scroll_y(temp5, 1, temp5);
;
L3233:	lda     _temp5
	sta     _TEMP
	lda     _temp5+1
	sta     _TEMP+1
	lda     #$01
	jsr     _add_scroll_y_fast_sub
	sta     _temp5
	stx     _temp5+1
;
; add_scroll_y(temp6, 15, temp5); // 15 being the cosmetic size of an enemy
;
	lda     _temp5
	sta     _TEMP
	lda     _temp5+1
	sta     _TEMP+1
	lda     #$0F
	jsr     _add_scroll_y_fast_sub
	sta     _temp6
	stx     _temp6+1
;
; temp2 = low_byte(temp6); // Y of tile of interest
;
	lda     _temp6
	sta     _temp2
;
; temp4 = high_byte(temp6); // NT of tile of interest
;
	lda     _temp6+1
L369B:	sta     _temp4
;
; coordinates = (temp1 >> 4) + (temp2 & 0xf0);
;
	lda     _temp1
	lsr     a
	lsr     a
	lsr     a
	lsr     a
	sta     ptr1
	lda     _temp2
	and     #$F0
	clc
	adc     ptr1
	sta     _coordinates
;
; AsmSet2ByteFromPtrAtIndexVar(temppointer, cmaps, temp4);
;
	lda     _temp4
	asl     a
	tay
	lda     _cmaps,y
	sta     _temppointer
	lda     _cmaps+1,y
	sta     _temppointer+1
;
; AsmSet1ByteFromZpPtrAtIndexVar(collision, temppointer, coordinates);
;
	ldy     _coordinates
	lda     (_temppointer),y
	sta     _collision
;
; if (METATILE_IS_SOLID(collision)) {
;
	ldy     _collision
	lda     _metatile_property_lookup_table,y
	and     #$01
	beq     L3274
;
; ENEMY_FLIP_DIRECTION(x);
;
	ldy     _x
	lda     _enemies+256,y
	eor     #$01
	sta     _TEMP
	ldy     _x
	lda     _TEMP
	sta     _enemies+256,y
;
; temp3 ^= 1;
;
	lda     _temp3
	eor     #$01
	sta     _temp3
;
; enemies.nt[x] = high_byte(temp5);
;
L3274:	ldy     _x
	lda     _temp5+1
	sta     _enemies+192,y
;
; enemies.actual_y[x] = low_byte(temp5);
;
	ldy     _x
	lda     _temp5
	sta     _enemies+128,y
;
; }
;
	rts

.endproc

; ---------------------------------------------------------------
; void __near__ boss_ai (void)
; ---------------------------------------------------------------

.segment	"CODE"

.proc	_boss_ai: near

.segment	"CODE"

;
; if (high_byte(valrigard.x) > enemies.x[x]) {
;
	lda     _valrigard+1
	jsr     pusha0
	ldy     _x
	lda     _enemies,y
	jsr     tosicmp0
	bcc     L358D
	beq     L358D
;
; ENEMY_SET_DIRECTION_RIGHT(x);
;
	ldy     _x
	lda     _enemies+256,y
	ora     #$01
;
; } else {
;
	jmp     L36A0
;
; ENEMY_SET_DIRECTION_LEFT(x);
;
L358D:	ldy     _x
	lda     _enemies+256,y
	and     #$FE
L36A0:	sta     _TEMP
	ldy     _x
	lda     _TEMP
	sta     _enemies+256,y
;
; temp0 = enemies.extra2[x];
;
	ldy     _x
	lda     _enemies+448,y
	sta     _temp0
;
; ++temp0;
;
	inc     _temp0
;
; enemies.extra2[x] = temp0;
;
	ldy     _x
	lda     _temp0
	sta     _enemies+448,y
;
; temp0 = enemies.timer[x];
;
	ldy     _x
	lda     _enemies+512,y
	sta     _temp0
;
; ++temp0;
;
	inc     _temp0
;
; enemies.timer[x] = temp0;
;
	ldy     _x
	lda     _temp0
	sta     _enemies+512,y
;
; AsmCallFunctionAtPtrOffsetByIndexVar(boss_ai_functions, boss_state);
;
	lda     _boss_state
	asl     a
	tay
	lda     _boss_ai_functions,y
	ldx     _boss_ai_functions+1,y
	jmp     callax

.endproc

; ---------------------------------------------------------------
; void __near__ death_effect_timer_ai (void)
; ---------------------------------------------------------------

.segment	"CODE"

.proc	_death_effect_timer_ai: near

.segment	"CODE"

;
; temp0 = enemies.timer[x];
;
	ldy     _x
	lda     _enemies+512,y
	sta     _temp0
;
; --temp0;
;
	dec     _temp0
;
; enemies.timer[x] = temp0;
;
	ldy     _x
	lda     _temp0
	sta     _enemies+512,y
;
; if (temp0 == 0){
;
	lda     _temp0
	bne     L35CF
;
; enemies.type[x] = ENEMY_NONE;
;
	ldy     _x
	sta     _enemies+320,y
;
; enemies.flags[x] = 0;
;
	ldy     _x
	sta     _enemies+256,y
;
; }
;
L35CF:	rts

.endproc

; ---------------------------------------------------------------
; void __near__ fire_at_target (void)
; ---------------------------------------------------------------

.segment	"CODE"

.proc	_fire_at_target: near

.segment	"CODE"

;
; temp4 = 0;
;
	lda     #$00
	sta     _temp4
;
; if (temp0 < temp2) {
;
	lda     _temp0
	cmp     _temp2
	bcs     L3366
;
; CANNONBALL_SET_NEG_X(temp_x);
;
	ldy     _temp_x
	lda     _enemies+256,y
	and     #$BF
	sta     _TEMP
	ldy     _temp_x
	lda     _TEMP
	sta     _enemies+256,y
;
; } else {
;
	jmp     L36A2
;
; CANNONBALL_SET_POS_X(temp_x);
;
L3366:	ldy     _temp_x
	lda     _enemies+256,y
	ora     #$40
	sta     _TEMP
	ldy     _temp_x
	lda     _TEMP
	sta     _enemies+256,y
;
; ++temp4;
;
	inc     _temp4
;
; if (temp1 < temp3) {
;
L36A2:	lda     _temp1
	cmp     _temp3
	bcs     L337E
;
; CANNONBALL_SET_NEG_Y(temp_x);
;
	ldy     _temp_x
	lda     _enemies+256,y
	and     #$DF
	sta     _TEMP
	ldy     _temp_x
	lda     _TEMP
	sta     _enemies+256,y
;
; } else {
;
	jmp     L338A
;
; CANNONBALL_SET_POS_Y(temp_x);
;
L337E:	ldy     _temp_x
	lda     _enemies+256,y
	ora     #$20
	sta     _TEMP
	ldy     _temp_x
	lda     _TEMP
	sta     _enemies+256,y
;
; temp4 += 0b10;
;
	lda     #$02
	clc
	adc     _temp4
	sta     _temp4
;
; temp0 = abs_subtract(temp0, temp2);
;
L338A:	lda     _temp0
	jsr     pusha
	lda     _temp2
	jsr     _abs_subtract
	sta     _temp0
;
; if ((temp0 & 0x0f) > 8) { temp0 += 0x10; } // Round metatile x up.
;
	and     #$0F
	cmp     #$09
	bcc     L339B
	lda     #$10
	clc
	adc     _temp0
	sta     _temp0
;
; temp1 = abs_subtract(temp1, temp3);
;
L339B:	lda     _temp1
	jsr     pusha
	lda     _temp3
	jsr     _abs_subtract
	sta     _temp1
;
; coordinates = (temp1 & 0xf0) + (temp0 >> 4);
;
	and     #$F0
	sta     ptr1
	lda     _temp0
	lsr     a
	lsr     a
	lsr     a
	lsr     a
	clc
	adc     ptr1
	sta     _coordinates
;
; temp0 = brads_lookup(coordinates);
;
	ldy     _coordinates
	lda     _brads_table,y
	sta     _temp0
;
; }
;
	rts

.endproc

; ---------------------------------------------------------------
; void __near__ main (void)
; ---------------------------------------------------------------

.segment	"CODE"

.proc	_main: near

.segment	"CODE"

;
; ppu_off(); // screen off
;
	jsr     _ppu_off
;
; set_prg_bank(0);
;
	lda     #$00
	jsr     _set_prg_bank
;
; set_chr_bank_0(0);
;
	lda     #$00
	jsr     _set_chr_bank_0
;
; bank_spr(1);
;
	lda     #$01
	jsr     _bank_spr
;
; set_vram_buffer(); // do at least once, sets a pointer to a buffer
;
	jsr     _set_vram_buffer
;
; clear_vram_buffer();
;
	jsr     _clear_vram_buffer
;
; set_prg_bank(4);
;
	lda     #$04
	jsr     _set_prg_bank
;
; show_title_screen();
;
	jsr     _show_title_screen
;
; level_index = 0;
;
	lda     #$00
	sta     _level_index
;
; load_level_selector();
;
	jsr     _load_level_selector
;
; pal_bright(4);
;
	lda     #$04
	jsr     _pal_bright
;
; pal_bg(palette_bg);
;
	lda     #<(_palette_bg)
	ldx     #>(_palette_bg)
	jsr     _pal_bg
;
; pal_spr(palette_sp);
;
	lda     #<(_palette_sp)
	ldx     #>(_palette_sp)
	jsr     _pal_spr
;
; while (game_mode == MODE_TITLE) { 
;
	jmp     L36AA
;
; ppu_wait_nmi();
;
L2615:	jsr     _ppu_wait_nmi
;
; pad1 = pad_poll(0); // read the first controller
;
	lda     #$00
	jsr     _pad_poll
	sta     _pad1
;
; pad1_new = get_pad_new(0);
;
	lda     #$00
	jsr     _get_pad_new
	sta     _pad1_new
;
; clear_vram_buffer();
;
	jsr     _clear_vram_buffer
;
; if (pad1_new & PAD_UP) {
;
	lda     _pad1_new
	and     #$08
	beq     L36A4
;
; sfx_play(SFX_MENU_BEEP, 0);
;
	lda     #$04
	jsr     pusha
	lda     #$00
	jsr     _sfx_play
;
; score = 0; // Reset the score.
;
	lda     #$00
	sta     _score
	sta     _score+1
;
; begin_level();
;
	jsr     _begin_level
;
; break; // Prevent the execution of any of the following code.
;
	jmp     L36AC
;
; if (pad1_new & PAD_LEFT) {
;
L36A4:	lda     _pad1_new
	and     #$02
	beq     L36A6
;
; if (level_index != 0) {
;
	lda     _level_index
	beq     L36A5
;
; --level_index;
;
	dec     _level_index
;
; } else {
;
	jmp     L36A7
;
; level_index = NUMBER_OF_LEVELS - 1;
;
L36A5:	lda     #$18
;
; } else if (pad1_new & PAD_RIGHT) {
;
	jmp     L36A3
L36A6:	lda     _pad1_new
	and     #$01
	beq     L36A7
;
; ++level_index;
;
	inc     _level_index
;
; if (level_index == NUMBER_OF_LEVELS) {
;
	lda     _level_index
	cmp     #$19
	bne     L36A7
;
; level_index = 0;
;
	lda     #$00
L36A3:	sta     _level_index
;
; if (pad1_new & PAD_LEFT | pad1_new & PAD_RIGHT) {
;
L36A7:	lda     _pad1_new
	and     #$02
	sta     ptr1
	lda     _pad1_new
	and     #$01
	ora     ptr1
	stx     tmp1
	ora     tmp1
	jeq     L36AA
;
; sfx_play(SFX_MENU_BEEP, 0);
;
	lda     #$04
	jsr     pusha
	lda     #$00
	jsr     _sfx_play
;
; for (temp0 = 0; temp0 < 28; ++temp0) { cmap[temp0] = ' '; }
;
	lda     #$00
	sta     _temp0
L36A8:	lda     _temp0
	cmp     #$1C
	bcs     L263F
	ldy     _temp0
	lda     #$20
	sta     _cmap,y
	inc     _temp0
	jmp     L36A8
;
; AsmSet2ByteFromPtrAtIndexVar(temppointer, level_names, level_index);
;
L263F:	lda     _level_index
	asl     a
	tay
	lda     _level_names,y
	sta     _temppointer
	lda     _level_names+1,y
	sta     _temppointer+1
;
; temp0 = strlen(temppointer);
;
	lda     _temppointer
	ldx     _temppointer+1
	jsr     _strlen
	sta     _temp0
;
; for (temp1 = 0; temp1 < temp0; ++temp1) {
;
	lda     #$00
	sta     _temp1
	tax
L36A9:	lda     _temp1
	cmp     _temp0
	txa
	sbc     #$00
	bcs     L265C
;
; AsmSet1ByteFromZpPtrAtIndexVar(temp2, temppointer, temp1);
;
	ldy     _temp1
	lda     (_temppointer),y
	sta     _temp2
;
; cmap[temp1] = temp2;
;
	ldy     _temp1
	lda     _temp2
	sta     _cmap,y
;
; for (temp1 = 0; temp1 < temp0; ++temp1) {
;
	inc     _temp1
	jmp     L36A9
;
; multi_vram_buffer_horz(cmap, 28, NTADR_A(3, 10));
;
L265C:	jsr     decsp3
	lda     #<(_cmap)
	ldy     #$01
	sta     (sp),y
	iny
	lda     #>(_cmap)
	sta     (sp),y
	lda     #$1C
	ldy     #$00
	sta     (sp),y
	ldx     #$21
	lda     #$43
	jsr     _multi_vram_buffer_horz
;
; while (game_mode == MODE_TITLE) { 
;
L36AA:	lda     _game_mode
	jeq     L2615
;
; while (game_mode == MODE_GAME) {
;
	jmp     L36AC
;
; ppu_wait_nmi(); // wait till beginning of the frame
;
L2676:	jsr     _ppu_wait_nmi
;
; set_chr_bank_0(0);
;
	lda     #$00
	jsr     _set_chr_bank_0
;
; pad1 = pad_poll(0); // read the first controller
;
	lda     #$00
	jsr     _pad_poll
	sta     _pad1
;
; pad1_new = get_pad_new(0); 
;
	lda     #$00
	jsr     _get_pad_new
	sta     _pad1_new
;
; clear_vram_buffer();
;
	jsr     _clear_vram_buffer
;
; conveyor_delta = 0;
;
	lda     #$00
	sta     _conveyor_delta
;
; did_headbonk = 0;
;
	sta     _did_headbonk
;
; RESET_TOUCHING_YELLOW_DOOR();
;
	lda     _player_flags
	and     #$EF
	sta     _player_flags
;
; RESET_TOUCHING_SPIKES();
;
	and     #$DF
	sta     _player_flags
;
; RESET_SCORE_CHANGED_THIS_FRAME();
;
	and     #$F7
	sta     _player_flags
;
; movement();
;
	jsr     _movement
;
; check_spr_objects();
;
	jsr     _check_spr_objects
;
; swing_sword();
;
	jsr     _swing_sword
;
; sprite_collisions();
;
	jsr     _sprite_collisions
;
; enemy_movement();
;
	jsr     _enemy_movement
;
; set_scroll_y(scroll_y);
;
	lda     _scroll_y
	ldx     _scroll_y+1
	jsr     _set_scroll_y
;
; if (SCORE_CHANGED_THIS_FRAME) { convert_to_decimal(score); }
;
	lda     _player_flags
	and     #$08
	beq     L2698
	lda     _score
	ldx     _score+1
	jsr     _convert_to_decimal
;
; draw_sprites();
;
L2698:	jsr     _draw_sprites
;
; if (valrigard.velocity_y >= 0) { // If this is true, draw down. Otherwise, draw up.
;
	ldx     _valrigard+6+1
	bmi     L269E
;
; add_scroll_y(pseudo_scroll_y, 0x20, scroll_y);
;
	lda     _scroll_y
	sta     _TEMP
	lda     _scroll_y+1
	sta     _TEMP+1
	lda     #$20
	jsr     _add_scroll_y_fast_sub
	sta     _pseudo_scroll_y
	stx     _pseudo_scroll_y+1
;
; pseudo_scroll_y += 0xef; 
;
	lda     #$EF
	clc
	adc     _pseudo_scroll_y
	sta     _pseudo_scroll_y
	bcc     L26AE
	inc     _pseudo_scroll_y+1
;
; }  else {
;
	jmp     L26AE
;
; pseudo_scroll_y = sub_scroll_y(0x20, scroll_y);
;
L269E:	lda     #$20
	jsr     pusha
	lda     _scroll_y
	ldx     _scroll_y+1
	jsr     _sub_scroll_y
	sta     _pseudo_scroll_y
	stx     _pseudo_scroll_y+1
;
; temp1 = high_byte(pseudo_scroll_y);
;
L26AE:	lda     _pseudo_scroll_y+1
	sta     _temp1
;
; AsmSet2ByteFromPtrAtIndexVar(temppointer, cmaps, temp1);
;
	asl     a
	tay
	lda     _cmaps,y
	sta     _temppointer
	lda     _cmaps+1,y
	sta     _temppointer+1
;
; set_data_pointer(temppointer); // Should this value be clamped to the number of cmaps?
;
	lda     _temppointer
	ldx     _temppointer+1
	jsr     _set_data_pointer
;
; draw_screen_sub();
;
	jsr     _draw_screen_sub
;
; handle_tile_clear_queue();
;
	jsr     _handle_tile_clear_queue
;
; if (game_mode == MODE_GAME_OVER) {
;
	lda     _game_mode
	cmp     #$04
	bne     L36AB
;
; load_game_over_screen();
;
	jsr     _load_game_over_screen
;
; if (pad1 & PAD_DOWN) {
;
L36AB:	lda     _pad1
	and     #$04
	beq     L36AC
;
; SET_STATUS_ALIVE();
;
	lda     _player_flags
	and     #$FD
	sta     _player_flags
;
; while (game_mode == MODE_GAME) {
;
L36AC:	lda     _game_mode
	cmp     #$01
	jeq     L2676
;
; while (game_mode == MODE_GAME_SHOWING_TEXT) {
;
	jmp     L36AD
;
; ppu_wait_nmi(); 
;
L26D0:	jsr     _ppu_wait_nmi
;
; set_chr_bank_0(0);
;
	lda     #$00
	jsr     _set_chr_bank_0
;
; pad1 = pad_poll(0); // read the first controller
;
	lda     #$00
	jsr     _pad_poll
	sta     _pad1
;
; pad1_new = get_pad_new(0); 
;
	lda     #$00
	jsr     _get_pad_new
	sta     _pad1_new
;
; clear_vram_buffer();
;
	jsr     _clear_vram_buffer
;
; draw_sprites();
;
	jsr     _draw_sprites
;
; dialog_box_handler();
;
	jsr     _dialog_box_handler
;
; while (game_mode == MODE_GAME_SHOWING_TEXT) {
;
L36AD:	lda     _game_mode
	cmp     #$05
	beq     L26D0
;
; while (game_mode == MODE_GAME_OVER) {
;
	jmp     L36AE
;
; ppu_wait_nmi();
;
L26E0:	jsr     _ppu_wait_nmi
;
; pad1 = pad_poll(0);
;
	lda     #$00
	jsr     _pad_poll
	sta     _pad1
;
; pad1_new = get_pad_new(0);
;
	lda     #$00
	jsr     _get_pad_new
	sta     _pad1_new
;
; if (pad1_new & PAD_DOWN) {
;
	and     #$04
	beq     L36AE
;
; load_level_selector();
;
	jsr     _load_level_selector
;
; while (game_mode == MODE_GAME_OVER) {
;
L36AE:	lda     _game_mode
	cmp     #$04
	beq     L26E0
;
; while (1){
;
	jmp     L36AA

.endproc

